******************************************************************************
            TI ARM Clang Linker Unix v3.2.0                    
******************************************************************************
>> Linked Wed Dec 13 09:23:34 2023

OUTPUT FILE NAME:   <sbl_uart.release.out>
ENTRY POINT SYMBOL: "_vectors_sbl"  address: 43c00040


MEMORY CONFIGURATION

         name            origin    length      used     unused   attr    fill
----------------------  --------  ---------  --------  --------  ----  --------
  HSM_RAM_VECS          43c00000   00000100  00000080  00000080  RWIX
  HSM_RAM               43c00100   0003c700  0002d848  0000eeb8  RWIX
  DDR                   84000000   40000000  40000000  00000000  RWIX


SEGMENT ALLOCATION MAP

run origin  load origin   length   init length attrs members
----------  ----------- ---------- ----------- ----- -------
43c00000    43c00000    00000080   00000080    r-x
  43c00000    43c00000    00000080   00000080    r-x .vectors
43c00100    43c00100    00014968   00014968    r-x
  43c00100    43c00100    00012240   00012240    r-x .text
  43c12340    43c12340    00001870   00001870    r-- .const
  43c13bb0    43c13bb0    00000718   00000718    r-x .text.hwi
  43c142c8    43c142c8    00000430   00000430    r-x .text.cache
  43c146f8    43c146f8    00000248   00000248    r-x .text.mpu
  43c14940    43c14940    00000128   00000128    r-x .text.boot
43c14a68    43c14a68    00004288   00004288    rw-
  43c14a68    43c14a68    00004288   00004288    rw- .data
43c18cf0    43c18cf0    00003ca8   00003ca8    r--
  43c18cf0    43c18cf0    00003ca8   00003ca8    r-- .rodata
43c1ca00    43c1ca00    00000f80   00000f80    r--
  43c1ca00    43c1ca00    00000f80   00000f80    r-- .boardcfg_data
43c1d980    43c1d980    0000ebc8   00000000    rw-
  43c1d980    43c1d980    00008000   00000000    rw- .sysmem
  43c25980    43c25980    00004000   00000000    rw- .stack
  43c29980    43c29980    00002bc8   00000000    rw- .bss
43c2c548    43c2c548    00001400   00000000    r--
  43c2c548    43c2c548    00001000   00000000    r-- .irqstack
  43c2d548    43c2d548    00000100   00000000    r-- .fiqstack
  43c2d648    43c2d648    00000100   00000000    r-- .svcstack
  43c2d748    43c2d748    00000100   00000000    r-- .abortstack
  43c2d848    43c2d848    00000100   00000000    r-- .undefinedstack


SECTION ALLOCATION MAP

 output                                  attributes/
section   page    origin      length       input sections
--------  ----  ----------  ----------   ----------------
.vectors   0    43c00000    00000080     
                  43c00000    00000040     nortos.am62ax.r5f.ti-arm-clang.release.lib : HwiP_armv7r_vectors_nortos_asm.obj (.vectors)
                  43c00040    00000040                                                : HwiP_armv7r_vectors_nortos_sbl_asm.obj (.vectors)

.text      0    43c00100    00012240     
                  43c00100    00000740     rm_pm_hal_sbl.am62ax.r5f.ti-arm-clang.release.lib : pll.obj (.text.pll_calc)
                  43c00840    0000062c                                                       : rm_udmap.obj (.text.rm_udmap_tx_ch_cfg)
                  43c00e6c    000005c4                                                       : rm_udmap.obj (.text.rm_udmap_rx_ch_cfg)
                  43c01430    00000598     nortos.am62ax.r5f.ti-arm-clang.release.lib : printf.obj (.text._vsnprintf)
                  43c019c8    000004f4     drivers.am62ax.dm-r5f.ti-arm-clang.release.lib : ddr.obj (.text.DDR_init)
                  43c01ebc    000004f2                                                    : uart_v0.obj (.text.UART_open)
                  43c023ae    00000002     ti_board_config.obj (.text.Board_deinit)
                  43c023b0    0000043c     rm_pm_hal_sbl.am62ax.r5f.ti-arm-clang.release.lib : rm_ra.obj (.text.rm_ra_cfg)
                  43c027ec    00000004     ti_board_open_close.obj (.text.Board_driversOpen)
                  43c027f0    00000398     nortos.am62ax.r5f.ti-arm-clang.release.lib : printf.obj (.text._ftoa)
                  43c02b88    00000018     drivers.am62ax.dm-r5f.ti-arm-clang.release.lib : bootloader_soc.obj (.text.Bootloader_socAuthImage)
                  43c02ba0    00000390     libc.a : strcmp32.S.obj (.text:strcmp)
                  43c02f30    00000388     rm_pm_hal_sbl.am62ax.r5f.ti-arm-clang.release.lib : psc.obj (.text.lpsc_module_sync_state)
                  43c032b8    0000031c     sciclient_direct_sbl.am62ax.r5f.ti-arm-clang.release.lib : sciclient.obj (.text.Sciclient_serviceSecureProxy)
                  43c035d4    00000004     drivers.am62ax.dm-r5f.ti-arm-clang.release.lib : bootloader_soc.obj (.text.Bootloader_socWaitForFWBoot)
                  43c035d8    00000310     nortos.am62ax.r5f.ti-arm-clang.release.lib : printf.obj (.text._etoa)
                  43c038e8    000002e8     rm_pm_hal_sbl.am62ax.r5f.ti-arm-clang.release.lib : rm_udmap.obj (.text.rm_udmap_flow_cfg)
                  43c03bd0    00000292     drivers.am62ax.dm-r5f.ti-arm-clang.release.lib : bootloader_soc.obj (.text.Bootloader_socCpuResetRelease)
                  43c03e62    00000292     rm_pm_hal_sbl.am62ax.r5f.ti-arm-clang.release.lib : pll.obj (.text.pll_consider)
                  43c040f4    00000290     drivers.am62ax.dm-r5f.ti-arm-clang.release.lib : uart_v0.obj (.text.UART_read)
                  43c04384    00000280     rm_pm_hal_sbl.am62ax.r5f.ti-arm-clang.release.lib : clk_div.obj (.text.clk_div_set_freq)
                  43c04604    0000027c                                                       : clk_pll_16fft.obj (.text.clk_pll_16fft_hsdiv_set_freq)
                  43c04880    00000260                                                       : clk_pll_16fft.obj (.text.clk_pll_16fft_init)
                  43c04ae0    0000024a     drivers.am62ax.dm-r5f.ti-arm-clang.release.lib : bootloader.obj (.text.Bootloader_verifyMulticoreImage)
                  43c04d2a    00000002     ti_board_config.obj (.text.Board_init)
                  43c04d2c    00000248     rm_pm_hal_sbl.am62ax.r5f.ti-arm-clang.release.lib : device_clk.obj (.text.dev_clk_set_freq)
                  43c04f74    00000224                                                       : rm_irq.obj (.text.rm_irq_release)
                  43c05198    00000220     drivers.am62ax.dm-r5f.ti-arm-clang.release.lib : uart_v0.obj (.text.UART_masterIsr)
                  43c053b8    00000206                                                    : xmodem.obj (.text.xmodemReceive)
                  43c055be    00000200     main.obj (.text.App_loadImages)
                  43c057be    00000002     drivers.am62ax.dm-r5f.ti-arm-clang.release.lib : ddr_soc.obj (.text.DDR_socEnableVttRegulator)
                  43c057c0    00000200     rm_pm_hal_sbl.am62ax.r5f.ti-arm-clang.release.lib : device.obj (.text.devices_init)
                  43c059c0    000001fe     drivers.am62ax.dm-r5f.ti-arm-clang.release.lib : uart_v0.obj (.text.UART_write)
                  43c05bbe    00000002                                                    : bootloader_mem.obj (.text.Mem_imgClose)
                  43c05bc0    000001fc     rm_pm_hal_sbl.am62ax.r5f.ti-arm-clang.release.lib : rm_irq.obj (.text.rm_irq_set)
                  43c05dbc    000001f0     drivers.am62ax.dm-r5f.ti-arm-clang.release.lib : xmodem.obj (.text.xmodemTransmit)
                  43c05fac    000001e0     rm_pm_hal_sbl.am62ax.r5f.ti-arm-clang.release.lib : clk_pll_16fft.obj (.text.clk_pll_16fft_program_freq)
                  43c0618c    000001d6     drivers.am62ax.dm-r5f.ti-arm-clang.release.lib : bootloader_soc.obj (.text.Bootloader_socCpuPowerOnResetR5f)
                  43c06362    00000002     nortos.am62ax.r5f.ti-arm-clang.release.lib : SemaphoreP_nortos.obj (.text.SemaphoreP_destruct)
                  43c06364    000001d4     sciclient_direct_sbl.am62ax.r5f.ti-arm-clang.release.lib : sciclient_direct.obj (.text.Sciclient_service)
                  43c06538    000001d0                                                              : sciclient.obj (.text.Sciclient_init)
                  43c06708    000001c0     nortos.am62ax.r5f.ti-arm-clang.release.lib : TimerP.obj (.text.TimerP_setup)
                  43c068c8    000001b4     libc.a : memory.c.obj (.text.aligned_alloc)
                  43c06a7c    000001b0            : memory.c.obj (.text.free)
                  43c06c2c    000001b0     rm_pm_hal_sbl.am62ax.r5f.ti-arm-clang.release.lib : psc.obj (.text.psc_pre_init)
                  43c06ddc    000001a2     drivers.am62ax.dm-r5f.ti-arm-clang.release.lib : ddr_soc.obj (.text.DDR_programPLL)
                  43c06f7e    00000002     nortos.am62ax.r5f.ti-arm-clang.release.lib : TaskP_nortos.obj (.text.TaskP_yield)
                  43c06f80    00000164     rm_pm_hal_sbl.am62ax.r5f.ti-arm-clang.release.lib : rm_udmap.obj (.text.rm_udmap_gcfg_cfg)
                  43c070e4    0000015c                                                       : device_process.obj (.text.set_device_handler)
                  43c07240    00000158                                                       : rm_ir.obj (.text.rm_ir_configure)
                  43c07398    00000152     nortos.am62ax.r5f.ti-arm-clang.release.lib : printf.obj (.text._ntoa_format)
                  43c074ea    00000002                                                : printf.obj (.text._out_null)
                  43c074ec    0000014c     sciclient_direct_sbl.am62ax.r5f.ti-arm-clang.release.lib : uart_print.obj (.text.UART_printf)
                  43c07638    00000148     rm_pm_hal_sbl.am62ax.r5f.ti-arm-clang.release.lib : clk.obj (.text.clk_init)
                  43c07780    00000146     sciclient_direct_sbl.am62ax.r5f.ti-arm-clang.release.lib : sciclient_direct.obj (.text.Sciclient_ProcessPmMessage)
                  43c078c6    00000146     drivers.am62ax.dm-r5f.ti-arm-clang.release.lib : uart_v0.obj (.text.UART_close)
                  43c07a0c    00000144     libc.a : setvbuf.c.obj (.text.setvbuf)
                  43c07b50    00000134     drivers.am62ax.dm-r5f.ti-arm-clang.release.lib : bootloader.obj (.text.Bootloader_parseMultiCoreAppImage)
                  43c07c84    00000134     rm_pm_hal_sbl.am62ax.r5f.ti-arm-clang.release.lib : rm_ra.obj (.text.ra_get_ring_evt)
                  43c07db8    00000134                                                       : rm_ra.obj (.text.ra_set_ring_evt)
                  43c07eec    00000132     drivers.am62ax.dm-r5f.ti-arm-clang.release.lib : soc.obj (.text.SOC_moduleSetClockFrequency)
                  43c0801e    00000002     rm_pm_hal_sbl.am62ax.r5f.ti-arm-clang.release.lib : ioremap.obj (.text.ioremap_internal)
                  43c08020    0000012c                                                       : psc.obj (.text.psc_uninit)
                  43c0814c    00000128     drivers.am62ax.dm-r5f.ti-arm-clang.release.lib : ddr.obj (.text.DDR_isr)
                  43c08274    00000124     rm_pm_hal_sbl.am62ax.r5f.ti-arm-clang.release.lib : clk_pll_16fft.obj (.text.clk_pll_16fft_get_freq)
                  43c08398    00000122                                                       : rm_udmap.obj (.text.udmap_oes_index_validate)
                  43c084ba    00000120     drivers.am62ax.dm-r5f.ti-arm-clang.release.lib : lpddr4_am6x.obj (.text.LPDDR4_CheckCtlInterrupt)
                  43c085da    00000002     rm_pm_hal_sbl.am62ax.r5f.ti-arm-clang.release.lib : mmr_lock.obj (.text.mmr_lock_all)
                  43c085dc    00000120                                                       : rm_udmap.obj (.text.udmap_get_ch_evt)
                  43c086fc    0000011e     drivers.am62ax.dm-r5f.ti-arm-clang.release.lib : bootloader_dma.obj (.text.BootloaderDma_submitTR)
                  43c0881a    00000002     rm_pm_hal_sbl.am62ax.r5f.ti-arm-clang.release.lib : map.obj (.text.u32_get_bytes)
                  43c0881c    0000011c                                                       : clk_pll_16fft.obj (.text.clk_pll_16fft_internal_set_freq)
                  43c08938    00000118     libclang_rt.builtins.a : udivmoddi4.S.obj (.text)
                  43c08a50    00000116     drivers.am62ax.dm-r5f.ti-arm-clang.release.lib : bootloader_soc.obj (.text.Bootloader_socCpuPowerOnResetHSMM4f)
                  43c08b66    00000112                                                    : bootloader.obj (.text.Bootloader_rprcImageLoad)
                  43c08c78    00000112                                                    : lpddr4_am6x.obj (.text.LPDDR4_AckCtlInterrupt)
                  43c08d8a    0000010c     main.obj (.text.main)
                  43c08e96    00000002     --HOLE-- [fill = 0]
                  43c08e98    0000010c     rm_pm_hal_sbl.am62ax.r5f.ti-arm-clang.release.lib : rm_core.obj (.text.rm_core_get_resource_range)
                  43c08fa4    0000010c                                                       : rm_ia.obj (.text.rm_ia_vint_map)
                  43c090b0    00000104                                                       : device_clk.obj (.text.device_clk_get_parent)
                  43c091b4    00000100     sciclient_direct_sbl.am62ax.r5f.ti-arm-clang.release.lib : sciclient_direct.obj (.text.Sciclient_ProcessRmMessage)
                  43c092b4    000000fc     nortos.am62ax.r5f.ti-arm-clang.release.lib : ClockP_nortos_r5.obj (.text.ClockP_init)
                  43c093b0    000000f8     rm_pm_hal_sbl.am62ax.r5f.ti-arm-clang.release.lib : rm_udmap.obj (.text.udmap_set_ch_evt)
                  43c094a8    000000f4     libc.a : fputc.c.obj (.text.fputc)
                  43c0959c    000000f4     rm_pm_hal_sbl.am62ax.r5f.ti-arm-clang.release.lib : rm_ia.obj (.text.rm_ia_init)
                  43c09690    000000f2                                                       : rm_ia.obj (.text.rm_ia_vint_unmap)
                  43c09782    000000f0     drivers.am62ax.dm-r5f.ti-arm-clang.release.lib : bootloader_dma.obj (.text.Bootloader_dmaCopy)
                  43c09872    00000002     --HOLE-- [fill = 0]
                  43c09874    000000ec     rm_pm_hal_sbl.am62ax.r5f.ti-arm-clang.release.lib : clk_div.obj (.text.clk_div_notify_freq)
                  43c09960    000000ec                                                       : psc.obj (.text.psc_pd_get)
                  43c09a4c    000000e8                                                       : rm_udmap.obj (.text.rm_udmap_is_managed_resasg_utype)
                  43c09b34    000000e6                                                       : rm_ia.obj (.text.ia_validate_evt)
                  43c09c1a    00000002     --HOLE-- [fill = 0]
                  43c09c1c    000000e0                                                       : clk.obj (.text.clk_set_freq)
                  43c09cfc    000000e0                                                       : device_clk.obj (.text.device_clk_set_gated)
                  43c09ddc    000000e0                                                       : psc.obj (.text.lpsc_module_wait)
                  43c09ebc    000000dc                                                       : rm_ra.obj (.text.rm_ra_mon_cfg)
                  43c09f98    000000d0                                                       : rm_ia.obj (.text.ia_set_oes_evt)
                  43c0a068    000000d0                                                       : psc.obj (.text.lpsc_module_put_internal)
                  43c0a138    000000d0                                                       : psc.obj (.text.psc_pd_put)
                  43c0a208    000000d0                                                       : rm_udmap.obj (.text.rm_udmap_flow_delegate)
                  43c0a2d8    000000ca                                                       : rm_ia.obj (.text.ia_get_oes_evt)
                  43c0a3a2    00000002     --HOLE-- [fill = 0]
                  43c0a3a4    000000c8     libc.a : getdevice.c.obj (.text.getdevice)
                  43c0a46c    000000c4     rm_pm_hal_sbl.am62ax.r5f.ti-arm-clang.release.lib : clk_div.obj (.text.clk_div_set_freq_static_parent)
                  43c0a530    000000c4                                                       : device_clk.obj (.text.device_clk_set_parent)
                  43c0a5f4    000000c0                                                       : clk_pll_16fft.obj (.text.clk_pll_16fft_wait_for_lock)
                  43c0a6b4    000000c0                                                       : clk_mux.obj (.text.clk_set_parent)
                  43c0a774    000000c0                                                       : clock.obj (.text.get_clock_handler)
                  43c0a834    000000c0                                                       : psc.obj (.text.psc_post_init)
                  43c0a8f4    000000c0                                                       : clock.obj (.text.set_clock_handler)
                  43c0a9b4    000000bc     sciclient_direct_sbl.am62ax.r5f.ti-arm-clang.release.lib : sciclient_pm.obj (.text.Sciclient_pmQueryModuleClkFreq)
                  43c0aa70    000000bc     rm_pm_hal_sbl.am62ax.r5f.ti-arm-clang.release.lib : rm_core.obj (.text.rm_core_resasg_validate_resource)
                  43c0ab2c    000000bc                                                       : clock.obj (.text.set_freq_handler)
                  43c0abe8    000000bc                                                       : device_psc.obj (.text.soc_device_init)
                  43c0aca4    000000b8     sciclient_direct_sbl.am62ax.r5f.ti-arm-clang.release.lib : sciclient_direct.obj (.text.Sciclient_boardCfgParseHeader)
                  43c0ad5c    000000b8     drivers.am62ax.dm-r5f.ti-arm-clang.release.lib : uart_v0.obj (.text.UART_divisorLatchWrite)
                  43c0ae14    000000b8                                                    : uart_v0.obj (.text.UART_flushTxFifo)
                  43c0aecc    000000b8     rm_pm_hal_sbl.am62ax.r5f.ti-arm-clang.release.lib : clock.obj (.text.query_freq_handler)
                  43c0af84    000000b6                                                       : map.obj (.text.map_add)
                  43c0b03a    000000b6                                                       : div64.obj (.text.pm_div64)
                  43c0b0f0    000000b4     libc.a : fclose.c.obj (.text.__TI_closefile)
                  43c0b1a4    000000b4     rm_pm_hal_sbl.am62ax.r5f.ti-arm-clang.release.lib : clk_div.obj (.text.clk_div_reg_go_set_div)
                  43c0b258    000000b4     libc.a : fseek.c.obj (.text.fseeko)
                  43c0b30c    000000b4     rm_pm_hal_sbl.am62ax.r5f.ti-arm-clang.release.lib : init.obj (.text.pm_init)
                  43c0b3c0    000000b0     nortos.am62ax.r5f.ti-arm-clang.release.lib : printf.obj (.text._ntoa_long_long)
                  43c0b470    000000b0     rm_pm_hal_sbl.am62ax.r5f.ti-arm-clang.release.lib : rm_ra.obj (.text.rm_ra_init)
                  43c0b520    000000ae     sciclient_direct_sbl.am62ax.r5f.ti-arm-clang.release.lib : sciclient_direct.obj (.text.boardcfgRmFindCertSize)
                  43c0b5ce    00000002     --HOLE-- [fill = 0]
                  43c0b5d0    000000ac     rm_pm_hal_sbl.am62ax.r5f.ti-arm-clang.release.lib : psc.obj (.text.lpsc_module_get_internal)
                  43c0b67c    000000ac                                                       : rm_udmap.obj (.text.rm_udmap_init)
                  43c0b728    000000aa     sciclient_direct_sbl.am62ax.r5f.ti-arm-clang.release.lib : sciclient_pm.obj (.text.Sciclient_pmSetModuleClkFreq)
                  43c0b7d2    000000aa     drivers.am62ax.dm-r5f.ti-arm-clang.release.lib : uart_v0.obj (.text.UART_procLineStatusErr)
                  43c0b87c    000000a8     rm_pm_hal_sbl.am62ax.r5f.ti-arm-clang.release.lib : rm_udmap.obj (.text.udmap_check_index_range)
                  43c0b924    000000a6     nortos.am62ax.r5f.ti-arm-clang.release.lib : printf.obj (.text._out_rev)
                  43c0b9ca    00000002     --HOLE-- [fill = 0]
                  43c0b9cc    000000a4     rm_pm_hal_sbl.am62ax.r5f.ti-arm-clang.release.lib : boardcfg-user.obj (.text.boardcfg_rm_receive_and_validate)
                  43c0ba70    000000a4     libc.a : memory.c.obj (.text.split)
                  43c0bb14    000000a0     libsysbm.a : hostrename.c.obj (.text.HOSTrename)
                  43c0bbb4    000000a0     rm_pm_hal_sbl.am62ax.r5f.ti-arm-clang.release.lib : device_prepare.obj (.text.device_prepare)
                  43c0bc54    000000a0                                                       : device_process.obj (.text.get_device_handler)
                  43c0bcf4    000000a0                                                       : rm_core.obj (.text.rm_core_init)
                  43c0bd94    000000a0                                                       : rm_ra.obj (.text.rm_ra_validate_ring_index)
                  43c0be34    0000009e                                                       : rm_udmap.obj (.text.udmap_check_flow_index)
                  43c0bed2    00000002     --HOLE-- [fill = 0]
                  43c0bed4    0000009c     libc.a : _io_perm.c.obj (.text.__TI_wrt_ok)
                  43c0bf70    0000009c     rm_pm_hal_sbl.am62ax.r5f.ti-arm-clang.release.lib : clk.obj (.text.clk_generic_set_freq_parent)
                  43c0c00c    0000009c                                                       : clk_pll_16fft.obj (.text.clk_pll_16fft_set_freq)
                  43c0c0a8    0000009c                                                       : rm_ir.obj (.text.rm_ir_clear)
                  43c0c144    00000098     libsysbm.a : hostlseek.c.obj (.text.HOSTlseek)
                  43c0c1dc    00000098     sciclient_direct_sbl.am62ax.r5f.ti-arm-clang.release.lib : sciclient.obj (.text.Sciclient_serviceGetThreadIds)
                  43c0c274    00000096     nortos.am62ax.r5f.ti-arm-clang.release.lib : SemaphoreP_nortos.obj (.text.SemaphoreP_pend)
                  43c0c30a    00000094     drivers.am62ax.dm-r5f.ti-arm-clang.release.lib : bootloader.obj (.text.Bootloader_getMsgLen)
                  43c0c39e    00000002     --HOLE-- [fill = 0]
                  43c0c3a0    00000094     libsysbm.a : hostopen.c.obj (.text.HOSTopen)
                  43c0c434    00000094     drivers.am62ax.dm-r5f.ti-arm-clang.release.lib : uart_v0.obj (.text.UART_init)
                  43c0c4c8    00000094     rm_pm_hal_sbl.am62ax.r5f.ti-arm-clang.release.lib : rm_irq.obj (.text.irq_trace_remaining_params)
                  43c0c55c    00000090     drivers.am62ax.dm-r5f.ti-arm-clang.release.lib : bootloader.obj (.text.Bootloader_loadSelfCpu)
                  43c0c5ec    00000090     rm_pm_hal_sbl.am62ax.r5f.ti-arm-clang.release.lib : device_pm.obj (.text.device_set_state)
                  43c0c67c    00000090                                                       : rm_ir.obj (.text.ir_clear_rom_mapping)
                  43c0c70c    00000090                                                       : psc.obj (.text.lpsc_module_set_local_reset)
                  43c0c79c    0000008e     drivers.am62ax.dm-r5f.ti-arm-clang.release.lib : uart_v0.obj (.text.UART_readCancelNoCB)
                  43c0c82a    00000002     --HOLE-- [fill = 0]
                  43c0c82c    0000008c     sciclient_direct_sbl.am62ax.r5f.ti-arm-clang.release.lib : uart_print.obj (.text.UART_convertVal)
                  43c0c8b8    0000008c     libc.a : fflush.c.obj (.text.__TI_doflush)
                  43c0c944    0000008c     nortos.am62ax.r5f.ti-arm-clang.release.lib : printf.obj (.text._ntoa_long)
                  43c0c9d0    0000008c     rm_pm_hal_sbl.am62ax.r5f.ti-arm-clang.release.lib : clk_mux.obj (.text.clk_mux_set_parent)
                  43c0ca5c    0000008c     libsysbm.a : close.c.obj (.text.close)
                  43c0cae8    0000008c     rm_pm_hal_sbl.am62ax.r5f.ti-arm-clang.release.lib : psc.obj (.text.psc_pd_wait)
                  43c0cb74    0000008a                                                       : rm_ra.obj (.text.ra_check_index_range)
                  43c0cbfe    00000088     drivers.am62ax.dm-r5f.ti-arm-clang.release.lib : bootloader_soc.obj (.text.Bootloader_socCpuPowerOnResetC7x)
                  43c0cc86    00000088                                                    : ddr.obj (.text.DDR_primeMem)
                  43c0cd0e    00000002     --HOLE-- [fill = 0]
                  43c0cd10    00000088     rm_pm_hal_sbl.am62ax.r5f.ti-arm-clang.release.lib : psc.obj (.text.lpsc_module_set_module_reset)
                  43c0cd98    00000086     drivers.am62ax.dm-r5f.ti-arm-clang.release.lib : bootloader_soc.obj (.text.Bootloader_socCpuSetClock)
                  43c0ce1e    00000086     sciclient_direct_sbl.am62ax.r5f.ti-arm-clang.release.lib : sciclient_pm.obj (.text.Sciclient_pmGetModuleClkNumParent)
                  43c0cea4    00000086                                                              : sciclient_pm.obj (.text.Sciclient_pmGetModuleClkParent)
                  43c0cf2a    00000002     --HOLE-- [fill = 0]
                  43c0cf2c    00000084     libsysbm.a : hostread.c.obj (.text.HOSTread)
                  43c0cfb0    00000084                : hostwrite.c.obj (.text.HOSTwrite)
                  43c0d034    00000084     sciclient_direct_sbl.am62ax.r5f.ti-arm-clang.release.lib : sciclient_boardcfg.obj (.text.Sciclient_boardCfgPm)
                  43c0d0b8    00000084                                                              : sciclient_boardcfg.obj (.text.Sciclient_boardCfgRm)
                  43c0d13c    00000084                                                              : sciclient_pm.obj (.text.Sciclient_pmGetModuleClkFreq)
                  43c0d1c0    00000084                                                              : sciclient_pm.obj (.text.Sciclient_pmModuleGetClkStatus)
                  43c0d244    00000082                                                              : sciclient_pm.obj (.text.Sciclient_pmGetModuleState)
                  43c0d2c6    00000002     --HOLE-- [fill = 0]
                  43c0d2c8    00000080                                                              : sciclient.obj (.text.Sciclient_ISR)
                  43c0d348    00000080                                                              : sciclient_secureproxy.obj (.text.Sciclient_sendMessage)
                  43c0d3c8    00000080     rm_pm_hal_sbl.am62ax.r5f.ti-arm-clang.release.lib : clk_div.obj (.text.clk_div_reg_set_div)
                  43c0d448    00000080                                                       : clk_pll_16fft.obj (.text.clk_pll_16fft_postdiv_set_freq)
                  43c0d4c8    00000080                                                       : clock.obj (.text.set_clock_parent_handler)
                  43c0d548    0000007e     sciclient_direct_sbl.am62ax.r5f.ti-arm-clang.release.lib : sciclient_pm.obj (.text.Sciclient_pmModuleClkRequest)
                  43c0d5c6    0000007e                                                              : sciclient_pm.obj (.text.Sciclient_pmSetModuleClkParent)
                  43c0d644    0000007c     rm_pm_hal_sbl.am62ax.r5f.ti-arm-clang.release.lib : clk.obj (.text.clk_notify_sibling_freq)
                  43c0d6c0    0000007c                                                       : clk_pll_16fft.obj (.text.clk_pll_16fft_postdiv_set_div)
                  43c0d73c    0000007c                                                       : clock.obj (.text.get_clock_parent_handler)
                  43c0d7b8    0000007c                                                       : clock.obj (.text.get_num_clock_parents_handler)
                  43c0d834    0000007c                                                       : rm_ra.obj (.text.rm_ra_is_managed_resasg_utype)
                  43c0d8b0    0000007a                                                       : rm_udmap.obj (.text.udmap_clear_rom_oes)
                  43c0d92a    00000002     --HOLE-- [fill = 0]
                  43c0d92c    00000078     sciclient_direct_sbl.am62ax.r5f.ti-arm-clang.release.lib : sciclient.obj (.text.Sciclient_servicePrepareHeader)
                  43c0d9a4    00000078     rm_pm_hal_sbl.am62ax.r5f.ti-arm-clang.release.lib : psc.obj (.text.psc_drop_pwr_up_ref)
                  43c0da1c    00000074                                                       : clk_dev.obj (.text.clk_from_device_get_state)
                  43c0da90    00000074                                                       : clk.obj (.text.clk_get)
                  43c0db04    00000074                                                       : device_process.obj (.text.set_device_resets_handler)
                  43c0db78    00000072     drivers.am62ax.dm-r5f.ti-arm-clang.release.lib : bootloader_soc.obj (.text.Bootloader_socCpuPowerOnResetA53)
                  43c0dbea    00000002     --HOLE-- [fill = 0]
                  43c0dbec    00000070     sciclient_direct_sbl.am62ax.r5f.ti-arm-clang.release.lib : sciclient.obj (.text.Sciclient_configPrmsInit)
                  43c0dc5c    0000006e     drivers.am62ax.dm-r5f.ti-arm-clang.release.lib : ddr_soc.obj (.text.DDR_programHSDIV)
                  43c0dcca    0000006e                                                    : lpddr4.obj (.text.LPDDR4_Start)
                  43c0dd38    0000006e                                                    : soc.obj (.text.SOC_moduleClockEnable)
                  43c0dda6    0000006e     rm_pm_hal_sbl.am62ax.r5f.ti-arm-clang.release.lib : rm_core.obj (.text.core_resasg_get_range)
                  43c0de14    0000006c     libsysbm.a : hostunlink.c.obj (.text.HOSTunlink)
                  43c0de80    0000006c     rm_pm_hal_sbl.am62ax.r5f.ti-arm-clang.release.lib : device_clk.obj (.text.device_clk_init)
                  43c0deec    0000006c                                                       : device_clk.obj (.text.get_dev_clk)
                  43c0df58    0000006c                                                       : psc.obj (.text.lpsc_module_set_reset_iso)
                  43c0dfc4    0000006a     drivers.am62ax.dm-r5f.ti-arm-clang.release.lib : bootloader_soc.obj (.text.Bootloader_socMemInitCpu)
                  43c0e02e    0000006a     rm_pm_hal_sbl.am62ax.r5f.ti-arm-clang.release.lib : rm_ia.obj (.text.ia_unmap_clear_rom_mapping)
                  43c0e098    00000068     nortos.am62ax.r5f.ti-arm-clang.release.lib : AddrTranslateP.obj (.text.AddrTranslateP_getLocalAddr)
                  43c0e100    00000068     drivers.am62ax.dm-r5f.ti-arm-clang.release.lib : bootloader_soc.obj (.text.Bootloader_socCpuGetClock)
                  43c0e168    00000068                                                    : bootloader_soc.obj (.text.Bootloader_socCpuRelease)
                  43c0e1d0    00000068                                                    : uart_v0.obj (.text.UART_writeCancelNoCB)
                  43c0e238    00000068     rm_pm_hal_sbl.am62ax.r5f.ti-arm-clang.release.lib : clk_mux.obj (.text.clk_mux_get_parent)
                  43c0e2a0    00000068                                                       : rm_core.obj (.text.rm_core_validate_devgrp)
                  43c0e308    00000068                                                       : rm_ir.obj (.text.rm_ir_get_outp)
                  43c0e370    00000066     drivers.am62ax.dm-r5f.ti-arm-clang.release.lib : bootloader_soc.obj (.text.Bootloader_socCpuRequest)
                  43c0e3d6    00000064                                                    : csl_emif.obj (.text.CSL_emifConfig)
                  43c0e43a    00000064     sciclient_direct_sbl.am62ax.r5f.ti-arm-clang.release.lib : sciclient_procboot.obj (.text.Sciclient_procBootSetSequenceCtrl)
                  43c0e49e    00000002     --HOLE-- [fill = 0]
                  43c0e4a0    00000064     rm_pm_hal_sbl.am62ax.r5f.ti-arm-clang.release.lib : clk_div.obj (.text.clk_div_reg_get_div)
                  43c0e504    00000064                                                       : clk_pll_16fft.obj (.text.clk_pll_16fft_get_state)
                  43c0e568    00000064                                                       : psc.obj (.text.lpsc_module_clk_put)
                  43c0e5cc    00000064                                                       : resource.obj (.text.resource_get)
                  43c0e630    00000064                                                       : rm_core.obj (.text.rm_core_resasg_get_utype_index)
                  43c0e694    00000062     sciclient_direct_sbl.am62ax.r5f.ti-arm-clang.release.lib : sciclient.obj (.text.Sciclient_setDebugConfig)
                  43c0e6f6    00000062     drivers.am62ax.dm-r5f.ti-arm-clang.release.lib : udma_ring_common.obj (.text.Udma_ringQueueRaw)
                  43c0e758    00000062                                                    : utils.obj (.text.Utils_memcpyWord)
                  43c0e7ba    00000002     --HOLE-- [fill = 0]
                  43c0e7bc    00000060     libsysbm.a : hostclose.c.obj (.text.HOSTclose)
                  43c0e81c    00000060     sciclient_direct_sbl.am62ax.r5f.ti-arm-clang.release.lib : sciclient_direct_wrapper.obj (.text.Sciclient_direct_init)
                  43c0e87c    00000060                                                              : sciclient_pm.obj (.text.Sciclient_pmSetModuleState)
                  43c0e8dc    00000060     rm_pm_hal_sbl.am62ax.r5f.ti-arm-clang.release.lib : clk.obj (.text.clk_notify_freq)
                  43c0e93c    00000060                                                       : device_psc.obj (.text.soc_device_get_state)
                  43c0e99c    0000005e     drivers.am62ax.dm-r5f.ti-arm-clang.release.lib : bootloader.obj (.text.Bootloader_runCpu)
                  43c0e9fa    0000005e     nortos.am62ax.r5f.ti-arm-clang.release.lib : ClockP_nortos.obj (.text.ClockP_timerTickIsr)
                  43c0ea58    0000005e     sciclient_direct_sbl.am62ax.r5f.ti-arm-clang.release.lib : sciclient_procboot.obj (.text.Sciclient_procBootAuthAndStart)
                  43c0eab6    0000005c                                                              : sciclient_procboot.obj (.text.Sciclient_procBootReleaseProcessor)
                  43c0eb12    0000005c     nortos.am62ax.r5f.ti-arm-clang.release.lib : DebugP_log.obj (.text._DebugP_assert)
                  43c0eb6e    00000002     --HOLE-- [fill = 0]
                  43c0eb70    0000005c     rm_pm_hal_sbl.am62ax.r5f.ti-arm-clang.release.lib : clk_div.obj (.text.clk_div_reg_go_get_div)
                  43c0ebcc    0000005c                                                       : clk_pllctrl.obj (.text.clk_pllctrl_mux_get_parent)
                  43c0ec28    0000005c                                                       : device_clk.obj (.text.device_clk_get_hw_ready)
                  43c0ec84    0000005c                                                       : clock.obj (.text.get_freq_handler)
                  43c0ece0    0000005c                                                       : rm_ra.obj (.text.ra_check_monitor_index_range)
                  43c0ed3c    0000005c                                                       : device_psc.obj (.text.soc_device_disable)
                  43c0ed98    0000005a     drivers.am62ax.dm-r5f.ti-arm-clang.release.lib : soc.obj (.text.SOC_controlModuleLockMMR)
                  43c0edf2    0000005a                                                    : udma_ring_common.obj (.text.Udma_ringDequeueRaw)
                  43c0ee4c    00000058     sciclient_direct_sbl.am62ax.r5f.ti-arm-clang.release.lib : sciclient_procboot.obj (.text.Sciclient_procBootGetProcessorState)
                  43c0eea4    00000058     libc.a : fopen.c.obj (.text.__TI_cleanup)
                  43c0eefc    00000058     libsysbm.a : trgmsg.c.obj (.text.__TI_readmsg)
                  43c0ef54    00000058                : trgmsg.c.obj (.text.__TI_writemsg)
                  43c0efac    00000058     rm_pm_hal_sbl.am62ax.r5f.ti-arm-clang.release.lib : device_clk.obj (.text.device_clk_set_freq_change)
                  43c0f004    00000058                                                       : device_clk.obj (.text.device_clk_set_ssc)
                  43c0f05c    00000058                                                       : rm_irq.obj (.text.irq_validate_global_event)
                  43c0f0b4    00000058                                                       : itoa.obj (.text.lib_itoa)
                  43c0f10c    00000058                                                       : mmr_lock.obj (.text.mmr_unlock_all)
                  43c0f164    00000058                                                       : pll.obj (.text.pll_init)
                  43c0f1bc    00000058                                                       : rm_udmap.obj (.text.udmap_get_inst)
                  43c0f214    00000058     libc.a : autoinit.c.obj (.text:__TI_auto_init_nobinit_nopinit)
                  43c0f26c    00000056     main.obj (.text.App_runCpus)
                  43c0f2c2    00000056     ti_drivers_open_close.obj (.text.Drivers_uartOpen)
                  43c0f318    00000056     drivers.am62ax.dm-r5f.ti-arm-clang.release.lib : uart_dma.obj (.text.UART_dmaDisableChannel)
                  43c0f36e    00000054     sciclient_direct_sbl.am62ax.r5f.ti-arm-clang.release.lib : sciclient_pm.obj (.text.Sciclient_pmSetModuleRst)
                  43c0f3c2    00000054                                                              : sciclient_procboot.obj (.text.Sciclient_procBootRequestProcessor)
                  43c0f416    00000054     drivers.am62ax.dm-r5f.ti-arm-clang.release.lib : uart_dma.obj (.text.UART_dmaClose)
                  43c0f46a    00000002     --HOLE-- [fill = 0]
                  43c0f46c    00000054     rm_pm_hal_sbl.am62ax.r5f.ti-arm-clang.release.lib : clk_div.obj (.text.clk_div_init)
                  43c0f4c0    00000054     libc.a : exit.c.obj (.text.exit)
                  43c0f514    00000054            : getdevice.c.obj (.text.finddevice)
                  43c0f568    00000054     rm_pm_hal_sbl.am62ax.r5f.ti-arm-clang.release.lib : psc.obj (.text.lpsc_module_get_local_reset)
                  43c0f5bc    00000054                                                       : rm_ia.obj (.text.rm_ia_is_managed_resasg_utype)
                  43c0f610    00000054                                                       : rm_irq.obj (.text.rm_irq_oes_src_register)
                  43c0f664    00000054                                                       : device_psc.obj (.text.soc_device_enable)
                  43c0f6b8    00000052                                                       : rm_ra.obj (.text.ra_clear_rom_oes)
                  43c0f70a    00000050     drivers.am62ax.dm-r5f.ti-arm-clang.release.lib : bootloader.obj (.text.Bootloader_loadCpu)
                  43c0f75a    00000050                                                    : bootloader.obj (.text.Bootloader_rprcImageParseEntryPoint)
                  43c0f7aa    00000050     nortos.am62ax.r5f.ti-arm-clang.release.lib : ClockP_nortos.obj (.text.ClockP_addToList)
                  43c0f7fa    00000050                                                : ClockP_nortos.obj (.text.ClockP_construct)
                  43c0f84a    00000050     sciclient_direct_sbl.am62ax.r5f.ti-arm-clang.release.lib : sciclient.obj (.text.Sciclient_abiCheck)
                  43c0f89a    00000050                                                              : sciclient_firewall.obj (.text.Sciclient_firewallSetRegion)
                  43c0f8ea    00000002     --HOLE-- [fill = 0]
                  43c0f8ec    00000050                                                              : sciclient.obj (.text.Sciclient_getCurrentContext)
                  43c0f93c    00000050     rm_pm_hal_sbl.am62ax.r5f.ti-arm-clang.release.lib : clk_pll_16fft.obj (.text.clk_pll_16fft_postdiv_get_div)
                  43c0f98c    00000050                                                       : device_psc.obj (.text.soc_device_get_context_loss_count)
                  43c0f9dc    00000050                                                       : device_psc.obj (.text.soc_device_set_resets)
                  43c0fa2c    0000004e     drivers.am62ax.dm-r5f.ti-arm-clang.release.lib : bootloader.obj (.text.Bootloader_findSeq)
                  43c0fa7a    0000004e                                                    : lpddr4.obj (.text.LPDDR4_ReadReg)
                  43c0fac8    0000004e     rm_pm_hal_sbl.am62ax.r5f.ti-arm-clang.release.lib : device_psc.obj (.text.soc_device_verify_mapping)
                  43c0fb16    00000002     --HOLE-- [fill = 0]
                  43c0fb18    0000004c     sciclient_direct_sbl.am62ax.r5f.ti-arm-clang.release.lib : sciclient.obj (.text.Sciclient_deinit)
                  43c0fb64    0000004c                                                              : sciclient_boardcfg.obj (.text.Sciclient_getDefaultBoardCfgInfo)
                  43c0fbb0    0000004c                                                              : sciclient_procboot.obj (.text.Sciclient_procBootSetProcessorCfg)
                  43c0fbfc    0000004c     rm_pm_hal_sbl.am62ax.r5f.ti-arm-clang.release.lib : clk_pll_16fft.obj (.text.clk_pll_16fft_cal_option4)
                  43c0fc48    0000004c                                                       : psc.obj (.text.lpsc_module_get_reset_iso)
                  43c0fc94    0000004c                                                       : rm_ra.obj (.text.ra_get_inst)
                  43c0fce0    0000004c                                                       : device_psc.obj (.text.soc_device_get_resets)
                  43c0fd2c    0000004c                                                       : device_psc.obj (.text.soc_device_ret_disable)
                  43c0fd78    0000004c                                                       : device_psc.obj (.text.soc_device_ret_enable)
                  43c0fdc4    0000004a     drivers.am62ax.dm-r5f.ti-arm-clang.release.lib : lpddr4.obj (.text.LPDDR4_WritePhyIndepConfig)
                  43c0fe0e    0000004a                                                    : pinmux.obj (.text.Pinmux_unlockMMR)
                  43c0fe58    0000004a                                                    : soc.obj (.text.SOC_controlModuleUnlockMMR)
                  43c0fea2    00000002     --HOLE-- [fill = 0]
                  43c0fea4    00000048     rm_pm_hal_sbl.am62ax.r5f.ti-arm-clang.release.lib : clk_pll_16fft.obj (.text.clk_pll_16fft_bypass)
                  43c0feec    00000048                                                       : clk.obj (.text.clk_put)
                  43c0ff34    00000048                                                       : device_clk.obj (.text.get_dev_clk_data)
                  43c0ff7c    00000048     libsysbm.a : unlink.c.obj (.text.unlink)
                  43c0ffc4    00000046     nortos.am62ax.r5f.ti-arm-clang.release.lib : ClockP_nortos.obj (.text.ClockP_getTimeUsec)
                  43c1000a    00000046     drivers.am62ax.dm-r5f.ti-arm-clang.release.lib : lpddr4.obj (.text.LPDDR4_WritePhyConfig)
                  43c10050    00000046                                                    : lpddr4.obj (.text.LPDDR4_WriteReg)
                  43c10096    00000046                                                    : pinmux.obj (.text.Pinmux_config)
                  43c100dc    00000046                                                    : bootloader_xmodem.obj (.text._inbyte)
                  43c10122    00000046     rm_pm_hal_sbl.am62ax.r5f.ti-arm-clang.release.lib : rm_irq.obj (.text.irq_cfg_is_ia_cfg)
                  43c10168    00000046                                                       : rm_irq.obj (.text.irq_cfg_is_ir_cfg)
                  43c101ae    00000046                                                       : rm_irq.obj (.text.irq_cfg_is_oes_only)
                  43c101f4    00000044     sciclient_direct_sbl.am62ax.r5f.ti-arm-clang.release.lib : sciclient_direct_wrapper.obj (.text.Sciclient_waitForBootNotification)
                  43c10238    00000044     rm_pm_hal_sbl.am62ax.r5f.ti-arm-clang.release.lib : dmsc.obj (.text.am62a_sys_reset_handler)
                  43c1027c    00000044                                                       : clk.obj (.text.clk_get_state)
                  43c102c0    00000042     drivers.am62ax.dm-r5f.ti-arm-clang.release.lib : bootloader_mem.obj (.text.Mem_imgRead)
                  43c10302    00000042     rm_pm_hal_sbl.am62ax.r5f.ti-arm-clang.release.lib : device_clk.obj (.text.device_clk_disable)
                  43c10344    00000042                                                       : device_clk.obj (.text.device_clk_enable)
                  43c10386    00000040     nortos.am62ax.r5f.ti-arm-clang.release.lib : ClockP_nortos.obj (.text.ClockP_stop)
                  43c103c6    00000040     drivers.am62ax.dm-r5f.ti-arm-clang.release.lib : ddr.obj (.text.DDR_setFreq)
                  43c10406    00000040                                                    : lpddr4.obj (.text.LPDDR4_WriteCtlConfig)
                  43c10446    00000040     nortos.am62ax.r5f.ti-arm-clang.release.lib : SemaphoreP_nortos.obj (.text.SemaphoreP_constructBinary)
                  43c10486    00000002     --HOLE-- [fill = 0]
                  43c10488    00000040     rm_pm_hal_sbl.am62ax.r5f.ti-arm-clang.release.lib : clk_mux.obj (.text.clk_get_parent)
                  43c104c8    00000040     libc.a : memory.c.obj (.text.free_list_insert)
                  43c10508    00000040     rm_pm_hal_sbl.am62ax.r5f.ti-arm-clang.release.lib : psc.obj (.text.psc_lookup_lpsc)
                  43c10548    00000040                                                       : device_psc.obj (.text.soc_device_set_reset_iso)
                  43c10588    00000040                                                       : trace.obj (.text.trace_debug_internal)
                  43c105c8    0000003e     nortos.am62ax.r5f.ti-arm-clang.release.lib : SemaphoreP_nortos.obj (.text.SemaphoreP_constructMutex)
                  43c10606    0000003e     rm_pm_hal_sbl.am62ax.r5f.ti-arm-clang.release.lib : device_clk.obj (.text.device_clk_get_num_parents)
                  43c10644    0000003e                                                       : device_psc.obj (.text.soc_device_ret_enable_internal)
                  43c10682    0000003e                                                       : rm_udmap.obj (.text.udmap_validate_chan_type)
                  43c106c0    0000003c     drivers.am62ax.dm-r5f.ti-arm-clang.release.lib : bootloader_soc.obj (.text.Bootloader_socTranslateSectionAddr)
                  43c106fc    0000003c     nortos.am62ax.r5f.ti-arm-clang.release.lib : ClockP_nortos.obj (.text.ClockP_usleep)
                  43c10738    0000003c     rm_pm_hal_sbl.am62ax.r5f.ti-arm-clang.release.lib : device_pm.obj (.text.device_disable)
                  43c10774    0000003c                                                       : rm_ia.obj (.text.ia_get_inst)
                  43c107b0    0000003c                                                       : rm_ir.obj (.text.ir_get_inst)
                  43c107ec    0000003c                                                       : psc.obj (.text.lpsc_module_clk_get)
                  43c10828    0000003c                                                       : mmr_lock.obj (.text.mmr_unlock)
                  43c10864    0000003c                                                       : device_psc.obj (.text.soc_device_get_reset_iso)
                  43c108a0    0000003c                                                       : device_psc.obj (.text.soc_device_ret_disable_internal)
                  43c108dc    0000003a     drivers.am62ax.dm-r5f.ti-arm-clang.release.lib : bootloader.obj (.text.Bootloader_open)
                  43c10916    0000003a     nortos.am62ax.r5f.ti-arm-clang.release.lib : ClockP_nortos.obj (.text.ClockP_destruct)
                  43c10950    0000003a     ti_dpl_config.obj (.text.Dpl_init)
                  43c1098a    0000003a     drivers.am62ax.dm-r5f.ti-arm-clang.release.lib : uart_dma.obj (.text.UART_dmaOpen)
                  43c109c4    0000003a     rm_pm_hal_sbl.am62ax.r5f.ti-arm-clang.release.lib : boardcfg-user.obj (.text.boardcfg_pm_receive_and_validate)
                  43c109fe    00000002     --HOLE-- [fill = 0]
                  43c10a00    00000038     drivers.am62ax.dm-r5f.ti-arm-clang.release.lib : bootloader_soc.obj (.text.Bootloader_socCpuPowerOnReset)
                  43c10a38    00000038     nortos.am62ax.r5f.ti-arm-clang.release.lib : DebugP_nortos.obj (.text._DebugP_logZone)
                  43c10a70    00000038     rm_pm_hal_sbl.am62ax.r5f.ti-arm-clang.release.lib : clk.obj (.text.clk_drop_pwr_up_en)
                  43c10aa8    00000038                                                       : clk_pll_16fft.obj (.text.clk_pll_16fft_cal_option3)
                  43c10ae0    00000038                                                       : clk.obj (.text.clk_value_set_freq)
                  43c10b18    00000038                                                       : device_clk.obj (.text.device_clk_get_freq)
                  43c10b50    00000038                                                       : rm_ir.obj (.text.rm_ir_init)
                  43c10b88    00000038                                                       : rm_irq.obj (.text.rm_irq_is_managed_resasg_utype)
                  43c10bc0    00000036     ti_power_clock_config.obj (.text.Module_clockSetFrequency)
                  43c10bf6    00000036     drivers.am62ax.dm-r5f.ti-arm-clang.release.lib : bootloader_xmodem.obj (.text._outbyte)
                  43c10c2c    00000034                                                    : bootloader.obj (.text.Bootloader_BootImageInfo_init)
                  43c10c60    00000034                                                    : bootloader_soc.obj (.text.Bootloader_socOpenFirewalls)
                  43c10c94    00000034     nortos.am62ax.r5f.ti-arm-clang.release.lib : ClockP_nortos.obj (.text.ClockP_start)
                  43c10cc8    00000034     drivers.am62ax.dm-r5f.ti-arm-clang.release.lib : lpddr4_am6x.obj (.text.LPDDR4_EnablePIInitiator)
                  43c10cfc    00000034                                                    : lpddr4.obj (.text.LPDDR4_PollCtlIrq)
                  43c10d30    00000034     ti_drivers_config.obj (.text.System_init)
                  43c10d64    00000034     sciclient_direct_sbl.am62ax.r5f.ti-arm-clang.release.lib : uart_print.obj (.text.UART_dataWrite)
                  43c10d98    00000034     rm_pm_hal_sbl.am62ax.r5f.ti-arm-clang.release.lib : clk.obj (.text.clk_set_state)
                  43c10dcc    00000034                                                       : device.obj (.text.devices_init_rw)
                  43c10e00    00000034     libc.a : memory.c.obj (.text.free_list_remove)
                  43c10e34    00000034     libsysbm.a : lseek.c.obj (.text.lseek)
                  43c10e68    00000034     rm_pm_hal_sbl.am62ax.r5f.ti-arm-clang.release.lib : psc.obj (.text.psc_lookup)
                  43c10e9c    00000034                                                       : psc.obj (.text.psc_lookup_pd)
                  43c10ed0    00000034                                                       : rm.obj (.text.rm_init)
                  43c10f04    00000034     libsysbm.a : write.c.obj (.text.write)
                  43c10f38    00000032     drivers.am62ax.dm-r5f.ti-arm-clang.release.lib : bootloader_xmodem.obj (.text.Bootloader_xmodemReceive)
                  43c10f6a    00000032                                                    : bootloader_xmodem.obj (.text.Bootloader_xmodemTransmit)
                  43c10f9c    00000032     nortos.am62ax.r5f.ti-arm-clang.release.lib : SemaphoreP_nortos.obj (.text.SemaphoreP_post)
                  43c10fce    00000032     drivers.am62ax.dm-r5f.ti-arm-clang.release.lib : uart_v0.obj (.text.UART_getHandle)
                  43c11000    00000032     rm_pm_hal_sbl.am62ax.r5f.ti-arm-clang.release.lib : device_pm.obj (.text.device_set_retention)
                  43c11032    00000002     --HOLE-- [fill = 0]
                  43c11034    00000030                                                       : clk_fixed.obj (.text.clk_fixed_get_freq)
                  43c11064    00000030                                                       : clk.obj (.text.clk_get_freq)
                  43c11094    00000030                                                       : clk.obj (.text.clk_get_parent_freq)
                  43c110c4    00000030                                                       : trace-uart.obj (.text.trace_debug_uart)
                  43c110f4    0000002e     ti_power_clock_config.obj (.text.Module_clockDisable)
                  43c11122    0000002e     ti_power_clock_config.obj (.text.Module_clockEnable)
                  43c11150    0000002e     rm_pm_hal_sbl.am62ax.r5f.ti-arm-clang.release.lib : clk_pll_16fft.obj (.text.clk_pll_16fft_set_state)
                  43c1117e    00000002     --HOLE-- [fill = 0]
                  43c11180    0000002c     sciclient_direct_sbl.am62ax.r5f.ti-arm-clang.release.lib : sciclient_secureproxy.obj (.text.Sciclient_flush)
                  43c111ac    0000002c     rm_pm_hal_sbl.am62ax.r5f.ti-arm-clang.release.lib : boardcfg-user.obj (.text.boardcfg_memcpy_rm)
                  43c111d8    0000002c                                                       : clk_div.obj (.text.clk_get_div)
                  43c11204    0000002c                                                       : clk.obj (.text.clk_lookup)
                  43c11230    0000002c                                                       : clk_div.obj (.text.clk_lookup)
                  43c1125c    0000002c                                                       : clk_mux.obj (.text.clk_lookup)
                  43c11288    0000002c                                                       : clk_pll_16fft.obj (.text.clk_lookup)
                  43c112b4    0000002c                                                       : device_clk.obj (.text.clk_lookup)
                  43c112e0    0000002c                                                       : psc.obj (.text.clk_lookup)
                  43c1130c    0000002c     drivers.am62ax.dm-r5f.ti-arm-clang.release.lib : crc16.obj (.text.crc16_ccitt)
                  43c11338    0000002c     rm_pm_hal_sbl.am62ax.r5f.ti-arm-clang.release.lib : psc.obj (.text.device_lookup)
                  43c11364    0000002c                                                       : rm_irq.obj (.text.irq_is_evt_src)
                  43c11390    0000002c                                                       : psc.obj (.text.lpsc_module_get_state)
                  43c113bc    0000002c                                                       : fw_caps.obj (.text.query_fw_caps_handler)
                  43c113e8    0000002a                                                       : rm_ir.obj (.text.ir_clear_outp)
                  43c11412    0000002a                                                       : device_psc.obj (.text.soc_device_get_state_internal)
                  43c1143c    00000028     drivers.am62ax.dm-r5f.ti-arm-clang.release.lib : bootloader_soc.obj (.text.Bootloader_socRprcToCslCoreId)
                  43c11464    00000028     nortos.am62ax.r5f.ti-arm-clang.release.lib : ClockP_nortos.obj (.text.ClockP_sleepTicks)
                  43c1148c    00000028     drivers.am62ax.dm-r5f.ti-arm-clang.release.lib : uart_v0.obj (.text.UART_statusIsDataReady)
                  43c114b4    00000028                                                    : udma_ch.obj (.text.Udma_chGetCqRingHandle)
                  43c114dc    00000028                                                    : udma_ch.obj (.text.Udma_chGetFqRingHandle)
                  43c11504    00000028     libclang_rt.builtins.a : ashldi3.S.obj (.text.__ashldi3)
                  43c1152c    00000028                            : lshrdi3.S.obj (.text.__lshrdi3)
                  43c11554    00000028     rm_pm_hal_sbl.am62ax.r5f.ti-arm-clang.release.lib : clk.obj (.text.clk_value_get_freq)
                  43c1157c    00000028                                                       : psc.obj (.text.lpsc_module_idx)
                  43c115a4    00000028                                                       : psc.obj (.text.pd_initiate)
                  43c115cc    00000028                                                       : rm_ia.obj (.text.rm_ia_validate_vint)
                  43c115f4    00000028                                                       : rm_ir.obj (.text.rm_ir_is_managed_resasg_utype)
                  43c1161c    00000028                                                       : rm_ir.obj (.text.rm_ir_validate_output)
                  43c11644    00000028                                                       : device_psc.obj (.text.soc_device_disable_internal)
                  43c1166c    00000028                                                       : device_psc.obj (.text.soc_device_enable_internal)
                  43c11694    00000026     drivers.am62ax.dm-r5f.ti-arm-clang.release.lib : bootloader_soc.obj (.text.Bootloader_socIsMCUResetIsoEnabled)
                  43c116ba    00000026     nortos.am62ax.r5f.ti-arm-clang.release.lib : ClockP_nortos.obj (.text.ClockP_sleep)
                  43c116e0    00000026     rm_pm_hal_sbl.am62ax.r5f.ti-arm-clang.release.lib : rm_udmap.obj (.text.udmap_validate_ch_fetch_size)
                  43c11706    00000026                                                       : rm_udmap.obj (.text.udmap_validate_ch_pause_on_err)
                  43c1172c    00000026                                                       : rm_udmap.obj (.text.udmap_validate_orderid)
                  43c11752    00000026                                                       : rm_udmap.obj (.text.udmap_validate_priority)
                  43c11778    00000026                                                       : rm_udmap.obj (.text.udmap_validate_qos)
                  43c1179e    00000024     drivers.am62ax.dm-r5f.ti-arm-clang.release.lib : gtc_soc.obj (.text.GTC_setFID)
                  43c117c2    00000002     --HOLE-- [fill = 0]
                  43c117c4    00000024     sciclient_direct_sbl.am62ax.r5f.ti-arm-clang.release.lib : sciclient_secureproxy.obj (.text.Sciclient_waitThread)
                  43c117e8    00000024     libclang_rt.builtins.a : aeabi_uldivmod.S.obj (.text.__aeabi_uldivmod)
                  43c1180c    00000024     rm_pm_hal_sbl.am62ax.r5f.ti-arm-clang.release.lib : boardcfg-user.obj (.text.boardcfg_get_rm_devgrp)
                  43c11830    00000024                                                       : clk_soc_hfosc0.obj (.text.clk_soc_hfosc0_get_freq)
                  43c11854    00000024                                                       : map.obj (.text.closest)
                  43c11878    00000024                                                       : device_prepare.obj (.text.device_prepare_exclusive)
                  43c1189c    00000024                                                       : device_pm.obj (.text.device_suspend)
                  43c118c0    00000024                                                       : dmsc.obj (.text.dmsc_init)
                  43c118e4    00000024                                                       : psc.obj (.text.psc_pd_idx)
                  43c11908    00000024                                                       : rm_ia.obj (.text.rm_ia_vint_get_info)
                  43c1192c    00000024                                                       : rm_irq.obj (.text.rm_irq_init)
                  43c11950    00000024                                                       : rm_udmap.obj (.text.udmap_validate_atype)
                  43c11974    00000024                                                       : rm_udmap.obj (.text.udmap_validate_sched_priority)
                  43c11998    00000024     nortos.am62ax.r5f.ti-arm-clang.release.lib : printf.obj (.text.vprintf_)
                  43c119bc    00000022                                                : ClockP_nortos.obj (.text.ClockP_deinit)
                  43c119de    00000022     ti_pinmux_config.obj (.text.Pinmux_init)
                  43c11a00    00000022     rm_pm_hal_sbl.am62ax.r5f.ti-arm-clang.release.lib : clk.obj (.text.clk_ssc_allow)
                  43c11a22    00000022                                                       : device_clk.obj (.text.device_clk_set_input_term)
                  43c11a44    00000022                                                       : rm_ir.obj (.text.ir_get_inp)
                  43c11a66    00000022                                                       : osal_glue.obj (.text.osal_delay)
                  43c11a88    00000022                                                       : clk_div.obj (.text.pm_writel_verified)
                  43c11aaa    00000022                                                       : clk_pll_16fft.obj (.text.pm_writel_verified)
                  43c11acc    00000020     drivers.am62ax.dm-r5f.ti-arm-clang.release.lib : bootloader_soc.obj (.text.Bootloader_socGetCoreName)
                  43c11aec    00000020     nortos.am62ax.r5f.ti-arm-clang.release.lib : DebugP_log.obj (.text.DebugP_logZoneEnable)
                  43c11b0c    00000020     sciclient_direct_sbl.am62ax.r5f.ti-arm-clang.release.lib : sciclient_direct.obj (.text.Sciclient_query_fw_caps_handler)
                  43c11b2c    00000020     ti_drivers_config.obj (.text.System_deinit)
                  43c11b4c    00000020     nortos.am62ax.r5f.ti-arm-clang.release.lib : TimerP.obj (.text.TimerP_Params_init)
                  43c11b6c    00000020     rm_pm_hal_sbl.am62ax.r5f.ti-arm-clang.release.lib : clk.obj (.text.clk_ssc_block)
                  43c11b8c    00000020                                                       : clk_pll_16fft.obj (.text.pll_16fft_pllm_valid)
                  43c11bac    00000020                                                       : device_psc.obj (.text.soc_device_get_context_loss_count_internal)
                  43c11bcc    0000001e     ti_drivers_open_close.obj (.text.Drivers_close)
                  43c11bea    0000001e     rm_pm_hal_sbl.am62ax.r5f.ti-arm-clang.release.lib : resource.obj (.text.device_resource_mem)
                  43c11c08    0000001e                                                       : psc.obj (.text.psc_pd_clk_put)
                  43c11c26    0000001e                                                       : core.obj (.text.sys_reset_handler)
                  43c11c44    0000001e                                                       : map.obj (.text.u32map_get)
                  43c11c62    0000001c     drivers.am62ax.dm-r5f.ti-arm-clang.release.lib : bootloader.obj (.text.Bootloader_JumpSelfCpu)
                  43c11c7e    0000001c                                                    : bootloader_soc.obj (.text.Bootloader_socCpuGetClkDefault)
                  43c11c9a    0000001c                                                    : bootloader_soc.obj (.text.Bootloader_socIsAuthRequired)
                  43c11cb6    0000001c                                                    : bootloader_mem.obj (.text.Mem_imgOpen)
                  43c11cd2    00000002     --HOLE-- [fill = 0]
                  43c11cd4    0000001c     sciclient_direct_sbl.am62ax.r5f.ti-arm-clang.release.lib : sciclient_secureproxy.obj (.text.Sciclient_readThread32)
                  43c11cf0    0000001c     nortos.am62ax.r5f.ti-arm-clang.release.lib : boot_armv7r.obj (.text._system_pre_init)
                  43c11d0c    0000001c     rm_pm_hal_sbl.am62ax.r5f.ti-arm-clang.release.lib : rm_irq.obj (.text.irq_oes_src_lookup)
                  43c11d28    0000001c                                                       : notifier.obj (.text.notifier_call)
                  43c11d44    0000001c                                                       : psc.obj (.text.psc_read)
                  43c11d60    0000001c                                                       : sleep.obj (.text.sleep_modes_register)
                  43c11d7c    0000001c     libsysbm.a : hostrename.c.obj (.text.strlen)
                  43c11d98    0000001c     libc.a : memcpy32.S.obj (.text:TI_memcpy_small)
                  43c11db4    0000001a     drivers.am62ax.dm-r5f.ti-arm-clang.release.lib : uart_v0.obj (.text.UART_deinit)
                  43c11dce    0000001a                                                    : uart_dma.obj (.text.UART_readInterruptDma)
                  43c11de8    0000001a                                                    : uart_dma.obj (.text.UART_writeInterruptDma)
                  43c11e02    0000001a     rm_pm_hal_sbl.am62ax.r5f.ti-arm-clang.release.lib : psc.obj (.text.psc_write)
                  43c11e1c    00000018     drivers.am62ax.dm-r5f.ti-arm-clang.release.lib : lpddr4.obj (.text.LPDDR4_Init)
                  43c11e34    00000018     rm_pm_hal_sbl.am62ax.r5f.ti-arm-clang.release.lib : boardcfg-user.obj (.text.boardcfg_get_rm_resasg_size)
                  43c11e4c    00000018                                                       : clk_pll_16fft.obj (.text.clk_pll_16fft_postdiv_valid_div)
                  43c11e64    00000018                                                       : clk_soc_lfosc0.obj (.text.clk_soc_lfosc0_get_freq)
                  43c11e7c    00000018                                                       : device_clk.obj (.text.dev_get_clk)
                  43c11e94    00000018                                                       : clk_pll_16fft.obj (.text.pll_16fft_clkod_valid)
                  43c11eac    00000018     libc.a : memset32.S.obj (.text:TI_memset_small)
                  43c11ec4    00000016     rm_pm_hal_sbl.am62ax.r5f.ti-arm-clang.release.lib : clk_div.obj (.text.clk_div_get_freq)
                  43c11eda    00000016                                                       : clk_pll_16fft.obj (.text.clk_pll_16fft_check_lock)
                  43c11ef0    00000016                                                       : device_clk.obj (.text.device_clk_set_freq)
                  43c11f06    00000002     --HOLE-- [fill = 0]
                  43c11f08    00000014     sciclient_direct_sbl.am62ax.r5f.ti-arm-clang.release.lib : sciclient_secureproxy.obj (.text.Sciclient_readThreadCount)
                  43c11f1c    00000014                                                              : sciclient_secureproxy.obj (.text.Sciclient_verifyThread)
                  43c11f30    00000014     rm_pm_hal_sbl.am62ax.r5f.ti-arm-clang.release.lib : boardcfg-user.obj (.text.boardcfg_get_rm_resasg)
                  43c11f44    00000014                                                       : clk_pll_16fft.obj (.text.clk_pll_16fft_is_bypass)
                  43c11f58    00000014                                                       : device_clk.obj (.text.device_clk_get_freq_change)
                  43c11f6c    00000014                                                       : device_clk.obj (.text.device_clk_get_input_term)
                  43c11f80    00000014                                                       : device_clk.obj (.text.device_clk_get_ssc)
                  43c11f94    00000014                                                       : device_clk.obj (.text.device_clk_get_sw_gated)
                  43c11fa8    00000014                                                       : rm_core.obj (.text.rm_core_unmap_region)
                  43c11fbc    00000014     libsysbm.a : hostrename.c.obj (.text.strcpy)
                  43c11fd0    00000014     rm_pm_hal_sbl.am62ax.r5f.ti-arm-clang.release.lib : sys-reset.obj (.text.system_reset)
                  43c11fe4    00000012     drivers.am62ax.dm-r5f.ti-arm-clang.release.lib : csl_emif.obj (.text.CSL_emifClearECCInterruptStatus)
                  43c11ff6    00000012                                                    : csl_emif.obj (.text.CSL_emifEnableECCInterrupts)
                  43c12008    00000012                                                    : gtc.obj (.text.GTC_init)
                  43c1201a    00000012     nortos.am62ax.r5f.ti-arm-clang.release.lib : TimerP.obj (.text.TimerP_clearOverflowInt)
                  43c1202c    00000010     drivers.am62ax.dm-r5f.ti-arm-clang.release.lib : bootloader.obj (.text.Bootloader_close)
                  43c1203c    00000010                                                    : bootloader.obj (.text.Bootloader_isCorePresent)
                  43c1204c    00000010     nortos.am62ax.r5f.ti-arm-clang.release.lib : ClockP_nortos.obj (.text.ClockP_ticksToUsec)
                  43c1205c    00000010     drivers.am62ax.dm-r5f.ti-arm-clang.release.lib : lpddr4.obj (.text.LPDDR4_Probe)
                  43c1206c    00000010     sciclient_direct_sbl.am62ax.r5f.ti-arm-clang.release.lib : sciclient_secureproxy.obj (.text.Sciclient_threadStatusReg)
                  43c1207c    00000010                                                              : sciclient.obj (.text.Sciclient_utilByteCopy)
                  43c1208c    00000010     libclang_rt.builtins.a : aeabi_memset.S.obj (.text.__aeabi_memset)
                  43c1209c    00000010     rm_pm_hal_sbl.am62ax.r5f.ti-arm-clang.release.lib : device_clk.obj (.text.device_clk_query_freq)
                  43c120ac    00000010                                                       : device_pm.obj (.text.device_notify)
                  43c120bc    00000010                                                       : device.obj (.text.pm_devgroup_is_enabled)
                  43c120cc    00000010                                                       : device.obj (.text.pm_devgroup_set_enabled)
                  43c120dc    00000010     libc.a : fputc.c.obj (.text.putchar)
                  43c120ec    00000010     rm_pm_hal_sbl.am62ax.r5f.ti-arm-clang.release.lib : rm_core.obj (.text.rm_core_map_region)
                  43c120fc    0000000e     drivers.am62ax.dm-r5f.ti-arm-clang.release.lib : bootloader_soc.obj (.text.Bootloader_socCpuSetEntryPoint)
                  43c1210a    0000000e     ti_dpl_config.obj (.text.Dpl_deinit)
                  43c12118    0000000e     drivers.am62ax.dm-r5f.ti-arm-clang.release.lib : gtc_soc.obj (.text.GTC_enable)
                  43c12126    0000000e     ti_power_clock_config.obj (.text.PowerClock_init)
                  43c12134    0000000c     drivers.am62ax.dm-r5f.ti-arm-clang.release.lib : bootloader.obj (.text.Bootloader_Params_init)
                  43c12140    0000000c                                                    : bootloader_soc.obj (.text.Bootloader_socSelfCPUjump)
                  43c1214c    0000000c     nortos.am62ax.r5f.ti-arm-clang.release.lib : ClockP_nortos.obj (.text.ClockP_getTicks)
                  43c12158    0000000c     drivers.am62ax.dm-r5f.ti-arm-clang.release.lib : ddr_soc.obj (.text.DDR_ResetDDR_PLL)
                  43c12164    0000000c     libclang_rt.builtins.a : aeabi_memset.S.obj (.text.__aeabi_memclr)
                  43c12170    0000000c     rm_pm_hal_sbl.am62ax.r5f.ti-arm-clang.release.lib : device_prepare.obj (.text.device_prepare_nonexclusive)
                  43c1217c    0000000c     libc.a : memory.c.obj (.text.malloc)
                  43c12188    0000000c     rm_pm_hal_sbl.am62ax.r5f.ti-arm-clang.release.lib : sys-reset.obj (.text.sys_reset_handler_register)
                  43c12194    0000000c                                                       : trace.obj (.text.trace_reconfigure)
                  43c121a0    0000000c     libc.a : strcmp32.S.obj (.text)
                  43c121ac    0000000a     drivers.am62ax.dm-r5f.ti-arm-clang.release.lib : bootloader_soc.obj (.text.Bootloader_socGetSBLMem)
                  43c121b6    0000000a                                                    : bootloader_soc.obj (.text.Bootloader_socIsSmpEnable)
                  43c121c0    0000000a                                                    : csl_sec_proxy.obj (.text.CSL_secProxyGetDataAddr)
                  43c121ca    0000000a     nortos.am62ax.r5f.ti-arm-clang.release.lib : ClockP_nortos.obj (.text.ClockP_Params_init)
                  43c121d4    0000000a                                                : ClockP_nortos.obj (.text.ClockP_isActive)
                  43c121de    0000000a                                                : TimerP.obj (.text.TimerP_start)
                  43c121e8    0000000a                                                : TimerP.obj (.text.TimerP_stop)
                  43c121f2    0000000a     rm_pm_hal_sbl.am62ax.r5f.ti-arm-clang.release.lib : clk.obj (.text.clk_notify_children_freq)
                  43c121fc    0000000a                                                       : clk_div.obj (.text.readl)
                  43c12206    0000000a                                                       : clk_mux.obj (.text.readl)
                  43c12210    0000000a                                                       : clk_pll_16fft.obj (.text.readl)
                  43c1221a    0000000a                                                       : clk_pllctrl.obj (.text.readl)
                  43c12224    0000000a                                                       : dmsc.obj (.text.readl)
                  43c1222e    0000000a                                                       : mmr_lock.obj (.text.readl)
                  43c12238    00000008     drivers.am62ax.dm-r5f.ti-arm-clang.release.lib : soc.obj (.text.SOC_moduleGetClockFrequency)
                  43c12240    00000008     nortos.am62ax.r5f.ti-arm-clang.release.lib : printf.obj (.text._out_char)
                  43c12248    00000008     rm_pm_hal_sbl.am62ax.r5f.ti-arm-clang.release.lib : clk.obj (.text.clk_freq_change_allow)
                  43c12250    00000008                                                       : clk.obj (.text.clk_freq_change_block)
                  43c12258    00000008                                                       : psc.obj (.text.lpsc_module_get)
                  43c12260    00000008                                                       : psc.obj (.text.lpsc_module_get_module_reset)
                  43c12268    00000008                                                       : psc.obj (.text.lpsc_module_put)
                  43c12270    00000008                                                       : psc.obj (.text.lpsc_module_ret_get)
                  43c12278    00000008                                                       : psc.obj (.text.lpsc_module_ret_put)
                  43c12280    00000008                                                       : rm_core.obj (.text.rm_core_param_is_valid)
                  43c12288    00000008     libc.a : exit.c.obj (.text:abort)
                  43c12290    00000006     rm_pm_hal_sbl.am62ax.r5f.ti-arm-clang.release.lib : clk_pll_16fft.obj (.text.pll_16fft_bin)
                  43c12296    00000004     drivers.am62ax.dm-r5f.ti-arm-clang.release.lib : lpddr4.obj (.text.CPS_UncachedRead32)
                  43c1229a    00000004                                                    : lpddr4.obj (.text.CPS_UncachedWrite32)
                  43c1229e    00000004     nortos.am62ax.r5f.ti-arm-clang.release.lib : ClockP_nortos_r5.obj (.text.ClockP_getTimerCount)
                  43c122a2    00000004                                                : ClockP_nortos_r5.obj (.text.ClockP_timerClearOverflowInt)
                  43c122a6    00000004     ti_drivers_open_close.obj (.text.Drivers_open)
                  43c122aa    00000004     drivers.am62ax.dm-r5f.ti-arm-clang.release.lib : bootloader_mem.obj (.text.Mem_imgGetCurOffset)
                  43c122ae    00000004                                                    : bootloader_mem.obj (.text.Mem_imgSeek)
                  43c122b2    00000004     ti_power_clock_config.obj (.text.PowerClock_deinit)
                  43c122b6    00000004     nortos.am62ax.r5f.ti-arm-clang.release.lib : TimerP.obj (.text.TimerP_getCount)
                  43c122ba    00000004                                                : TimerP.obj (.text.TimerP_getReloadCount)
                  43c122be    00000004     drivers.am62ax.dm-r5f.ti-arm-clang.release.lib : udma_utils.obj (.text.Udma_defaultVirtToPhyFxn)
                  43c122c2    00000002     --HOLE-- [fill = 0]
                  43c122c4    00000004     libclang_rt.builtins.a : aeabi_memcpy.S.obj (.text.__aeabi_memcpy)
                  43c122c8    00000004     libc.a : _lock.c.obj (.text._nop)
                  43c122cc    00000004     rm_pm_hal_sbl.am62ax.r5f.ti-arm-clang.release.lib : clk_fixed.obj (.text.clk_fixed_get_state)
                  43c122d0    00000004     libclang_rt.builtins.a : aeabi_div0.c.obj (.text.__aeabi_ldiv0)
                  43c122d4    00000004     rm_pm_hal_sbl.am62ax.r5f.ti-arm-clang.release.lib : clk_dev.obj (.text.clk_from_device_notify_freq)
                  43c122d8    00000004                                                       : clk_dev.obj (.text.clk_from_device_set_state)
                  43c122dc    00000004                                                       : clk_soc_hfosc0.obj (.text.clk_soc_hfosc0_get_state)
                  43c122e0    00000004                                                       : clk_soc_lfosc0.obj (.text.clk_soc_lfosc0_get_state)
                  43c122e4    00000004                                                       : device_clk.obj (.text.device_clk_get_hw_ssc)
                  43c122e8    00000004     libc.a : fseek.c.obj (.text.fseek)
                  43c122ec    00000004     rm_pm_hal_sbl.am62ax.r5f.ti-arm-clang.release.lib : clk_pll_16fft.obj (.text.pll_16fft_vco_fitness)
                  43c122f0    00000004     ti_dpl_config.obj (.text.putchar_)
                  43c122f4    00000004     libsysbm.a : remove.c.obj (.text.remove)
                  43c122f8    00000004     rm_pm_hal_sbl.am62ax.r5f.ti-arm-clang.release.lib : rm_udmap.obj (.text.rm_udmap_flow_size_thresh_cfg)
                  43c122fc    00000004                                                       : device_psc.obj (.text.soc_device_init_complete)
                  43c12300    00000004                                                       : trace.obj (.text.trace_debug)
                  43c12304    00000008     libc.a : fputc.c.obj (.tramp.putchar.1)
                  43c1230c    00000008     nortos.am62ax.r5f.ti-arm-clang.release.lib : HwiP_armv7r_asm.obj (.tramp.HwiP_disable.1)
                  43c12314    00000008                                                : HwiP_armv7r_asm.obj (.tramp.HwiP_enable.1)
                  43c1231c    00000008                                                : HwiP_armv7r_asm.obj (.tramp.HwiP_restore.1)
                  43c12324    00000008     libclang_rt.builtins.a : aeabi_memcpy.S.obj (.tramp.__aeabi_memcpy.1)
                  43c1232c    00000014     --HOLE-- [fill = 0]

.const     0    43c12340    00001870     
                  43c12340    00001498     rm_pm_hal_sbl.am62ax.r5f.ti-arm-clang.release.lib : devices.obj (.const.devgroup.MAIN)
                  43c137d8    000003cc                                                       : devices.obj (.const.devgroup.MCU_WAKEUP)
                  43c13ba4    0000000a                                                       : devices.obj (.const.devgroup.TIFS_INTERNAL)
                  43c13bae    00000002     --HOLE-- [fill = 0]

.text.hwi 
*          0    43c13bb0    00000718     
                  43c13bb0    00000408     nortos.am62ax.r5f.ti-arm-clang.release.lib : HwiP_armv7r_vim.obj (.text.hwi)
                  43c13fb8    00000220                                                : HwiP_armv7r_handlers_nortos.obj (.text.hwi)
                  43c141d8    00000078                                                : HwiP_armv7r_handlers_nortos_asm.obj (.text.hwi)
                  43c14250    00000070                                                : HwiP_armv7r_asm.obj (.text.hwi)
                  43c142c0    00000008                                                : HwiP_armv7r_asm.obj (.tramp.HwiP_enableFIQ.1)

.text.cache 
*          0    43c142c8    00000430     
                  43c142c8    00000340     nortos.am62ax.r5f.ti-arm-clang.release.lib : CacheP_armv7r_asm.obj (.text.cache)
                  43c14608    000000d8                                                : CacheP_armv7r.obj (.text.cache)
                  43c146e0    00000008                                                : CacheP_armv7r_asm.obj (.tramp.CacheP_invL1d.1)
                  43c146e8    00000008                                                : CacheP_armv7r_asm.obj (.tramp.CacheP_enableL1p.1)
                  43c146f0    00000008                                                : HwiP_armv7r_asm.obj (.tramp.HwiP_restore.2)

.text.mpu 
*          0    43c146f8    00000248     
                  43c146f8    000001b8     nortos.am62ax.r5f.ti-arm-clang.release.lib : MpuP_armv7r.obj (.text.mpu)
                  43c148b0    00000078                                                : MpuP_armv7r_asm.obj (.text.mpu)
                  43c14928    00000008                                                : MpuP_armv7r_asm.obj (.tramp.MpuP_setRegionAsm.1)
                  43c14930    00000008                                                : HwiP_armv7r_asm.obj (.tramp.HwiP_restore.3)
                  43c14938    00000008                                                : MpuP_armv7r_asm.obj (.tramp.MpuP_isEnableAsm.1)

.text.boot 
*          0    43c14940    00000128     
                  43c14940    000000fc     nortos.am62ax.r5f.ti-arm-clang.release.lib : boot_armv7r_asm.obj (.text.boot)
                  43c14a3c    0000001e                                                : DebugP_log.obj (.text.boot)
                  43c14a5a    0000000e     ti_dpl_config.obj (.text.boot)

.data      0    43c14a68    00004288     
                  43c14a68    00000cec     ti_drivers_config.obj (.data.DDRSS_phyReg)
                  43c15754    00000c8c     rm_pm_hal_sbl.am62ax.r5f.ti-arm-clang.release.lib : boardcfg-user.obj (.data.local_rm_config)
                  43c163e0    000006cc     ti_drivers_config.obj (.data.DDRSS_ctlReg)
                  43c16aac    000006a0     ti_drivers_config.obj (.data.DDRSS_phyIndepReg)
                  43c1714c    00000676     ti_drivers_config.obj (.data.DDRSS_phyRegNum)
                  43c177c2    00000366     ti_drivers_config.obj (.data.DDRSS_ctlRegNum)
                  43c17b28    00000350     ti_drivers_config.obj (.data.DDRSS_phyIndepRegNum)
                  43c17e78    0000023c     rm_pm_hal_sbl.am62ax.r5f.ti-arm-clang.release.lib : rm_core.obj (.data.resasg_indexer)
                  43c180b4    000001a0                                                       : ra_cfg.obj (.data.ra_inst)
                  43c18254    00000168                                                       : udmap_cfg.obj (.data.udmap_inst)
                  43c183bc    000000f0     libc.a : defs.c.obj (.data._ftable)
                  43c184ac    000000e0     drivers.am62ax.dm-r5f.ti-arm-clang.release.lib : bootloader_soc.obj (.data.gAddrTranslateInfo)
                  43c1858c    000000c0                                                    : bootloader_soc.obj (.data.gCoreBootInfo)
                  43c1864c    000000b8     rm_pm_hal_sbl.am62ax.r5f.ti-arm-clang.release.lib : ia_cfg.obj (.data.ia_inst)
                  43c18704    0000009c     drivers.am62ax.dm-r5f.ti-arm-clang.release.lib : uart_v0.obj (.data.gUartDrvObj)
                  43c187a0    00000090     ti_dpl_config.obj (.data.gMpuRegionConfig)
                  43c18830    00000078     libsysbm.a : host_device.c.obj (.data._device)
                  43c188a8    00000070     rm_pm_hal_sbl.am62ax.r5f.ti-arm-clang.release.lib : ir_cfg.obj (.data.ir_inst)
                  43c18918    00000060     sciclient_direct_sbl.am62ax.r5f.ti-arm-clang.release.lib : sciclient.obj (.data..L_MergedGlobals)
                  43c18978    00000054     ti_drivers_open_close.obj (.data.gUartParams)
                  43c189cc    00000050     libsysbm.a : host_device.c.obj (.data._stream)
                  43c18a1c    00000048     sciclient_direct_sbl.am62ax.r5f.ti-arm-clang.release.lib : sciclient.obj (.data..L_MergedGlobals.1)
                  43c18a64    00000004     libc.a : defs.c.obj (.data.__TI_ft_end)
                  43c18a68    00000038     ti_drivers_config.obj (.data.gDdrParams)
                  43c18aa0    00000020     ti_drivers_config.obj (.data.gBootloaderConfig)
                  43c18ac0    00000020     ti_drivers_config.obj (.data.gBootloaderUdmaArgs)
                  43c18ae0    00000020     ti_drivers_config.obj (.data.gMemBootloaderConfig)
                  43c18b00    00000020     sciclient_direct_sbl.am62ax.r5f.ti-arm-clang.release.lib : sciclient_direct_wrapper.obj (.data.gSciclientRomSecProxyCfg)
                  43c18b20    00000020                                                              : sciclient_secureProxyCfg.obj (.data.gSciclient_secProxyCfg)
                  43c18b40    00000018     drivers.am62ax.dm-r5f.ti-arm-clang.release.lib : bootloader_mem.obj (.data.gBootloaderMemFxns)
                  43c18b58    00000018     ti_dpl_config.obj (.data.gClockConfig)
                  43c18b70    00000018     ti_pinmux_config.obj (.data.gPinMuxMainDomainCfg)
                  43c18b88    00000018     ti_power_clock_config.obj (.data.gSocModulesClockFrequency)
                  43c18ba0    00000018     rm_pm_hal_sbl.am62ax.r5f.ti-arm-clang.release.lib : udmap_cfg.obj (.data.rom_usage_DMASS0_PKTDMA_0)
                  43c18bb8    00000014     drivers.am62ax.dm-r5f.ti-arm-clang.release.lib : bootloader_soc.obj (.data.gResMemSection)
                  43c18bcc    00000010     rm_pm_hal_sbl.am62ax.r5f.ti-arm-clang.release.lib : trace.obj (.data..L_MergedGlobals)
                  43c18bdc    00000010     ti_drivers_config.obj (.data.gBootloader0Args)
                  43c18bec    00000010     ti_drivers_config.obj (.data.gMemBootloaderArgs)
                  43c18bfc    00000010     ti_power_clock_config.obj (.data.gSocModules)
                  43c18c0c    00000004     libc.a : _lock.c.obj (.data._lock)
                  43c18c10    0000000c     nortos.am62ax.r5f.ti-arm-clang.release.lib : AddrTranslateP.obj (.data.gAddrTranslateConfig)
                  43c18c1c    0000000c     ti_dpl_config.obj (.data.gMpuConfig)
                  43c18c28    0000000c     ti_drivers_config.obj (.data.gUartConfig)
                  43c18c34    00000008     libc.a : exit.c.obj (.data..L_MergedGlobals)
                  43c18c3c    00000008     rm_pm_hal_sbl.am62ax.r5f.ti-arm-clang.release.lib : device.obj (.data..L_MergedGlobals)
                  43c18c44    00000008                                                       : device_pm.obj (.data.device_notifiers)
                  43c18c4c    00000008     ti_dpl_config.obj (.data.gCacheConfig)
                  43c18c54    00000004     libc.a : _lock.c.obj (.data._unlock)
                  43c18c58    00000008     drivers.am62ax.dm-r5f.ti-arm-clang.release.lib : ddr.obj (.data.gDDRECCRegion.0)
                  43c18c60    00000008                                                    : ddr.obj (.data.gDDRECCRegion.1)
                  43c18c68    00000008                                                    : ddr.obj (.data.gDDRECCRegion.3)
                  43c18c70    00000008                                                    : ddr.obj (.data.gDDRECCRegion.4)
                  43c18c78    00000008                                                    : ddr.obj (.data.gDDRECCRegion.6)
                  43c18c80    00000008                                                    : ddr.obj (.data.gDDRECCRegion.7)
                  43c18c88    00000008     ti_pinmux_config.obj (.data.gPinMuxMcuDomainCfg)
                  43c18c90    00000008     ti_drivers_config.obj (.data.gUartAttrs)
                  43c18c98    00000008     main.obj (.data.socCpuCores)
                  43c18ca0    00000004     ti_drivers_config.obj (.data.gBootloaderConfigNum)
                  43c18ca4    00000004     nortos.am62ax.r5f.ti-arm-clang.release.lib : DebugP_log.obj (.data.gDebugLogZone)
                  43c18ca8    00000004     main.obj (.data.gEndOfFilesTransferWord)
                  43c18cac    00000004     ti_dpl_config.obj (.data.gHwiConfig)
                  43c18cb0    00000004     ti_drivers_config.obj (.data.gUartConfigNum)
                  43c18cb4    00000004     ti_drivers_config.obj (.data.gUartDmaConfigNum)
                  43c18cb8    00000004     ti_drivers_config.obj (.data.operatingMode)
                  43c18cbc    00000004     sciclient_direct_sbl.am62ax.r5f.ti-arm-clang.release.lib : sciclient_secureProxyCfg.obj (.data.pSciclient_secProxyCfg)
                  43c18cc0    00000004     rm_pm_hal_sbl.am62ax.r5f.ti-arm-clang.release.lib : ia_cfg.obj (.data.rom_usage_DMASS0_INTAGGR_0)
                  43c18cc4    00000004                                                       : ia_cfg.obj (.data.rom_usage_unmapped_events_DMASS0_INTAGGR_0)
                  43c18cc8    00000004                                                       : ia_cfg.obj (.data.rom_usage_unmapped_events_DMASS1_INTAGGR_0)
                  43c18ccc    00000004     drivers.am62ax.dm-r5f.ti-arm-clang.release.lib : bootloader_soc.obj (.data.selfcoreEntry)
                  43c18cd0    00000001                                                    : ddr.obj (.data.DDR_isr.isrCnt)
                  43c18cd1    00000001                                                    : ddr.obj (.data.gDDRInitDoneFlag)
                  43c18cd2    00000001     rm_pm_hal_sbl.am62ax.r5f.ti-arm-clang.release.lib : rm_core.obj (.data.region_mapped)
                  43c18cd3    00000001     --HOLE-- [fill = 0]
                  43c18cd4    00000001     libc.a : memory.c.obj (.data.memory_is_initialized)
                  43c18cd5    00000003     --HOLE-- [fill = 0]
                  43c18cd8    00000001     drivers.am62ax.dm-r5f.ti-arm-clang.release.lib : ddr.obj (.data.gDDRECCRegion.2)
                  43c18cd9    00000007     --HOLE-- [fill = 0]
                  43c18ce0    00000001                                                    : ddr.obj (.data.gDDRECCRegion.5)
                  43c18ce1    00000007     --HOLE-- [fill = 0]
                  43c18ce8    00000001                                                    : ddr.obj (.data.gDDRECCRegion.8)
                  43c18ce9    00000007     --HOLE-- [fill = 0]

.rodata    0    43c18cf0    00003ca8     
                  43c18cf0    00001040     rm_pm_hal_sbl.am62ax.r5f.ti-arm-clang.release.lib : clocks.obj (.rodata.soc_clock_data)
                  43c19d30    00000394                                                       : devices.obj (.rodata.soc_device_data_arr)
                  43c1a0c4    00000200     drivers.am62ax.dm-r5f.ti-arm-clang.release.lib : crc16.obj (.rodata.crc16tab)
                  43c1a2c4    000001b0     rm_pm_hal_sbl.am62ax.r5f.ti-arm-clang.release.lib : clocks.obj (.rodata.soc_pll_table)
                  43c1a474    00000132     drivers.am62ax.dm-r5f.ti-arm-clang.release.lib : lpddr4_am6x.obj (.rodata.CtlIntMap)
                  43c1a5a6    000000fe     rm_pm_hal_sbl.am62ax.r5f.ti-arm-clang.release.lib : host_idx_mapping.obj (.rodata.soc_host_indexes)
                  43c1a6a4    000000dc     drivers.am62ax.dm-r5f.ti-arm-clang.release.lib : sciclient_fmwSecureProxyMap.obj (.rodata.gSciclientMap)
                  43c1a780    00000090     rm_pm_hal_sbl.am62ax.r5f.ti-arm-clang.release.lib : rm_udmap.obj (.rodata.local_rm_udmap_ch_valid_masks)
                  43c1a810    00000078                                                       : clocks.obj (.rodata.soc_clock_freq_defaults)
                  43c1a888    0000006c                                                       : udmap_cfg.obj (.rodata.rx_ch_types_DMASS0_PKTDMA_0)
                  43c1a8f4    00000061     drivers.am62ax.dm-r5f.ti-arm-clang.release.lib : bootloader.obj (.rodata.str1.10425021178579678061)
                  43c1a955    00000001     rm_pm_hal_sbl.am62ax.r5f.ti-arm-clang.release.lib : host_idx_mapping.obj (.rodata.soc_host_indexes_sz)
                  43c1a956    00000060                                                       : ia_cfg.obj (.rodata.unmapped_events_DMASS0_INTAGGR_0)
                  43c1a9b6    00000002     sciclient_direct_sbl.am62ax.r5f.ti-arm-clang.release.lib : uart_print.obj (.rodata.str1.10699983034688139841)
                  43c1a9b8    00000050     nortos.am62ax.r5f.ti-arm-clang.release.lib : printf.obj (.rodata._ftoa.pow10)
                  43c1aa08    00000050     rm_pm_hal_sbl.am62ax.r5f.ti-arm-clang.release.lib : ra_cfg.obj (.rodata.ring_types_DMASS0_PKTDMA_0)
                  43c1aa58    00000048     drivers.am62ax.dm-r5f.ti-arm-clang.release.lib : bootloader_soc.obj (.rodata.gSOC_r5fVectors)
                  43c1aaa0    00000048     rm_pm_hal_sbl.am62ax.r5f.ti-arm-clang.release.lib : devices.obj (.rodata.soc_devgroups)
                  43c1aae8    00000048                                                       : udmap_cfg.obj (.rodata.tx_ch_types_DMASS0_PKTDMA_0)
                  43c1ab30    00000046     drivers.am62ax.dm-r5f.ti-arm-clang.release.lib : bootloader_dma.obj (.rodata.str1.18735384423475021611)
                  43c1ab76    00000040     rm_pm_hal_sbl.am62ax.r5f.ti-arm-clang.release.lib : clocks.obj (.rodata.clk_MAIN_OBSCLK0_MUX_SEL_parents)
                  43c1abb6    0000003d     nortos.am62ax.r5f.ti-arm-clang.release.lib : TimerP.obj (.rodata.str1.155618297627321921901)
                  43c1abf3    00000001     --HOLE-- [fill = 0]
                  43c1abf4    0000003c     rm_pm_hal_sbl.am62ax.r5f.ti-arm-clang.release.lib : ia_pe_conf.obj (.rodata.ia_soc_pe_init_list)
                  43c1ac30    00000037     nortos.am62ax.r5f.ti-arm-clang.release.lib : SemaphoreP_nortos.obj (.rodata.str1.77784356401422800491)
                  43c1ac67    00000001     --HOLE-- [fill = 0]
                  43c1ac68    00000036     rm_pm_hal_sbl.am62ax.r5f.ti-arm-clang.release.lib : irq_cfg.obj (.rodata.irq_global_event_types)
                  43c1ac9e    00000036     drivers.am62ax.dm-r5f.ti-arm-clang.release.lib : bootloader_soc.obj (.rodata.str1.138234439910676349661)
                  43c1acd4    00000036                                                    : ddr.obj (.rodata.str1.91401382459691330641)
                  43c1ad0a    00000035     ti_drivers_open_close.obj (.rodata.str1.135241915826326793361)
                  43c1ad3f    00000034     nortos.am62ax.r5f.ti-arm-clang.release.lib : TimerP.obj (.rodata.str1.164743418995849697991)
                  43c1ad73    00000033     drivers.am62ax.dm-r5f.ti-arm-clang.release.lib : bootloader_soc.obj (.rodata.str1.81902703075043643991)
                  43c1ada6    00000033                                                    : bootloader_soc.obj (.rodata.str1.86874262846374397861)
                  43c1add9    00000032     rm_pm_hal_sbl.am62ax.r5f.ti-arm-clang.release.lib : clk_pll_16fft.obj (.rodata.postdiv_mapping)
                  43c1ae0b    00000032     drivers.am62ax.dm-r5f.ti-arm-clang.release.lib : bootloader.obj (.rodata.str1.49453207730052505781)
                  43c1ae3d    00000003     sciclient_direct_sbl.am62ax.r5f.ti-arm-clang.release.lib : uart_print.obj (.rodata.str1.60630783811243911631)
                  43c1ae40    00000030     drivers.am62ax.dm-r5f.ti-arm-clang.release.lib : bootloader_soc.obj (.rodata..L__const.Bootloader_socOpenFirewalls.fwl_set_req)
                  43c1ae70    00000030     rm_pm_hal_sbl.am62ax.r5f.ti-arm-clang.release.lib : clk_pll_16fft.obj (.rodata.pll_16fft_hsdiv_data)
                  43c1aea0    00000030                                                       : clk_pll_16fft.obj (.rodata.pll_16fft_postdiv_data)
                  43c1aed0    00000030                                                       : clk_pll_16fft.obj (.rodata.pll_16fft_raw_data)
                  43c1af00    0000002f     drivers.am62ax.dm-r5f.ti-arm-clang.release.lib : ddr.obj (.rodata.str1.119917348814012623391)
                  43c1af2f    0000002e     nortos.am62ax.r5f.ti-arm-clang.release.lib : ClockP_nortos.obj (.rodata.str1.60552435462749564001)
                  43c1af5d    0000002d     drivers.am62ax.dm-r5f.ti-arm-clang.release.lib : bootloader_soc.obj (.rodata.str1.108571543437489060781)
                  43c1af8a    0000002d                                                    : bootloader.obj (.rodata.str1.117201396983213615621)
                  43c1afb7    0000002d                                                    : bootloader_soc.obj (.rodata.str1.139965176956480184091)
                  43c1afe4    0000002d                                                    : ddr.obj (.rodata.str1.180491127984978559571)
                  43c1b011    0000002c                                                    : ddr.obj (.rodata.str1.107206345625405992371)
                  43c1b03d    0000002c                                                    : ddr.obj (.rodata.str1.144117384330293641011)
                  43c1b069    0000002c                                                    : bootloader_soc.obj (.rodata.str1.173928885224266387911)
                  43c1b095    0000002c                                                    : bootloader_soc.obj (.rodata.str1.56546926509345598501)
                  43c1b0c1    0000002c                                                    : bootloader_soc.obj (.rodata.str1.80606638266029356381)
                  43c1b0ed    0000002b                                                    : bootloader_soc.obj (.rodata.str1.126654147490347782701)
                  43c1b118    0000002b                                                    : bootloader_soc.obj (.rodata.str1.143586569502236259261)
                  43c1b143    0000002b                                                    : bootloader.obj (.rodata.str1.27692862334559552701)
                  43c1b16e    0000002b                                                    : ddr.obj (.rodata.str1.74819152581638841131)
                  43c1b199    0000002a                                                    : ddr.obj (.rodata.str1.167743592905078154631)
                  43c1b1c3    0000002a                                                    : bootloader_soc.obj (.rodata.str1.184181119795560488901)
                  43c1b1ed    0000002a                                                    : bootloader_soc.obj (.rodata.str1.23367198832705248821)
                  43c1b217    0000002a     nortos.am62ax.r5f.ti-arm-clang.release.lib : DebugP_log.obj (.rodata.str1.8568035916953519521)
                  43c1b241    00000003     rm_pm_hal_sbl.am62ax.r5f.ti-arm-clang.release.lib : trace-uart.obj (.rodata.str1.9957289042408205471)
                  43c1b244    00000028                                                       : clocks.obj (.rodata.soc_clock_ranges)
                  43c1b26c    00000028     drivers.am62ax.dm-r5f.ti-arm-clang.release.lib : ddr.obj (.rodata.str1.12348964708742392521)
                  43c1b294    00000027     nortos.am62ax.r5f.ti-arm-clang.release.lib : ClockP_nortos_r5.obj (.rodata.str1.124546920576200709321)
                  43c1b2bb    00000001     --HOLE-- [fill = 0]
                  43c1b2bc    00000024     rm_pm_hal_sbl.am62ax.r5f.ti-arm-clang.release.lib : clk_pll_16fft.obj (.rodata.clk_drv_div_pll_16fft_hsdiv)
                  43c1b2e0    00000024                                                       : clk_pll_16fft.obj (.rodata.clk_drv_div_pll_16fft_postdiv)
                  43c1b304    00000024                                                       : clk_div.obj (.rodata.clk_drv_div_reg)
                  43c1b328    00000024                                                       : clk_div.obj (.rodata.clk_drv_div_reg_go)
                  43c1b34c    00000024     sciclient_direct_sbl.am62ax.r5f.ti-arm-clang.release.lib : sciclient_direct_wrapper.obj (.rodata.str1.1813724501135460521)
                  43c1b370    00000024     drivers.am62ax.dm-r5f.ti-arm-clang.release.lib : bootloader_soc.obj (.rodata.str1.28358124289610765961)
                  43c1b394    00000023     nortos.am62ax.r5f.ti-arm-clang.release.lib : ClockP_nortos_r5.obj (.rodata.str1.25776369892830718361)
                  43c1b3b7    00000023     sciclient_direct_sbl.am62ax.r5f.ti-arm-clang.release.lib : sciclient_direct_wrapper.obj (.rodata.str1.41336017259372466001)
                  43c1b3da    00000021     drivers.am62ax.dm-r5f.ti-arm-clang.release.lib : bootloader_soc.obj (.rodata.str1.106573294339508746881)
                  43c1b3fb    00000021                                                    : bootloader_soc.obj (.rodata.str1.110934342816748054811)
                  43c1b41c    00000021     nortos.am62ax.r5f.ti-arm-clang.release.lib : ClockP_nortos_r5.obj (.rodata.str1.167645692065458388701)
                  43c1b43d    00000021     drivers.am62ax.dm-r5f.ti-arm-clang.release.lib : bootloader_soc.obj (.rodata.str1.85915230830987770821)
                  43c1b45e    00000020     rm_pm_hal_sbl.am62ax.r5f.ti-arm-clang.release.lib : clocks.obj (.rodata.clk_MAIN_TIMERCLKn_SEL_out0_parents)
                  43c1b47e    00000020                                                       : clocks.obj (.rodata.clk_MCU_OBSCLK_MUX_SEL_parents)
                  43c1b49e    00000002                                                       : trace-uart.obj (.rodata.str1.146269357089097757161)
                  43c1b4a0    00000020                                                       : clk_mux.obj (.rodata.clk_drv_mux_reg)
                  43c1b4c0    00000020                                                       : clk_pllctrl.obj (.rodata.clk_drv_pllctrl_mux_reg_ro)
                  43c1b4e0    00000020     drivers.am62ax.dm-r5f.ti-arm-clang.release.lib : bootloader_soc.obj (.rodata.cst32)
                  43c1b500    00000020     rm_pm_hal_sbl.am62ax.r5f.ti-arm-clang.release.lib : fw_caps.obj (.rodata.soc_fw_caps)
                  43c1b520    00000020     drivers.am62ax.dm-r5f.ti-arm-clang.release.lib : bootloader.obj (.rodata.str1.163028399842724032861)
                  43c1b540    0000001f                                                    : uart_v0.obj (.rodata.str1.169394063705023262141)
                  43c1b55f    0000001f     nortos.am62ax.r5f.ti-arm-clang.release.lib : TimerP.obj (.rodata.str1.170816537386891942861)
                  43c1b57e    0000001f                                                : ClockP_nortos_r5.obj (.rodata.str1.37049961317335892191)
                  43c1b59d    0000001f                                                : SemaphoreP_nortos.obj (.rodata.str1.93106250239489445331)
                  43c1b5bc    0000001e     drivers.am62ax.dm-r5f.ti-arm-clang.release.lib : bootloader_soc.obj (.rodata.str1.153398541794508870021)
                  43c1b5da    0000001d     nortos.am62ax.r5f.ti-arm-clang.release.lib : TimerP.obj (.rodata.str1.154036655774719862071)
                  43c1b5f7    0000001c     drivers.am62ax.dm-r5f.ti-arm-clang.release.lib : bootloader_dma.obj (.rodata.str1.109180218251623323801)
                  43c1b613    0000001b     nortos.am62ax.r5f.ti-arm-clang.release.lib : ClockP_nortos.obj (.rodata.str1.25471646840808198631)
                  43c1b62e    0000001b     main.obj (.rodata.str1.97993385775340092391)
                  43c1b649    0000001a     drivers.am62ax.dm-r5f.ti-arm-clang.release.lib : bootloader_soc.obj (.rodata.str1.126263139805186929181)
                  43c1b663    0000001a     nortos.am62ax.r5f.ti-arm-clang.release.lib : TimerP.obj (.rodata.str1.160246686209138365701)
                  43c1b67d    0000001a                                                : ClockP_nortos_r5.obj (.rodata.str1.169616377957066558931)
                  43c1b697    0000001a     drivers.am62ax.dm-r5f.ti-arm-clang.release.lib : bootloader_soc.obj (.rodata.str1.51453159056472508761)
                  43c1b6b1    0000001a     main.obj (.rodata.str1.52501554851255701521)
                  43c1b6cb    00000019     drivers.am62ax.dm-r5f.ti-arm-clang.release.lib : uart_v0.obj (.rodata.str1.151873246111077803171)
                  43c1b6e4    00000019     nortos.am62ax.r5f.ti-arm-clang.release.lib : TimerP.obj (.rodata.str1.170516325075394100231)
                  43c1b6fd    00000019     drivers.am62ax.dm-r5f.ti-arm-clang.release.lib : bootloader.obj (.rodata.str1.31402796831322128521)
                  43c1b716    00000019                                                    : bootloader_soc.obj (.rodata.str1.50518261022070252191)
                  43c1b72f    00000019                                                    : bootloader_soc.obj (.rodata.str1.67805666764079761111)
                  43c1b748    00000018     rm_pm_hal_sbl.am62ax.r5f.ti-arm-clang.release.lib : clk_soc_hfosc0.obj (.rodata..L__const.clk_soc_hfosc0_get_freq.freq_table)
                  43c1b760    00000018                                                       : clk_fixed.obj (.rodata.clk_drv_fixed)
                  43c1b778    00000018                                                       : clk_dev.obj (.rodata.clk_drv_from_device)
                  43c1b790    00000018                                                       : clk_pll_16fft.obj (.rodata.clk_drv_pll_16fft)
                  43c1b7a8    00000018                                                       : clk_soc_hfosc0.obj (.rodata.clk_drv_soc_hfosc0)
                  43c1b7c0    00000018                                                       : clk_soc_lfosc0.obj (.rodata.clk_drv_soc_lfosc0)
                  43c1b7d8    00000018                                                       : ra_cfg.obj (.rodata.ring_types_DMASS0_BCDMA_0)
                  43c1b7f0    00000017     drivers.am62ax.dm-r5f.ti-arm-clang.release.lib : bootloader_dma.obj (.rodata.str1.116932125444684011371)
                  43c1b807    00000017                                                    : uart_v0.obj (.rodata.str1.118833787404970350941)
                  43c1b81e    00000017                                                    : uart_dma.obj (.rodata.str1.1333327264196212521)
                  43c1b835    00000017                                                    : bootloader.obj (.rodata.str1.155678864570694128981)
                  43c1b84c    00000017                                                    : uart_dma.obj (.rodata.str1.18451166636706412691)
                  43c1b863    00000017                                                    : bootloader.obj (.rodata.str1.89222897150519810611)
                  43c1b87a    00000016                                                    : uart_v0.obj (.rodata.str1.144905129610797327471)
                  43c1b890    00000015                                                    : uart_v0.obj (.rodata.str1.38839981320244304711)
                  43c1b8a5    00000015     nortos.am62ax.r5f.ti-arm-clang.release.lib : SemaphoreP_nortos.obj (.rodata.str1.67625122021398397081)
                  43c1b8ba    00000002     sciclient_direct_sbl.am62ax.r5f.ti-arm-clang.release.lib : uart_print.obj (.rodata.str1.82017967049224316961)
                  43c1b8bc    00000014     rm_pm_hal_sbl.am62ax.r5f.ti-arm-clang.release.lib : clocks.obj (.rodata.clk_data_pllfracf2_ssmod_16fft_main_0)
                  43c1b8d0    00000014                                                       : clocks.obj (.rodata.clk_data_pllfracf2_ssmod_16fft_main_12)
                  43c1b8e4    00000014                                                       : clocks.obj (.rodata.clk_data_pllfracf2_ssmod_16fft_main_15)
                  43c1b8f8    00000014                                                       : clocks.obj (.rodata.clk_data_pllfracf2_ssmod_16fft_main_17)
                  43c1b90c    00000014                                                       : clocks.obj (.rodata.clk_data_pllfracf2_ssmod_16fft_main_1)
                  43c1b920    00000014                                                       : clocks.obj (.rodata.clk_data_pllfracf2_ssmod_16fft_main_2)
                  43c1b934    00000014                                                       : clocks.obj (.rodata.clk_data_pllfracf2_ssmod_16fft_main_5)
                  43c1b948    00000014                                                       : clocks.obj (.rodata.clk_data_pllfracf2_ssmod_16fft_main_7)
                  43c1b95c    00000014                                                       : clocks.obj (.rodata.clk_data_pllfracf2_ssmod_16fft_main_8)
                  43c1b970    00000014                                                       : clocks.obj (.rodata.clk_data_pllfracf2_ssmod_16fft_mcu_0)
                  43c1b984    00000014     drivers.am62ax.dm-r5f.ti-arm-clang.release.lib : uart_v0.obj (.rodata.str1.28909646574304168541)
                  43c1b998    00000014     nortos.am62ax.r5f.ti-arm-clang.release.lib : TimerP.obj (.rodata.str1.88986405623045072391)
                  43c1b9ac    00000004     rm_pm_hal_sbl.am62ax.r5f.ti-arm-clang.release.lib : clocks.obj (.rodata.clk_CLKOUT0_CTRL_parents)
                  43c1b9b0    00000013     sciclient_direct_sbl.am62ax.r5f.ti-arm-clang.release.lib : sciclient_boardcfg.obj (.rodata..L__const.Sciclient_boardCfgPm.request)
                  43c1b9c3    00000005     nortos.am62ax.r5f.ti-arm-clang.release.lib : printf.obj (.rodata.str1.180255128143303278211)
                  43c1b9c8    00000013     sciclient_direct_sbl.am62ax.r5f.ti-arm-clang.release.lib : sciclient_boardcfg.obj (.rodata..L__const.Sciclient_boardCfgRm.request)
                  43c1b9db    00000001     --HOLE-- [fill = 0]
                  43c1b9dc    00000012     rm_pm_hal_sbl.am62ax.r5f.ti-arm-clang.release.lib : udmap_cfg.obj (.rodata.bc_ch_types_DMASS0_BCDMA_0)
                  43c1b9ee    00000012                                                       : udmap_cfg.obj (.rodata.rx_ch_types_DMASS0_BCDMA_0)
                  43c1ba00    00000012                                                       : udmap_cfg.obj (.rodata.rx_ch_types_DMASS1_BCDMA_0)
                  43c1ba12    00000012     drivers.am62ax.dm-r5f.ti-arm-clang.release.lib : uart_v0.obj (.rodata.str1.108170205221098943901)
                  43c1ba24    00000012                                                    : bootloader.obj (.rodata.str1.24728428003093102681)
                  43c1ba36    00000012     rm_pm_hal_sbl.am62ax.r5f.ti-arm-clang.release.lib : udmap_cfg.obj (.rodata.tx_ch_types_DMASS0_BCDMA_0)
                  43c1ba48    00000012                                                       : ia_cfg.obj (.rodata.unmapped_events_DMASS1_INTAGGR_0)
                  43c1ba5a    00000011     ti_drivers_open_close.obj (.rodata.str1.47319419042038394831)
                  43c1ba6b    00000011     nortos.am62ax.r5f.ti-arm-clang.release.lib : ClockP_nortos.obj (.rodata.str1.56392992661620616651)
                  43c1ba7c    00000011     drivers.am62ax.dm-r5f.ti-arm-clang.release.lib : uart_v0.obj (.rodata.str1.60774846955662521161)
                  43c1ba8d    00000011     sciclient_direct_sbl.am62ax.r5f.ti-arm-clang.release.lib : uart_print.obj (.rodata.str1.89996641962621242781)
                  43c1ba9e    00000002     --HOLE-- [fill = 0]
                  43c1baa0    00000010     rm_pm_hal_sbl.am62ax.r5f.ti-arm-clang.release.lib : dmsc.obj (.rodata.am62a_sleep_modes)
                  43c1bab0    00000010                                                       : clocks.obj (.rodata.clk_AUDIO_REFCLKn_out0_parents)
                  43c1bac0    00000010                                                       : clocks.obj (.rodata.clk_MAIN_CP_GEMAC_CPTS_CLK_SEL_parents)
                  43c1bad0    00000010                                                       : clocks.obj (.rodata.clk_MAIN_GTCCLK_SEL_parents)
                  43c1bae0    00000010                                                       : clocks.obj (.rodata.clk_MCU_TIMERCLKn_SEL_out0_parents)
                  43c1baf0    00000010                                                       : clocks.obj (.rodata.clk_WKUP_CLKOUT_SEL_parents)
                  43c1bb00    00000010                                                       : clocks.obj (.rodata.clk_WKUP_TIMERCLKn_SEL_out0_parents)
                  43c1bb10    00000010                                                       : clocks.obj (.rodata.clk_data_AUDIO_REFCLKn_out0)
                  43c1bb20    00000010                                                       : clocks.obj (.rodata.clk_data_AUDIO_REFCLKn_out1)
                  43c1bb30    00000010                                                       : clocks.obj (.rodata.clk_data_CLKOUT0_CTRL_out0)
                  43c1bb40    00000010                                                       : clocks.obj (.rodata.clk_data_CLK_32K_RC_SEL_out0)
                  43c1bb50    00000010                                                       : clocks.obj (.rodata.clk_data_MAIN_CP_GEMAC_CPTS_CLK_SEL_out0)
                  43c1bb60    00000010                                                       : clocks.obj (.rodata.clk_data_MAIN_DSS_DPI1_out0)
                  43c1bb70    00000010                                                       : clocks.obj (.rodata.clk_data_MAIN_EMMCSD0_IO_CLKLB_SEL_out0)
                  43c1bb80    00000010                                                       : clocks.obj (.rodata.clk_data_MAIN_EMMCSD0_REFCLK_SEL_out0)
                  43c1bb90    00000010                                                       : clocks.obj (.rodata.clk_data_MAIN_EMMCSD1_IO_CLKLB_SEL_out0)
                  43c1bba0    00000010                                                       : clocks.obj (.rodata.clk_data_MAIN_EMMCSD1_REFCLK_SEL_out0)
                  43c1bbb0    00000010                                                       : clocks.obj (.rodata.clk_data_MAIN_EMMCSD2_IO_CLKLB_SEL_out0)
                  43c1bbc0    00000010                                                       : clocks.obj (.rodata.clk_data_MAIN_EMMCSD2_REFCLK_SEL_out0)
                  43c1bbd0    00000010                                                       : clocks.obj (.rodata.clk_data_MAIN_GPMC_FCLK_SEL_out0)
                  43c1bbe0    00000010                                                       : clocks.obj (.rodata.clk_data_MAIN_GTCCLK_SEL_out0)
                  43c1bbf0    00000010                                                       : clocks.obj (.rodata.clk_data_MAIN_MCANn_CLK_SEL_out0)
                  43c1bc00    00000010                                                       : clocks.obj (.rodata.clk_data_MAIN_OBSCLK0_MUX_SEL_out0)
                  43c1bc10    00000010                                                       : clocks.obj (.rodata.clk_data_MAIN_OBSCLK_OUTMUX_SEL_out0)
                  43c1bc20    00000010                                                       : clocks.obj (.rodata.clk_data_MAIN_OBSCLK_OUTMUX_SEL_out1)
                  43c1bc30    00000010                                                       : clocks.obj (.rodata.clk_data_MAIN_OSPI_LOOPBACK_CLK_SEL_out0)
                  43c1bc40    00000010                                                       : clocks.obj (.rodata.clk_data_MAIN_OSPI_REF_CLK_SEL_out0)
                  43c1bc50    00000010                                                       : clocks.obj (.rodata.clk_data_MAIN_TIMER1_CASCADE_out0)
                  43c1bc60    00000010                                                       : clocks.obj (.rodata.clk_data_MAIN_TIMER3_CASCADE_out0)
                  43c1bc70    00000010                                                       : clocks.obj (.rodata.clk_data_MAIN_TIMER5_CASCADE_out0)
                  43c1bc80    00000010                                                       : clocks.obj (.rodata.clk_data_MAIN_TIMER7_CASCADE_out0)
                  43c1bc90    00000010                                                       : clocks.obj (.rodata.clk_data_MAIN_TIMERCLKn_SEL_out0)
                  43c1bca0    00000010                                                       : clocks.obj (.rodata.clk_data_MAIN_TIMERCLKn_SEL_out1)
                  43c1bcb0    00000010                                                       : clocks.obj (.rodata.clk_data_MAIN_TIMERCLKn_SEL_out2)
                  43c1bcc0    00000010                                                       : clocks.obj (.rodata.clk_data_MAIN_TIMERCLKn_SEL_out3)
                  43c1bcd0    00000010                                                       : clocks.obj (.rodata.clk_data_MAIN_TIMERCLKn_SEL_out4)
                  43c1bce0    00000010                                                       : clocks.obj (.rodata.clk_data_MAIN_TIMERCLKn_SEL_out5)
                  43c1bcf0    00000010                                                       : clocks.obj (.rodata.clk_data_MAIN_TIMERCLKn_SEL_out6)
                  43c1bd00    00000010                                                       : clocks.obj (.rodata.clk_data_MAIN_TIMERCLKn_SEL_out7)
                  43c1bd10    00000010                                                       : clocks.obj (.rodata.clk_data_MAIN_USB0_REFCLK_SEL_out0)
                  43c1bd20    00000010                                                       : clocks.obj (.rodata.clk_data_MAIN_USB1_REFCLK_SEL_out0)
                  43c1bd30    00000010                                                       : clocks.obj (.rodata.clk_data_MAIN_WWDTCLKn_SEL_out0)
                  43c1bd40    00000010                                                       : clocks.obj (.rodata.clk_data_MAIN_WWDTCLKn_SEL_out1)
                  43c1bd50    00000010                                                       : clocks.obj (.rodata.clk_data_MAIN_WWDTCLKn_SEL_out2)
                  43c1bd60    00000010                                                       : clocks.obj (.rodata.clk_data_MAIN_WWDTCLKn_SEL_out3)
                  43c1bd70    00000010                                                       : clocks.obj (.rodata.clk_data_MAIN_WWDTCLKn_SEL_out4)
                  43c1bd80    00000010                                                       : clocks.obj (.rodata.clk_data_MAIN_spi0_mstr_lp_clksel_out0)
                  43c1bd90    00000010                                                       : clocks.obj (.rodata.clk_data_MAIN_spi1_mstr_lp_clksel_out0)
                  43c1bda0    00000010                                                       : clocks.obj (.rodata.clk_data_MAIN_spi2_mstr_lp_clksel_out0)
                  43c1bdb0    00000010                                                       : clocks.obj (.rodata.clk_data_MAIN_usart0_fclk_sel_out0)
                  43c1bdc0    00000010                                                       : clocks.obj (.rodata.clk_data_MAIN_usart1_fclk_sel_out0)
                  43c1bdd0    00000010                                                       : clocks.obj (.rodata.clk_data_MAIN_usart2_fclk_sel_out0)
                  43c1bde0    00000010                                                       : clocks.obj (.rodata.clk_data_MAIN_usart3_fclk_sel_out0)
                  43c1bdf0    00000010                                                       : clocks.obj (.rodata.clk_data_MAIN_usart4_fclk_sel_out0)
                  43c1be00    00000010                                                       : clocks.obj (.rodata.clk_data_MAIN_usart5_fclk_sel_out0)
                  43c1be10    00000010                                                       : clocks.obj (.rodata.clk_data_MAIN_usart6_fclk_sel_out0)
                  43c1be20    00000010                                                       : clocks.obj (.rodata.clk_data_MCASPn_AHCLKSEL_AHCLKR_out0)
                  43c1be30    00000010                                                       : clocks.obj (.rodata.clk_data_MCASPn_AHCLKSEL_AHCLKR_out1)
                  43c1be40    00000010                                                       : clocks.obj (.rodata.clk_data_MCASPn_AHCLKSEL_AHCLKR_out2)
                  43c1be50    00000010                                                       : clocks.obj (.rodata.clk_data_MCASPn_AHCLKSEL_AHCLKX_out0)
                  43c1be60    00000010                                                       : clocks.obj (.rodata.clk_data_MCASPn_AHCLKSEL_AHCLKX_out1)
                  43c1be70    00000010                                                       : clocks.obj (.rodata.clk_data_MCASPn_AHCLKSEL_AHCLKX_out2)
                  43c1be80    00000010                                                       : clocks.obj (.rodata.clk_data_MCASPn_CLKSEL_AUXCLK_out0)
                  43c1be90    00000010                                                       : clocks.obj (.rodata.clk_data_MCASPn_CLKSEL_AUXCLK_out1)
                  43c1bea0    00000010                                                       : clocks.obj (.rodata.clk_data_MCASPn_CLKSEL_AUXCLK_out2)
                  43c1beb0    00000010                                                       : clocks.obj (.rodata.clk_data_MCU_GPIO0_CLKSEL_out0)
                  43c1bec0    00000010                                                       : clocks.obj (.rodata.clk_data_MCU_MCANn_CLK_SEL_out0)
                  43c1bed0    00000010                                                       : clocks.obj (.rodata.clk_data_MCU_MCANn_CLK_SEL_out1)
                  43c1bee0    00000010                                                       : clocks.obj (.rodata.clk_data_MCU_OBSCLK_MUX_SEL_out0)
                  43c1bef0    00000010                                                       : clocks.obj (.rodata.clk_data_MCU_OBSCLK_OUTMUX_SEL_out0)
                  43c1bf00    00000010                                                       : clocks.obj (.rodata.clk_data_MCU_TIMER1_CASCADE_out0)
                  43c1bf10    00000010                                                       : clocks.obj (.rodata.clk_data_MCU_TIMER3_CASCADE_out0)
                  43c1bf20    00000010                                                       : clocks.obj (.rodata.clk_data_MCU_TIMERCLKn_SEL_out0)
                  43c1bf30    00000010                                                       : clocks.obj (.rodata.clk_data_MCU_TIMERCLKn_SEL_out1)
                  43c1bf40    00000010                                                       : clocks.obj (.rodata.clk_data_MCU_TIMERCLKn_SEL_out2)
                  43c1bf50    00000010                                                       : clocks.obj (.rodata.clk_data_MCU_TIMERCLKn_SEL_out3)
                  43c1bf60    00000010                                                       : clocks.obj (.rodata.clk_data_MCU_WWDTCLK_SEL_out0)
                  43c1bf70    00000010                                                       : clocks.obj (.rodata.clk_data_MCU_spi0_mstr_lp_clksel_out0)
                  43c1bf80    00000010                                                       : clocks.obj (.rodata.clk_data_MCU_spi1_mstr_lp_clksel_out0)
                  43c1bf90    00000010                                                       : clocks.obj (.rodata.clk_data_RTC_CLK_SEL_out0)
                  43c1bfa0    00000010                                                       : clocks.obj (.rodata.clk_data_WKUP_CLKOUT_SEL_IO_out0)
                  43c1bfb0    00000010                                                       : clocks.obj (.rodata.clk_data_WKUP_CLKOUT_SEL_out0)
                  43c1bfc0    00000010                                                       : clocks.obj (.rodata.clk_data_WKUP_CLKSEL_R5FSS_out0)
                  43c1bfd0    00000010                                                       : clocks.obj (.rodata.clk_data_WKUP_CLKSEL_out0)
                  43c1bfe0    00000010                                                       : clocks.obj (.rodata.clk_data_WKUP_TIMER1_CASCADE_out0)
                  43c1bff0    00000010                                                       : clocks.obj (.rodata.clk_data_WKUP_TIMERCLKn_SEL_out0)
                  43c1c000    00000010                                                       : clocks.obj (.rodata.clk_data_WKUP_TIMERCLKn_SEL_out1)
                  43c1c010    00000010                                                       : clocks.obj (.rodata.clk_data_WKUP_WWDTCLK_SEL_out0)
                  43c1c020    00000010                                                       : clocks.obj (.rodata.clk_data_sam62_pll_ctrl_wrap_main_0_sysclkout_clk)
                  43c1c030    00000010                                                       : clocks.obj (.rodata.clk_data_sam62_pll_ctrl_wrap_mcu_0_sysclkout_clk)
                  43c1c040    00000010                                                       : psc.obj (.rodata.cst16)
                  43c1c050    00000010                                                       : ir_cfg.obj (.rodata.mmr_CMP_EVENT_INTROUTER0_INTR_ROUTER_CFG)
                  43c1c060    00000010                                                       : udmap_cfg.obj (.rodata.mmr_DMASS0_BCDMA_0_BCDMA_BCHAN)
                  43c1c070    00000010                                                       : udmap_cfg.obj (.rodata.mmr_DMASS0_BCDMA_0_BCDMA_BCHANRT)
                  43c1c080    00000010                                                       : ra_cfg.obj (.rodata.mmr_DMASS0_BCDMA_0_BCDMA_GCFG)
                  43c1c090    00000010                                                       : udmap_cfg.obj (.rodata.mmr_DMASS0_BCDMA_0_BCDMA_GCFG)
                  43c1c0a0    00000010                                                       : udmap_cfg.obj (.rodata.mmr_DMASS0_BCDMA_0_BCDMA_RCHAN)
                  43c1c0b0    00000010                                                       : udmap_cfg.obj (.rodata.mmr_DMASS0_BCDMA_0_BCDMA_RCHANRT)
                  43c1c0c0    00000010                                                       : ra_cfg.obj (.rodata.mmr_DMASS0_BCDMA_0_BCDMA_RING)
                  43c1c0d0    00000010                                                       : ra_cfg.obj (.rodata.mmr_DMASS0_BCDMA_0_BCDMA_RINGRT)
                  43c1c0e0    00000010                                                       : udmap_cfg.obj (.rodata.mmr_DMASS0_BCDMA_0_BCDMA_TCHAN)
                  43c1c0f0    00000010                                                       : udmap_cfg.obj (.rodata.mmr_DMASS0_BCDMA_0_BCDMA_TCHANRT)
                  43c1c100    00000010                                                       : ia_cfg.obj (.rodata.mmr_DMASS0_INTAGGR_0_INTAGGR_GCNTRTI)
                  43c1c110    00000010                                                       : ia_cfg.obj (.rodata.mmr_DMASS0_INTAGGR_0_INTAGGR_IMAP)
                  43c1c120    00000010                                                       : ia_cfg.obj (.rodata.mmr_DMASS0_INTAGGR_0_INTAGGR_INTR)
                  43c1c130    00000010                                                       : ia_cfg.obj (.rodata.mmr_DMASS0_INTAGGR_0_INTAGGR_UNMAP)
                  43c1c140    00000010                                                       : ra_cfg.obj (.rodata.mmr_DMASS0_PKTDMA_0_PKTDMA_GCFG)
                  43c1c150    00000010                                                       : udmap_cfg.obj (.rodata.mmr_DMASS0_PKTDMA_0_PKTDMA_GCFG)
                  43c1c160    00000010                                                       : udmap_cfg.obj (.rodata.mmr_DMASS0_PKTDMA_0_PKTDMA_RCHAN)
                  43c1c170    00000010                                                       : udmap_cfg.obj (.rodata.mmr_DMASS0_PKTDMA_0_PKTDMA_RCHANRT)
                  43c1c180    00000010                                                       : udmap_cfg.obj (.rodata.mmr_DMASS0_PKTDMA_0_PKTDMA_RFLOW)
                  43c1c190    00000010                                                       : ra_cfg.obj (.rodata.mmr_DMASS0_PKTDMA_0_PKTDMA_RING)
                  43c1c1a0    00000010                                                       : ra_cfg.obj (.rodata.mmr_DMASS0_PKTDMA_0_PKTDMA_RINGRT)
                  43c1c1b0    00000010                                                       : udmap_cfg.obj (.rodata.mmr_DMASS0_PKTDMA_0_PKTDMA_TCHAN)
                  43c1c1c0    00000010                                                       : udmap_cfg.obj (.rodata.mmr_DMASS0_PKTDMA_0_PKTDMA_TCHANRT)
                  43c1c1d0    00000010                                                       : ra_cfg.obj (.rodata.mmr_DMASS0_RINGACC_0_RINGACC_CFG)
                  43c1c1e0    00000010                                                       : ra_cfg.obj (.rodata.mmr_DMASS0_RINGACC_0_RINGACC_GCFG)
                  43c1c1f0    00000010                                                       : ra_cfg.obj (.rodata.mmr_DMASS0_RINGACC_0_RINGACC_RT)
                  43c1c200    00000010                                                       : ra_cfg.obj (.rodata.mmr_DMASS1_BCDMA_0_BCDMA_GCFG)
                  43c1c210    00000010                                                       : udmap_cfg.obj (.rodata.mmr_DMASS1_BCDMA_0_BCDMA_GCFG)
                  43c1c220    00000010                                                       : udmap_cfg.obj (.rodata.mmr_DMASS1_BCDMA_0_BCDMA_RCHAN)
                  43c1c230    00000010                                                       : udmap_cfg.obj (.rodata.mmr_DMASS1_BCDMA_0_BCDMA_RCHANRT)
                  43c1c240    00000010                                                       : ra_cfg.obj (.rodata.mmr_DMASS1_BCDMA_0_BCDMA_RING)
                  43c1c250    00000010                                                       : ra_cfg.obj (.rodata.mmr_DMASS1_BCDMA_0_BCDMA_RINGRT)
                  43c1c260    00000010                                                       : ia_cfg.obj (.rodata.mmr_DMASS1_INTAGGR_0_INTAGGR_GCNTRTI)
                  43c1c270    00000010                                                       : ia_cfg.obj (.rodata.mmr_DMASS1_INTAGGR_0_INTAGGR_IMAP)
                  43c1c280    00000010                                                       : ia_cfg.obj (.rodata.mmr_DMASS1_INTAGGR_0_INTAGGR_INTR)
                  43c1c290    00000010                                                       : ia_cfg.obj (.rodata.mmr_DMASS1_INTAGGR_0_INTAGGR_UNMAP)
                  43c1c2a0    00000010                                                       : ir_cfg.obj (.rodata.mmr_MAIN_GPIOMUX_INTROUTER0_INTR_ROUTER_CFG)
                  43c1c2b0    00000010                                                       : ir_cfg.obj (.rodata.mmr_TIMESYNC_EVENT_ROUTER0_INTR_ROUTER_CFG)
                  43c1c2c0    00000010                                                       : ir_cfg.obj (.rodata.mmr_WKUP_MCU_GPIOMUX_INTROUTER0_INTR_ROUTER_CFG)
                  43c1c2d0    00000010                                                       : psc.obj (.rodata.psc_drv)
                  43c1c2e0    0000000f     drivers.am62ax.dm-r5f.ti-arm-clang.release.lib : uart_v0.obj (.rodata.str1.175171363700779445411)
                  43c1c2ef    0000000f                                                    : uart_v0.obj (.rodata.str1.60965199449619900431)
                  43c1c2fe    0000000f                                                    : uart_dma.obj (.rodata.str1.70768452508190077591)
                  43c1c30d    0000000f                                                    : ddr.obj (.rodata.str1.73060935343465712741)
                  43c1c31c    0000000e                                                    : uart_dma.obj (.rodata.str1.23135773699787735551)
                  43c1c32a    0000000e                                                    : uart_v0.obj (.rodata.str1.62999113157451139141)
                  43c1c338    0000000d     nortos.am62ax.r5f.ti-arm-clang.release.lib : TimerP.obj (.rodata.str1.36936046049119147381)
                  43c1c345    0000000d                                                : TimerP.obj (.rodata.str1.90798414294938570131)
                  43c1c352    0000000c     rm_pm_hal_sbl.am62ax.r5f.ti-arm-clang.release.lib : rm_ra.obj (.rodata..Lswitch.table.rm_ra_validate_ring_index)
                  43c1c35e    00000002     --HOLE-- [fill = 0]
                  43c1c360    0000000c                                                       : clocks.obj (.rodata.clk_data_USART_Programmable_Clock_Divider_out0)
                  43c1c36c    0000000c                                                       : clocks.obj (.rodata.clk_data_USART_Programmable_Clock_Divider_out1)
                  43c1c378    0000000c                                                       : clocks.obj (.rodata.clk_data_USART_Programmable_Clock_Divider_out2)
                  43c1c384    0000000c                                                       : clocks.obj (.rodata.clk_data_USART_Programmable_Clock_Divider_out3)
                  43c1c390    0000000c                                                       : clocks.obj (.rodata.clk_data_USART_Programmable_Clock_Divider_out4)
                  43c1c39c    0000000c                                                       : clocks.obj (.rodata.clk_data_USART_Programmable_Clock_Divider_out5)
                  43c1c3a8    0000000c                                                       : clocks.obj (.rodata.clk_data_USART_Programmable_Clock_Divider_out6)
                  43c1c3b4    0000000c                                                       : clocks.obj (.rodata.clk_data_hsdiv0_16fft_main_12_hsdiv0)
                  43c1c3c0    0000000c                                                       : clocks.obj (.rodata.clk_data_hsdiv0_16fft_main_17_hsdiv0)
                  43c1c3cc    0000000c                                                       : clocks.obj (.rodata.clk_data_hsdiv0_16fft_main_7_hsdiv0)
                  43c1c3d8    0000000c                                                       : clocks.obj (.rodata.clk_data_hsdiv0_16fft_main_8_hsdiv0)
                  43c1c3e4    0000000c                                                       : clocks.obj (.rodata.clk_data_hsdiv2_16fft_main_15_hsdiv0)
                  43c1c3f0    0000000c                                                       : clocks.obj (.rodata.clk_data_hsdiv2_16fft_main_15_hsdiv1)
                  43c1c3fc    0000000c                                                       : clocks.obj (.rodata.clk_data_hsdiv2_16fft_main_15_hsdiv2)
                  43c1c408    0000000c                                                       : clocks.obj (.rodata.clk_data_hsdiv2_16fft_main_5_hsdiv0)
                  43c1c414    0000000c                                                       : clocks.obj (.rodata.clk_data_hsdiv2_16fft_main_5_hsdiv1)
                  43c1c420    0000000c                                                       : clocks.obj (.rodata.clk_data_hsdiv4_16fft_main_0_hsdiv0)
                  43c1c42c    0000000c                                                       : clocks.obj (.rodata.clk_data_hsdiv4_16fft_main_0_hsdiv1)
                  43c1c438    0000000c                                                       : clocks.obj (.rodata.clk_data_hsdiv4_16fft_main_0_hsdiv2)
                  43c1c444    0000000c                                                       : clocks.obj (.rodata.clk_data_hsdiv4_16fft_main_0_hsdiv3)
                  43c1c450    0000000c                                                       : clocks.obj (.rodata.clk_data_hsdiv4_16fft_main_0_hsdiv4)
                  43c1c45c    0000000c                                                       : clocks.obj (.rodata.clk_data_hsdiv4_16fft_main_1_hsdiv0)
                  43c1c468    0000000c                                                       : clocks.obj (.rodata.clk_data_hsdiv4_16fft_main_1_hsdiv1)
                  43c1c474    0000000c                                                       : clocks.obj (.rodata.clk_data_hsdiv4_16fft_main_1_hsdiv2)
                  43c1c480    0000000c                                                       : clocks.obj (.rodata.clk_data_hsdiv4_16fft_main_1_hsdiv3)
                  43c1c48c    0000000c                                                       : clocks.obj (.rodata.clk_data_hsdiv4_16fft_main_2_hsdiv0)
                  43c1c498    0000000c                                                       : clocks.obj (.rodata.clk_data_hsdiv4_16fft_main_2_hsdiv1)
                  43c1c4a4    0000000c                                                       : clocks.obj (.rodata.clk_data_hsdiv4_16fft_main_2_hsdiv2)
                  43c1c4b0    0000000c                                                       : clocks.obj (.rodata.clk_data_hsdiv4_16fft_main_2_hsdiv3)
                  43c1c4bc    0000000c                                                       : clocks.obj (.rodata.clk_data_hsdiv4_16fft_main_2_hsdiv4)
                  43c1c4c8    0000000c                                                       : clocks.obj (.rodata.clk_data_hsdiv4_16fft_mcu_0_hsdiv0)
                  43c1c4d4    0000000c                                                       : clocks.obj (.rodata.clk_data_hsdiv4_16fft_mcu_0_hsdiv1)
                  43c1c4e0    0000000c                                                       : clocks.obj (.rodata.clk_data_hsdiv4_16fft_mcu_0_hsdiv2)
                  43c1c4ec    0000000c                                                       : clocks.obj (.rodata.clk_data_hsdiv4_16fft_mcu_0_hsdiv3)
                  43c1c4f8    0000000c                                                       : clocks.obj (.rodata.clk_data_hsdiv4_16fft_mcu_0_hsdiv4)
                  43c1c504    0000000c                                                       : clocks.obj (.rodata.clk_data_main_obsclk_div_out0)
                  43c1c510    0000000c                                                       : clocks.obj (.rodata.clk_data_mcu_obsclk_div_out0)
                  43c1c51c    0000000c                                                       : clocks.obj (.rodata.clk_data_postdiv1_16fft_main_1_hsdiv5)
                  43c1c528    0000000c                                                       : clocks.obj (.rodata.clk_data_postdiv1_16fft_main_1_hsdiv6)
                  43c1c534    0000000c                                                       : clocks.obj (.rodata.clk_data_postdiv1_16fft_mcu_0_hsdiv5)
                  43c1c540    0000000c                                                       : clocks.obj (.rodata.clk_data_postdiv1_16fft_mcu_0_hsdiv6)
                  43c1c54c    0000000c                                                       : clocks.obj (.rodata.clk_data_postdiv4_16ff_main_0_hsdiv5)
                  43c1c558    0000000c                                                       : clocks.obj (.rodata.clk_data_postdiv4_16ff_main_0_hsdiv6)
                  43c1c564    0000000c                                                       : clocks.obj (.rodata.clk_data_postdiv4_16ff_main_0_hsdiv7)
                  43c1c570    0000000c                                                       : clocks.obj (.rodata.clk_data_postdiv4_16ff_main_0_hsdiv8)
                  43c1c57c    0000000c                                                       : clocks.obj (.rodata.clk_data_postdiv4_16ff_main_2_hsdiv5)
                  43c1c588    0000000c                                                       : clocks.obj (.rodata.clk_data_postdiv4_16ff_main_2_hsdiv6)
                  43c1c594    0000000c                                                       : clocks.obj (.rodata.clk_data_postdiv4_16ff_main_2_hsdiv7)
                  43c1c5a0    0000000c                                                       : clocks.obj (.rodata.clk_data_postdiv4_16ff_main_2_hsdiv8)
                  43c1c5ac    0000000c                                                       : clocks.obj (.rodata.clk_data_postdiv4_16ff_main_2_hsdiv9)
                  43c1c5b8    0000000c                                                       : clocks.obj (.rodata.clk_data_sam62_pll_ctrl_wrap_main_0_chip_div1_clk_clk)
                  43c1c5c4    0000000c                                                       : clocks.obj (.rodata.clk_data_sam62_pll_ctrl_wrap_main_0_chip_div24_clk_clk)
                  43c1c5d0    0000000c                                                       : clocks.obj (.rodata.clk_data_sam62_pll_ctrl_wrap_mcu_0_chip_div1_clk_clk)
                  43c1c5dc    0000000c                                                       : clocks.obj (.rodata.clk_data_sam62_pll_ctrl_wrap_mcu_0_chip_div24_clk_clk)
                  43c1c5e8    0000000c                                                       : rm_udmap.obj (.rodata.local_udmap_gcfg_valid_masks)
                  43c1c5f4    0000000c                                                       : init.obj (.rodata.startups)
                  43c1c600    0000000c     drivers.am62ax.dm-r5f.ti-arm-clang.release.lib : ddr.obj (.rodata.str1.183176200116343060941)
                  43c1c60c    0000000c                                                    : ddr.obj (.rodata.str1.2836876802395384281)
                  43c1c618    0000000c     nortos.am62ax.r5f.ti-arm-clang.release.lib : ClockP_nortos_r5.obj (.rodata.str1.43857604347425843821)
                  43c1c624    0000000b     drivers.am62ax.dm-r5f.ti-arm-clang.release.lib : bootloader.obj (.rodata..L__const.Bootloader_getMsgLen.boot_seq_oid)
                  43c1c62f    0000000b                                                    : uart_v0.obj (.rodata.str1.147565038505633975661)
                  43c1c63a    0000000b                                                    : uart_v0.obj (.rodata.str1.163246704051681974461)
                  43c1c645    0000000a                                                    : ddr.obj (.rodata.str1.155664461948441711321)
                  43c1c64f    0000000a                                                    : ddr.obj (.rodata.str1.17393099792175925741)
                  43c1c659    0000000a     main.obj (.rodata.str1.176328792963337784071)
                  43c1c663    0000000a     drivers.am62ax.dm-r5f.ti-arm-clang.release.lib : uart_v0.obj (.rodata.str1.181272059988846645511)
                  43c1c66d    0000000a                                                    : uart_v0.obj (.rodata.str1.27933745631974480251)
                  43c1c677    0000000a                                                    : uart_v0.obj (.rodata.str1.6394029968701164261)
                  43c1c681    00000001     --HOLE-- [fill = 0]
                  43c1c682    00000008     rm_pm_hal_sbl.am62ax.r5f.ti-arm-clang.release.lib : clocks.obj (.rodata.clk_CLK_32K_RC_SEL_parents)
                  43c1c68a    00000008                                                       : clocks.obj (.rodata.clk_MAIN_MCANn_CLK_SEL_parents)
                  43c1c692    00000008                                                       : clocks.obj (.rodata.clk_MAIN_WWDTCLKn_SEL_out0_parents)
                  43c1c69a    00000008                                                       : clocks.obj (.rodata.clk_MCASPn_AHCLKSEL_AHCLKR_out0_parents)
                  43c1c6a2    00000008                                                       : clocks.obj (.rodata.clk_MCU_GPIO0_CLKSEL_parents)
                  43c1c6aa    00000008                                                       : clocks.obj (.rodata.clk_MCU_MCANn_CLK_SEL_out0_parents)
                  43c1c6b2    00000002     --HOLE-- [fill = 0]
                  43c1c6b4    00000008                                                       : rm_ra.obj (.rodata.cst8)
                  43c1c6bc    00000008                                                       : trace.obj (.rodata.cst8)
                  43c1c6c4    00000008     sciclient_direct_sbl.am62ax.r5f.ti-arm-clang.release.lib : sciclient_direct.obj (.rodata.gcSciclientDirectExtBootX509MagicWord)
                  43c1c6cc    00000008     rm_pm_hal_sbl.am62ax.r5f.ti-arm-clang.release.lib : ra_cfg.obj (.rodata.ring_types_DMASS1_BCDMA_0)
                  43c1c6d4    00000006                                                       : irq_cfg.obj (.rodata.evt_rt_srcs)
                  43c1c6da    00000006                                                       : devices.obj (.rodata.sam62a_vpac_wrap_main_0_domains)
                  43c1c6e0    00000006     drivers.am62ax.dm-r5f.ti-arm-clang.release.lib : bootloader_dma.obj (.rodata.str1.157695265104412620621)
                  43c1c6e6    00000006     sciclient_direct_sbl.am62ax.r5f.ti-arm-clang.release.lib : uart_print.obj (.rodata.str1.25744673042473138651)
                  43c1c6ec    00000005     main.obj (.rodata.str1.61711049162809177441)
                  43c1c6f1    00000005     nortos.am62ax.r5f.ti-arm-clang.release.lib : printf.obj (.rodata.str1.62992066646743021711)
                  43c1c6f6    00000004     rm_pm_hal_sbl.am62ax.r5f.ti-arm-clang.release.lib : clocks.obj (.rodata.clk_MAIN_DSS_DPI1_parents)
                  43c1c6fa    00000004                                                       : clocks.obj (.rodata.clk_MAIN_EMMCSD0_IO_CLKLB_SEL_parents)
                  43c1c6fe    00000004                                                       : clocks.obj (.rodata.clk_MAIN_EMMCSD0_REFCLK_SEL_parents)
                  43c1c702    00000004                                                       : clocks.obj (.rodata.clk_MAIN_EMMCSD1_IO_CLKLB_SEL_parents)
                  43c1c706    00000004                                                       : clocks.obj (.rodata.clk_MAIN_EMMCSD2_IO_CLKLB_SEL_parents)
                  43c1c70a    00000004                                                       : clocks.obj (.rodata.clk_MAIN_GPMC_FCLK_SEL_parents)
                  43c1c70e    00000004                                                       : clocks.obj (.rodata.clk_MAIN_OBSCLK_OUTMUX_SEL_out0_parents)
                  43c1c712    00000004                                                       : clocks.obj (.rodata.clk_MAIN_OSPI_LOOPBACK_CLK_SEL_parents)
                  43c1c716    00000004                                                       : clocks.obj (.rodata.clk_MAIN_OSPI_REF_CLK_SEL_parents)
                  43c1c71a    00000004                                                       : clocks.obj (.rodata.clk_MAIN_TIMER1_CASCADE_parents)
                  43c1c71e    00000004                                                       : clocks.obj (.rodata.clk_MAIN_TIMER3_CASCADE_parents)
                  43c1c722    00000004                                                       : clocks.obj (.rodata.clk_MAIN_TIMER5_CASCADE_parents)
                  43c1c726    00000004                                                       : clocks.obj (.rodata.clk_MAIN_TIMER7_CASCADE_parents)
                  43c1c72a    00000004                                                       : clocks.obj (.rodata.clk_MAIN_USB0_REFCLK_SEL_parents)
                  43c1c72e    00000004                                                       : clocks.obj (.rodata.clk_MAIN_spi0_mstr_lp_clksel_parents)
                  43c1c732    00000004                                                       : clocks.obj (.rodata.clk_MAIN_spi1_mstr_lp_clksel_parents)
                  43c1c736    00000004                                                       : clocks.obj (.rodata.clk_MAIN_spi2_mstr_lp_clksel_parents)
                  43c1c73a    00000004                                                       : clocks.obj (.rodata.clk_MAIN_usart0_fclk_sel_parents)
                  43c1c73e    00000004                                                       : clocks.obj (.rodata.clk_MAIN_usart1_fclk_sel_parents)
                  43c1c742    00000004                                                       : clocks.obj (.rodata.clk_MAIN_usart2_fclk_sel_parents)
                  43c1c746    00000004                                                       : clocks.obj (.rodata.clk_MAIN_usart3_fclk_sel_parents)
                  43c1c74a    00000004                                                       : clocks.obj (.rodata.clk_MAIN_usart4_fclk_sel_parents)
                  43c1c74e    00000004                                                       : clocks.obj (.rodata.clk_MAIN_usart5_fclk_sel_parents)
                  43c1c752    00000004                                                       : clocks.obj (.rodata.clk_MAIN_usart6_fclk_sel_parents)
                  43c1c756    00000004                                                       : clocks.obj (.rodata.clk_MCASPn_CLKSEL_AUXCLK_out0_parents)
                  43c1c75a    00000004                                                       : clocks.obj (.rodata.clk_MCU_OBSCLK_OUTMUX_SEL_parents)
                  43c1c75e    00000004                                                       : clocks.obj (.rodata.clk_MCU_TIMER1_CASCADE_parents)
                  43c1c762    00000004                                                       : clocks.obj (.rodata.clk_MCU_TIMER3_CASCADE_parents)
                  43c1c766    00000004                                                       : clocks.obj (.rodata.clk_MCU_spi0_mstr_lp_clksel_parents)
                  43c1c76a    00000004                                                       : clocks.obj (.rodata.clk_MCU_spi1_mstr_lp_clksel_parents)
                  43c1c76e    00000004                                                       : clocks.obj (.rodata.clk_RTC_CLK_SEL_parents)
                  43c1c772    00000004                                                       : clocks.obj (.rodata.clk_WKUP_CLKOUT_SEL_IO_parents)
                  43c1c776    00000004                                                       : clocks.obj (.rodata.clk_WKUP_CLKSEL_R5FSS_parents)
                  43c1c77a    00000004                                                       : clocks.obj (.rodata.clk_WKUP_CLKSEL_parents)
                  43c1c77e    00000004                                                       : clocks.obj (.rodata.clk_WKUP_TIMER1_CASCADE_parents)
                  43c1c782    00000004                                                       : clocks.obj (.rodata.clk_data_K3_DPHY_RX_main_0_ppi_rx_byte_clk)
                  43c1c786    00000004                                                       : clocks.obj (.rodata.clk_data_board_0_AUDIO_EXT_REFCLK0_out)
                  43c1c78a    00000004                                                       : clocks.obj (.rodata.clk_data_board_0_AUDIO_EXT_REFCLK1_out)
                  43c1c78e    00000004                                                       : clocks.obj (.rodata.clk_data_board_0_CP_GEMAC_CPTS0_RFT_CLK_out)
                  43c1c792    00000004                                                       : clocks.obj (.rodata.clk_data_board_0_CSI0_RXCLKN_out)
                  43c1c796    00000004                                                       : clocks.obj (.rodata.clk_data_board_0_CSI0_RXCLKP_out)
                  43c1c79a    00000004                                                       : clocks.obj (.rodata.clk_data_board_0_DDR0_CK0_out)
                  43c1c79e    00000004                                                       : clocks.obj (.rodata.clk_data_board_0_EXT_REFCLK1_out)
                  43c1c7a2    00000004                                                       : clocks.obj (.rodata.clk_data_board_0_GPMC0_CLKLB_out)
                  43c1c7a6    00000004                                                       : clocks.obj (.rodata.clk_data_board_0_I2C0_SCL_out)
                  43c1c7aa    00000004                                                       : clocks.obj (.rodata.clk_data_board_0_I2C1_SCL_out)
                  43c1c7ae    00000004                                                       : clocks.obj (.rodata.clk_data_board_0_I2C2_SCL_out)
                  43c1c7b2    00000004                                                       : clocks.obj (.rodata.clk_data_board_0_I2C3_SCL_out)
                  43c1c7b6    00000004                                                       : clocks.obj (.rodata.clk_data_board_0_MCASP0_ACLKR_out)
                  43c1c7ba    00000004                                                       : clocks.obj (.rodata.clk_data_board_0_MCASP0_ACLKX_out)
                  43c1c7be    00000004                                                       : clocks.obj (.rodata.clk_data_board_0_MCASP1_ACLKR_out)
                  43c1c7c2    00000004                                                       : clocks.obj (.rodata.clk_data_board_0_MCASP1_ACLKX_out)
                  43c1c7c6    00000004                                                       : clocks.obj (.rodata.clk_data_board_0_MCASP2_ACLKR_out)
                  43c1c7ca    00000004                                                       : clocks.obj (.rodata.clk_data_board_0_MCASP2_ACLKX_out)
                  43c1c7ce    00000004                                                       : clocks.obj (.rodata.clk_data_board_0_MCU_EXT_REFCLK0_out)
                  43c1c7d2    00000004                                                       : clocks.obj (.rodata.clk_data_board_0_MCU_I2C0_SCL_out)
                  43c1c7d6    00000004                                                       : clocks.obj (.rodata.clk_data_board_0_MCU_SPI0_CLK_out)
                  43c1c7da    00000004                                                       : clocks.obj (.rodata.clk_data_board_0_MCU_SPI1_CLK_out)
                  43c1c7de    00000004                                                       : clocks.obj (.rodata.clk_data_board_0_MMC0_CLKLB_out)
                  43c1c7e2    00000004                                                       : clocks.obj (.rodata.clk_data_board_0_MMC0_CLK_out)
                  43c1c7e6    00000004                                                       : clocks.obj (.rodata.clk_data_board_0_MMC1_CLKLB_out)
                  43c1c7ea    00000004                                                       : clocks.obj (.rodata.clk_data_board_0_MMC1_CLK_out)
                  43c1c7ee    00000004                                                       : clocks.obj (.rodata.clk_data_board_0_MMC2_CLKLB_out)
                  43c1c7f2    00000004                                                       : clocks.obj (.rodata.clk_data_board_0_MMC2_CLK_out)
                  43c1c7f6    00000004                                                       : clocks.obj (.rodata.clk_data_board_0_OSPI0_DQS_out)
                  43c1c7fa    00000004                                                       : clocks.obj (.rodata.clk_data_board_0_OSPI0_LBCLKO_out)
                  43c1c7fe    00000004                                                       : clocks.obj (.rodata.clk_data_board_0_RGMII1_RXC_out)
                  43c1c802    00000004                                                       : clocks.obj (.rodata.clk_data_board_0_RGMII1_TXC_out)
                  43c1c806    00000004                                                       : clocks.obj (.rodata.clk_data_board_0_RGMII2_RXC_out)
                  43c1c80a    00000004                                                       : clocks.obj (.rodata.clk_data_board_0_RGMII2_TXC_out)
                  43c1c80e    00000004                                                       : clocks.obj (.rodata.clk_data_board_0_RMII1_REF_CLK_out)
                  43c1c812    00000004                                                       : clocks.obj (.rodata.clk_data_board_0_RMII2_REF_CLK_out)
                  43c1c816    00000004                                                       : clocks.obj (.rodata.clk_data_board_0_SPI0_CLK_out)
                  43c1c81a    00000004                                                       : clocks.obj (.rodata.clk_data_board_0_SPI1_CLK_out)
                  43c1c81e    00000004                                                       : clocks.obj (.rodata.clk_data_board_0_SPI2_CLK_out)
                  43c1c822    00000004                                                       : clocks.obj (.rodata.clk_data_board_0_TCK_out)
                  43c1c826    00000004                                                       : clocks.obj (.rodata.clk_data_board_0_VOUT0_EXTPCLKIN_out)
                  43c1c82a    00000004                                                       : clocks.obj (.rodata.clk_data_cpsw_3guss_main_0_cpts_genf0)
                  43c1c82e    00000004                                                       : clocks.obj (.rodata.clk_data_cpsw_3guss_main_0_cpts_genf1)
                  43c1c832    00000004                                                       : clocks.obj (.rodata.clk_data_cpsw_3guss_main_0_mdio_mdclk_o)
                  43c1c836    00000004                                                       : clocks.obj (.rodata.clk_data_cpsw_3guss_main_0_rgmii1_txc_o)
                  43c1c83a    00000004                                                       : clocks.obj (.rodata.clk_data_cpsw_3guss_main_0_rgmii2_txc_o)
                  43c1c83e    00000004                                                       : clocks.obj (.rodata.clk_data_debugss_k3_wrap_cv0_main_0_cstpiu_traceclk)
                  43c1c842    00000004                                                       : clocks.obj (.rodata.clk_data_dmtimer_dmc1ms_main_0_timer_pwm)
                  43c1c846    00000004                                                       : clocks.obj (.rodata.clk_data_dmtimer_dmc1ms_main_1_timer_pwm)
                  43c1c84a    00000004                                                       : clocks.obj (.rodata.clk_data_dmtimer_dmc1ms_main_2_timer_pwm)
                  43c1c84e    00000004                                                       : clocks.obj (.rodata.clk_data_dmtimer_dmc1ms_main_3_timer_pwm)
                  43c1c852    00000004                                                       : clocks.obj (.rodata.clk_data_dmtimer_dmc1ms_main_4_timer_pwm)
                  43c1c856    00000004                                                       : clocks.obj (.rodata.clk_data_dmtimer_dmc1ms_main_5_timer_pwm)
                  43c1c85a    00000004                                                       : clocks.obj (.rodata.clk_data_dmtimer_dmc1ms_main_6_timer_pwm)
                  43c1c85e    00000004                                                       : clocks.obj (.rodata.clk_data_dmtimer_dmc1ms_main_7_timer_pwm)
                  43c1c862    00000004                                                       : clocks.obj (.rodata.clk_data_dmtimer_dmc1ms_mcu_0_timer_pwm)
                  43c1c866    00000004                                                       : clocks.obj (.rodata.clk_data_dmtimer_dmc1ms_mcu_1_timer_pwm)
                  43c1c86a    00000004                                                       : clocks.obj (.rodata.clk_data_dmtimer_dmc1ms_mcu_2_timer_pwm)
                  43c1c86e    00000004                                                       : clocks.obj (.rodata.clk_data_dmtimer_dmc1ms_mcu_3_timer_pwm)
                  43c1c872    00000004                                                       : clocks.obj (.rodata.clk_data_dmtimer_dmc1ms_wkup_0_timer_pwm)
                  43c1c876    00000004                                                       : clocks.obj (.rodata.clk_data_emmcsd4ss_main_0_emmcsdss_io_clk_o)
                  43c1c87a    00000004                                                       : clocks.obj (.rodata.clk_data_emmcsd4ss_main_1_emmcsdss_io_clk_o)
                  43c1c87e    00000004                                                       : clocks.obj (.rodata.clk_data_emmcsd8ss_main_0_emmcsdss_io_clk_o)
                  43c1c882    00000004                                                       : clocks.obj (.rodata.clk_data_fss_ul_main_0_ospi_0_ospi_oclk_clk)
                  43c1c886    00000004                                                       : clocks.obj (.rodata.clk_data_gpmc_main_0_po_gpmc_dev_clk)
                  43c1c88a    00000004                                                       : clocks.obj (.rodata.clk_data_k3_dss_ul_main_0_dpi_1_out_clk)
                  43c1c88e    00000004                                                       : clocks.obj (.rodata.clk_data_mcasp_main_0_mcasp_aclkr_pout)
                  43c1c892    00000004                                                       : clocks.obj (.rodata.clk_data_mcasp_main_0_mcasp_aclkx_pout)
                  43c1c896    00000004                                                       : clocks.obj (.rodata.clk_data_mcasp_main_0_mcasp_afsr_pout)
                  43c1c89a    00000004                                                       : clocks.obj (.rodata.clk_data_mcasp_main_0_mcasp_afsx_pout)
                  43c1c89e    00000004                                                       : clocks.obj (.rodata.clk_data_mcasp_main_0_mcasp_ahclkr_pout)
                  43c1c8a2    00000004                                                       : clocks.obj (.rodata.clk_data_mcasp_main_0_mcasp_ahclkx_pout)
                  43c1c8a6    00000004                                                       : clocks.obj (.rodata.clk_data_mcasp_main_1_mcasp_aclkr_pout)
                  43c1c8aa    00000004                                                       : clocks.obj (.rodata.clk_data_mcasp_main_1_mcasp_aclkx_pout)
                  43c1c8ae    00000004                                                       : clocks.obj (.rodata.clk_data_mcasp_main_1_mcasp_afsr_pout)
                  43c1c8b2    00000004                                                       : clocks.obj (.rodata.clk_data_mcasp_main_1_mcasp_afsx_pout)
                  43c1c8b6    00000004                                                       : clocks.obj (.rodata.clk_data_mcasp_main_1_mcasp_ahclkr_pout)
                  43c1c8ba    00000004                                                       : clocks.obj (.rodata.clk_data_mcasp_main_1_mcasp_ahclkx_pout)
                  43c1c8be    00000004                                                       : clocks.obj (.rodata.clk_data_mcasp_main_2_mcasp_aclkr_pout)
                  43c1c8c2    00000004                                                       : clocks.obj (.rodata.clk_data_mcasp_main_2_mcasp_aclkx_pout)
                  43c1c8c6    00000004                                                       : clocks.obj (.rodata.clk_data_mcasp_main_2_mcasp_afsr_pout)
                  43c1c8ca    00000004                                                       : clocks.obj (.rodata.clk_data_mcasp_main_2_mcasp_afsx_pout)
                  43c1c8ce    00000004                                                       : clocks.obj (.rodata.clk_data_mcasp_main_2_mcasp_ahclkr_pout)
                  43c1c8d2    00000004                                                       : clocks.obj (.rodata.clk_data_mcasp_main_2_mcasp_ahclkx_pout)
                  43c1c8d6    00000004                                                       : clocks.obj (.rodata.clk_data_mshsi2c_main_0_porscl)
                  43c1c8da    00000004                                                       : clocks.obj (.rodata.clk_data_mshsi2c_main_1_porscl)
                  43c1c8de    00000004                                                       : clocks.obj (.rodata.clk_data_mshsi2c_main_2_porscl)
                  43c1c8e2    00000004                                                       : clocks.obj (.rodata.clk_data_mshsi2c_main_3_porscl)
                  43c1c8e6    00000004                                                       : clocks.obj (.rodata.clk_data_mshsi2c_mcu_0_porscl)
                  43c1c8ea    00000004                                                       : clocks.obj (.rodata.clk_data_mshsi2c_wkup_0_porscl)
                  43c1c8ee    00000004                                                       : clocks.obj (.rodata.clk_data_pllfracf2_ssmod_16fft_main_0_postdiv)
                  43c1c8f2    00000004                                                       : clocks.obj (.rodata.clk_data_pllfracf2_ssmod_16fft_main_1_postdiv)
                  43c1c8f6    00000004                                                       : clocks.obj (.rodata.clk_data_pllfracf2_ssmod_16fft_main_2_postdiv)
                  43c1c8fa    00000004                                                       : clocks.obj (.rodata.clk_data_pllfracf2_ssmod_16fft_mcu_0_postdiv)
                  43c1c8fe    00000004                                                       : clocks.obj (.rodata.clk_data_sam62a_a53_512kb_wrap_main_0_arm_corepack_0_a53_divh_clk4_obsclk_out_clk)
                  43c1c902    00000004                                                       : clocks.obj (.rodata.clk_data_sam62a_c7xv_wrap_main_0_clock_control_0_c7xv_divh_clk4_obsclk_out_clk)
                  43c1c906    00000004                                                       : clocks.obj (.rodata.clk_data_sam62a_c7xv_wrap_main_0_clock_control_0_divh_clk2_soc_gclk)
                  43c1c90a    00000004                                                       : clocks.obj (.rodata.clk_data_sam62a_c7xv_wrap_main_0_clock_control_0_divh_clk4_gclk)
                  43c1c90e    00000004                                                       : clocks.obj (.rodata.clk_data_sam62a_c7xv_wrap_main_0_clock_control_0_divh_clk4_soc_gclk)
                  43c1c912    00000004                                                       : clocks.obj (.rodata.clk_data_sam62a_c7xv_wrap_main_0_clock_control_0_divp_clk1_gclk)
                  43c1c916    00000004                                                       : clocks.obj (.rodata.clk_data_sam62a_c7xv_wrap_main_0_clock_control_0_divp_clk1_soc_gclk)
                  43c1c91a    00000004                                                       : clocks.obj (.rodata.clk_data_sam62a_ddr_wrap_main_0_ddr_pll_divh_clk4_obsclk_out_clk)
                  43c1c91e    00000004                                                       : clocks.obj (.rodata.clk_data_spi_main_0_io_clkspio_clk)
                  43c1c922    00000004                                                       : clocks.obj (.rodata.clk_data_spi_main_1_io_clkspio_clk)
                  43c1c926    00000004                                                       : clocks.obj (.rodata.clk_data_spi_main_2_io_clkspio_clk)
                  43c1c92a    00000004                                                       : clocks.obj (.rodata.clk_data_spi_mcu_0_io_clkspio_clk)
                  43c1c92e    00000004                                                       : clocks.obj (.rodata.clk_data_spi_mcu_1_io_clkspio_clk)
                  43c1c932    00000004                                                       : clocks.obj (.rodata.clk_sam62_pll_ctrl_wrap_main_0_parents)
                  43c1c936    00000004                                                       : clocks.obj (.rodata.clk_sam62_pll_ctrl_wrap_mcu_0_parents)
                  43c1c93a    00000004                                                       : resource.obj (.rodata.cst4)
                  43c1c93e    00000002     --HOLE-- [fill = 0]
                  43c1c940    00000004                                                       : irq_cfg.obj (.rodata.evt_rt_srcs_count)
                  43c1c944    00000004     nortos.am62ax.r5f.ti-arm-clang.release.lib : CacheP_armv7r.obj (.rodata.gCacheL1dCacheLineSize)
                  43c1c948    00000004                                                : CacheP_armv7r.obj (.rodata.gCacheL1pCacheLineSize)
                  43c1c94c    00000004     rm_pm_hal_sbl.am62ax.r5f.ti-arm-clang.release.lib : clocks.obj (.rodata.pllfracf2_ssmod_16fft_main_0_entries)
                  43c1c950    00000004                                                       : clocks.obj (.rodata.pllfracf2_ssmod_16fft_main_12_entries)
                  43c1c954    00000004                                                       : clocks.obj (.rodata.pllfracf2_ssmod_16fft_main_15_entries)
                  43c1c958    00000004                                                       : clocks.obj (.rodata.pllfracf2_ssmod_16fft_main_17_entries)
                  43c1c95c    00000004                                                       : clocks.obj (.rodata.pllfracf2_ssmod_16fft_main_1_entries)
                  43c1c960    00000004                                                       : clocks.obj (.rodata.pllfracf2_ssmod_16fft_main_5_entries)
                  43c1c964    00000004                                                       : clocks.obj (.rodata.pllfracf2_ssmod_16fft_main_7_entries)
                  43c1c968    00000004                                                       : clocks.obj (.rodata.pllfracf2_ssmod_16fft_main_8_entries)
                  43c1c96c    00000004                                                       : clocks.obj (.rodata.pllfracf2_ssmod_16fft_mcu_0_entries)
                  43c1c970    00000004                                                       : ra_cfg.obj (.rodata.ra_inst_count)
                  43c1c974    00000004                                                       : clocks.obj (.rodata.soc_clock_count)
                  43c1c978    00000004                                                       : devices.obj (.rodata.soc_devgroup_count)
                  43c1c97c    00000004                                                       : devices.obj (.rodata.soc_device_count)
                  43c1c980    00000004                                                       : devices.obj (.rodata.soc_psc_multiple_domains)
                  43c1c984    00000004                                                       : dmsc.obj (.rodata.str1.30012492119171543001)
                  43c1c988    00000004     nortos.am62ax.r5f.ti-arm-clang.release.lib : printf.obj (.rodata.str1.83442741595977738081)
                  43c1c98c    00000004                                                : printf.obj (.rodata.str1.92767893489218153371)
                  43c1c990    00000004     rm_pm_hal_sbl.am62ax.r5f.ti-arm-clang.release.lib : udmap_cfg.obj (.rodata.udmap_inst_count)
                  43c1c994    00000004     --HOLE-- [fill = 0]

.boardcfg_data 
*          0    43c1ca00    00000f80     
                  43c1ca00    00000f02     sciclient_direct_sbl.am62ax.r5f.ti-arm-clang.release.lib : sciclient_boardcfg.obj (.boardcfg_data)
                  43c1d902    0000007e     --HOLE-- [fill = 0]

.sysmem    0    43c1d980    00008000     UNINITIALIZED
                  43c1d980    00000010     libc.a : memory.c.obj (.sysmem)
                  43c1d990    00007ff0     --HOLE--

.stack     0    43c25980    00004000     UNINITIALIZED
                  43c25980    00000004     nortos.am62ax.r5f.ti-arm-clang.release.lib : boot_armv7r_asm.obj (.stack)
                  43c25984    00003ffc     --HOLE--

.bss       0    43c29980    00002bc8     UNINITIALIZED
                  43c29980    00001008     (.common:gHwiCtrl)
                  43c2a988    00000680     rm_pm_hal_sbl.am62ax.r5f.ti-arm-clang.release.lib : devices.obj (.bss.devgroup.MAIN)
                  43c2b008    00000428     sciclient_direct_sbl.am62ax.r5f.ti-arm-clang.release.lib : sciclient.obj (.bss.gSciclient_semObjects)
                  43c2b430    00000410     (.common:soc_clocks)
                  43c2b840    00000394     (.common:soc_devices)
                  43c2bbd4    00000280     ti_drivers_config.obj (.bss.gUartObjects)
                  43c2be54    000001c8     (.common:soc_clock_values)
                  43c2c01c    0000013c     rm_pm_hal_sbl.am62ax.r5f.ti-arm-clang.release.lib : devices.obj (.bss.devgroup.MCU_WAKEUP)
                  43c2c158    00000120     libsysbm.a : trgmsg.c.obj (.bss:_CIOBUF_)
                  43c2c278    000000b8     rm_pm_hal_sbl.am62ax.r5f.ti-arm-clang.release.lib : ia_cfg.obj (.bss.vint_usage_count_DMASS0_INTAGGR_0)
                  43c2c330    000000a0     libc.a : defs.c.obj (.bss.__TI_tmpnams)
                  43c2c3d0    000000a0     (.common:bootCpuInfo)
                  43c2c470    00000040     (.common:_freertosresetvectors)
                  43c2c4b0    00000038     (.common:gClockCtrl)
                  43c2c4e8    00000014     drivers.am62ax.dm-r5f.ti-arm-clang.release.lib : ddr.obj (.bss.gLpddrPd)
                  43c2c4fc    00000010                                                    : ddr.obj (.bss.gLpddrCfg)
                  43c2c50c    00000008     libsysbm.a : hostopen.c.obj (.bss.parmbuf)
                  43c2c514    00000008     rm_pm_hal_sbl.am62ax.r5f.ti-arm-clang.release.lib : ia_cfg.obj (.bss.vint_usage_count_DMASS1_INTAGGR_0)
                  43c2c51c    00000004     drivers.am62ax.dm-r5f.ti-arm-clang.release.lib : bootloader_xmodem.obj (.bss.gUartHandle)
                  43c2c520    00000004     nortos.am62ax.r5f.ti-arm-clang.release.lib : HwiP_armv7r_vim.obj (.bss.gdummy)
                  43c2c524    00000004     rm_pm_hal_sbl.am62ax.r5f.ti-arm-clang.release.lib : rm_irq.obj (.bss.oes_src_map)
                  43c2c528    00000004                                                       : psc.obj (.bss.psc_devs)
                  43c2c52c    00000004                                                       : sleep.obj (.bss.sleep_modes)
                  43c2c530    00000004     libc.a : memory.c.obj (.bss.sys_free)
                  43c2c534    00000004     rm_pm_hal_sbl.am62ax.r5f.ti-arm-clang.release.lib : sys-reset.obj (.bss.sys_reset_handler)
                  43c2c538    00000004     (.common:bootHandle)
                  43c2c53c    00000004     (.common:gUartHandle)
                  43c2c540    00000001                                                       : dmsc.obj (.bss.am62a_sleep_block)
                  43c2c541    00000001                                                       : devices.obj (.bss.devgroup.TIFS_INTERNAL)
                  43c2c542    00000006     --HOLE--

.irqstack 
*          0    43c2c548    00001000     UNINITIALIZED
                  43c2c548    00001000     --HOLE--

.fiqstack 
*          0    43c2d548    00000100     UNINITIALIZED
                  43c2d548    00000100     --HOLE--

.svcstack 
*          0    43c2d648    00000100     UNINITIALIZED
                  43c2d648    00000100     --HOLE--

.abortstack 
*          0    43c2d748    00000100     UNINITIALIZED
                  43c2d748    00000100     --HOLE--

.undefinedstack 
*          0    43c2d848    00000100     UNINITIALIZED
                  43c2d848    00000100     --HOLE--

.bss.filebuf 
*          0    84000000    40000000     NOLOAD SECTION
                  84000000    40000000     main.obj (.bss.filebuf)

__llvm_prf_cnts 
*          0    43c00100    00000000     UNINITIALIZED

__llvm_prf_bits 
*          0    43c00100    00000000     UNINITIALIZED

MODULE SUMMARY

       Module                                   code    ro data   rw data   
       ------                                   ----    -------   -------   
    obj/release/
       main.obj                                 866     68        1073742000
       ti_drivers_config.obj                    84      0         10976     
       ti_dpl_config.obj                        90      0         192       
       ti_drivers_open_close.obj                120     70        88        
       ti_power_clock_config.obj                164     0         40        
       ti_pinmux_config.obj                     34      0         32        
       ti_board_config.obj                      4       0         0         
       ti_board_open_close.obj                  4       0         0         
    +--+----------------------------------------+-------+---------+------------+
       Total:                                   1366    138       1073753328
                                                                            
    /home/epswbld4/ti/ccs1250/ccs/tools/compiler/ti-cgt-armllvm_3.2.0.LTS/lib/armv7r-ti-none-eabihf/c/libc.a
       memory.c.obj                             1160    0         5         
       strcmp32.S.obj                           924     0         0         
       defs.c.obj                               0       0         404       
       setvbuf.c.obj                            324     0         0         
       getdevice.c.obj                          284     0         0         
       fputc.c.obj                              268     0         0         
       fseek.c.obj                              184     0         0         
       fclose.c.obj                             180     0         0         
       _io_perm.c.obj                           156     0         0         
       fflush.c.obj                             140     0         0         
       exit.c.obj                               92      0         8         
       autoinit.c.obj                           88      0         0         
       fopen.c.obj                              88      0         0         
       memcpy32.S.obj                           28      0         0         
       memset32.S.obj                           24      0         0         
       _lock.c.obj                              4       0         8         
    +--+----------------------------------------+-------+---------+------------+
       Total:                                   3944    0         425       
                                                                            
    /home/epswbld4/ti/ccs1250/ccs/tools/compiler/ti-cgt-armllvm_3.2.0.LTS/lib/armv7r-ti-none-eabihf/c/libsysbm.a
       trgmsg.c.obj                             176     0         288       
       hostrename.c.obj                         208     0         0         
       host_device.c.obj                        0       0         200       
       hostopen.c.obj                           148     0         8         
       hostlseek.c.obj                          152     0         0         
       close.c.obj                              140     0         0         
       hostread.c.obj                           132     0         0         
       hostwrite.c.obj                          132     0         0         
       hostunlink.c.obj                         108     0         0         
       hostclose.c.obj                          96      0         0         
       unlink.c.obj                             72      0         0         
       lseek.c.obj                              52      0         0         
       write.c.obj                              52      0         0         
       remove.c.obj                             4       0         0         
    +--+----------------------------------------+-------+---------+------------+
       Total:                                   1472    0         496       
                                                                            
    /home/epswbld4/ti/ccs1250/ccs/tools/compiler/ti-cgt-armllvm_3.2.0.LTS/lib/clang/15.0.7/lib/armv7r-ti-none-eabihf/libclang_rt.builtins.a
       udivmoddi4.S.obj                         280     0         0         
       ashldi3.S.obj                            40      0         0         
       lshrdi3.S.obj                            40      0         0         
       aeabi_uldivmod.S.obj                     36      0         0         
       aeabi_memset.S.obj                       28      0         0         
       aeabi_memcpy.S.obj                       12      0         0         
       aeabi_div0.c.obj                         4       0         0         
    +--+----------------------------------------+-------+---------+------------+
       Total:                                   440     0         0         
                                                                            
    /nightlybuilds/mcupsdk_internal/jenkins/mcu_plus_sdk_am62ax_09_01_00_39/source/drivers/device_manager/rm_pm_hal/sbl/lib/rm_pm_hal_sbl.am62ax.r5f.ti-arm-clang.release.lib
       devices.obj                              0       7260      2897      
       clocks.obj                               0       7824      1496      
       rm_udmap.obj                             6458    156       0         
       psc.obj                                  4384    32        4         
       clk_pll_16fft.obj                        3550    290       0         
       boardcfg-user.obj                        346     0         3212      
       rm_ra.obj                                2768    20        0         
       pll.obj                                  2602    0         0         
       device_clk.obj                           2294    0         0         
       clk_div.obj                              1810    72        0         
       rm_irq.obj                               1750    0         4         
       rm_ia.obj                                1720    0         0         
       clk.obj                                  1620    0         0         
       rm_core.obj                              974     0         573       
       device_psc.obj                           1330    0         0         
       clock.obj                                1224    0         0         
       rm_ir.obj                                1020    0         0         
       udmap_cfg.obj                            0       512       384       
       ra_cfg.obj                               0       308       416       
       ia_cfg.obj                               0       242       388       
       device_process.obj                       624     0         0         
       device.obj                               596     0         8         
       clk_mux.obj                              554     32        0         
       device_pm.obj                            306     0         8         
       host_idx_mapping.obj                     0       255       0         
       map.obj                                  250     0         0         
       device_prepare.obj                       208     0         0         
       init.obj                                 180     12        0         
       div64.obj                                182     0         0         
       ir_cfg.obj                               0       64        112       
       mmr_lock.obj                             160     0         0         
       clk_dev.obj                              124     24        0         
       dmsc.obj                                 114     20        1         
       clk_pllctrl.obj                          102     32        0         
       resource.obj                             130     4         0         
       trace.obj                                80      8         16        
       clk_soc_hfosc0.obj                       40      48        0         
       itoa.obj                                 88      0         0         
       clk_fixed.obj                            52      24        0         
       fw_caps.obj                              44      32        0         
       irq_cfg.obj                              0       64        0         
       ia_pe_conf.obj                           0       60        0         
       trace-uart.obj                           48      5         0         
       clk_soc_lfosc0.obj                       28      24        0         
       rm.obj                                   52      0         0         
       sys-reset.obj                            32      0         4         
       osal_glue.obj                            34      0         0         
       sleep.obj                                28      0         4         
       core.obj                                 30      0         0         
       notifier.obj                             28      0         0         
       ioremap.obj                              2       0         0         
    +--+----------------------------------------+-------+---------+------------+
       Total:                                   37966   17424     9527      
                                                                            
    /nightlybuilds/mcupsdk_internal/jenkins/mcu_plus_sdk_am62ax_09_01_00_39/source/drivers/device_manager/sciclient_direct/sbl/lib/sciclient_direct_sbl.am62ax.r5f.ti-arm-clang.release.lib
       sciclient_boardcfg.obj                   340     3880      0         
       sciclient.obj                            2122    0         1232      
       sciclient_pm.obj                         1452    0         0         
       sciclient_direct.obj                     1440    8         0         
       uart_print.obj                           524     30        0         
       sciclient_procboot.obj                   534     0         0         
       sciclient_direct_wrapper.obj             164     71        96        
       sciclient_secureproxy.obj                292     0         0         
       sciclient_firewall.obj                   80      0         0         
       sciclient_secureProxyCfg.obj             0       0         36        
    +--+----------------------------------------+-------+---------+------------+
       Total:                                   6948    3989      1364      
                                                                            
    /nightlybuilds/mcupsdk_internal/jenkins/mcu_plus_sdk_am62ax_09_01_00_39/source/drivers/lib/drivers.am62ax.dm-r5f.ti-arm-clang.release.lib
       uart_v0.obj                              4350    273       156       
       bootloader_soc.obj                       2614    967       440       
       bootloader.obj                           1974    367       0         
       ddr.obj                                  1764    418       89        
       xmodem.obj                               1014    0         0         
       lpddr4_am6x.obj                          614     306       0         
       bootloader_dma.obj                       526     127       0         
       soc.obj                                  588     0         0         
       lpddr4.obj                               566     0         0         
       crc16.obj                                44      512       0         
       ddr_soc.obj                              542     0         0         
       uart_dma.obj                             280     75        0         
       bootloader_xmodem.obj                    224     0         4         
       sciclient_fmwSecureProxyMap.obj          0       220       0         
       udma_ring_common.obj                     188     0         0         
       pinmux.obj                               144     0         0         
       csl_emif.obj                             136     0         0         
       bootloader_mem.obj                       104     0         24        
       utils.obj                                98      0         0         
       udma_ch.obj                              80      0         0         
       gtc_soc.obj                              50      0         0         
       gtc.obj                                  18      0         0         
       csl_sec_proxy.obj                        10      0         0         
       udma_utils.obj                           4       0         0         
    +--+----------------------------------------+-------+---------+------------+
       Total:                                   15932   3265      713       
                                                                            
    /nightlybuilds/mcupsdk_internal/jenkins/mcu_plus_sdk_am62ax_09_01_00_39/source/kernel/nortos/lib/nortos.am62ax.r5f.ti-arm-clang.release.lib
       HwiP_armv7r_vim.obj                      1032    0         4108      
       printf.obj                               4002    98        0         
       ClockP_nortos.obj                        718     90        56        
       CacheP_armv7r_asm.obj                    848     0         0         
       TimerP.obj                               526     270       0         
       HwiP_armv7r_handlers_nortos.obj          544     0         0         
       MpuP_armv7r.obj                          440     0         0         
       ClockP_nortos_r5.obj                     260     176       0         
       SemaphoreP_nortos.obj                    328     107       0         
       boot_armv7r_asm.obj                      252     0         0         
       CacheP_armv7r.obj                        216     8         0         
       DebugP_log.obj                           154     42        4         
       HwiP_armv7r_asm.obj                      160     0         0         
       MpuP_armv7r_asm.obj                      136     0         0         
       HwiP_armv7r_handlers_nortos_asm.obj      120     0         0         
       AddrTranslateP.obj                       104     0         12        
       HwiP_armv7r_vectors_nortos_asm.obj       64      0         0         
       HwiP_armv7r_vectors_nortos_sbl_asm.obj   64      0         0         
       DebugP_nortos.obj                        56      0         0         
       boot_armv7r.obj                          28      0         0         
       TaskP_nortos.obj                         2       0         0         
    +--+----------------------------------------+-------+---------+------------+
       Total:                                   10054   791       4180      
                                                                            
       Heap:                                    0       0         32768     
       Stack:                                   0       0         16384     
    +--+----------------------------------------+-------+---------+------------+
       Grand Total:                             78122   25607     1073819185

VENEERS

callee name               veneer name
   callee addr  veneer addr  call addr  call info
--------------  -----------  ---------  ----------------
putchar                   $Ven$TA$L$PI$$putchar
   43c120dc     43c12304     43c122f0   ti_dpl_config.obj (.text.putchar_)
HwiP_disable              $Ven$TA$L$PI$$HwiP_disable
   43c14250     43c1230c     43c12114   ti_dpl_config.obj (.text.Dpl_deinit)
HwiP_enable               $Ven$TA$L$PI$$HwiP_enable
   43c14270     43c12314     43c10986   ti_dpl_config.obj (.text.Dpl_init)
HwiP_restore              $Ven$TA$L$PI$$HwiP_restore
   43c14290     43c1231c     43c0f158   rm_pm_hal_sbl.am62ax.r5f.ti-arm-clang.release.lib : mmr_lock.obj (.text.mmr_unlock_all)
                             43c103c2   nortos.am62ax.r5f.ti-arm-clang.release.lib : ClockP_nortos.obj (.text.ClockP_stop)
                             43c1094c                                              : ClockP_nortos.obj (.text.ClockP_destruct)
                             43c10cc4                                              : ClockP_nortos.obj (.text.ClockP_start)
                             43c10fca                                              : SemaphoreP_nortos.obj (.text.SemaphoreP_post)
__aeabi_memcpy            $Ven$TA$L$PI$$__aeabi_memcpy
   43c122c4     43c12324     43c0e7b6   drivers.am62ax.dm-r5f.ti-arm-clang.release.lib : utils.obj (.text.Utils_memcpyWord)
HwiP_enableFIQ            $Ven$TA$L$PI$$HwiP_enableFIQ
   43c14280     43c142c0     43c13fa2   nortos.am62ax.r5f.ti-arm-clang.release.lib : HwiP_armv7r_vim.obj (.text.hwi)
CacheP_invL1d             $Ven$TA$L$PI$$CacheP_invL1d
   43c14338     43c146e0     43c146dc   nortos.am62ax.r5f.ti-arm-clang.release.lib : CacheP_armv7r.obj (.text.cache)
CacheP_enableL1p          $Ven$TA$L$PI$$CacheP_enableL1p
   43c14320     43c146e8     43c146b6   nortos.am62ax.r5f.ti-arm-clang.release.lib : CacheP_armv7r.obj (.text.cache)
HwiP_restore              $Ven$TA$L$PI$$HwiP_restore
   43c14290     43c146f0     43c14696   nortos.am62ax.r5f.ti-arm-clang.release.lib : CacheP_armv7r.obj (.text.cache)
MpuP_setRegionAsm         $Ven$TA$L$PI$$MpuP_setRegionAsm
   43c14914     43c14928     43c1482e   nortos.am62ax.r5f.ti-arm-clang.release.lib : MpuP_armv7r.obj (.text.mpu)
HwiP_restore              $Ven$TA$L$PI$$HwiP_restore
   43c14290     43c14930     43c147e4   nortos.am62ax.r5f.ti-arm-clang.release.lib : MpuP_armv7r.obj (.text.mpu)
                             43c14824                                              : MpuP_armv7r.obj (.text.mpu)
MpuP_isEnableAsm          $Ven$TA$L$PI$$MpuP_isEnableAsm
   43c14900     43c14938     43c147b4   nortos.am62ax.r5f.ti-arm-clang.release.lib : MpuP_armv7r.obj (.text.mpu)

[12 trampolines]
[17 trampoline calls]


GLOBAL SYMBOLS: SORTED ALPHABETICALLY BY Name 

address   name                                 
-------   ----                                 
43c0e099  AddrTranslateP_getLocalAddr          
43c055bf  App_loadImages                       
43c0f26d  App_runCpus                          
43c023af  Board_deinit                         
43c027ed  Board_driversOpen                    
43c04d2b  Board_init                           
43c10c2d  Bootloader_BootImageInfo_init        
43c11c63  Bootloader_JumpSelfCpu               
43c12135  Bootloader_Params_init               
43c1202d  Bootloader_close                     
43c09783  Bootloader_dmaCopy                   
43c0fa2d  Bootloader_findSeq                   
43c0c30b  Bootloader_getMsgLen                 
43c1203d  Bootloader_isCorePresent             
43c0f70b  Bootloader_loadCpu                   
43c0c55d  Bootloader_loadSelfCpu               
43c108dd  Bootloader_open                      
43c07b51  Bootloader_parseMultiCoreAppImage    
43c08b67  Bootloader_rprcImageLoad             
43c0f75b  Bootloader_rprcImageParseEntryPoint  
43c0e99d  Bootloader_runCpu                    
43c02b89  Bootloader_socAuthImage              
43c11c7f  Bootloader_socCpuGetClkDefault       
43c0e101  Bootloader_socCpuGetClock            
43c10a01  Bootloader_socCpuPowerOnReset        
43c0db79  Bootloader_socCpuPowerOnResetA53     
43c0cbff  Bootloader_socCpuPowerOnResetC7x     
43c08a51  Bootloader_socCpuPowerOnResetHSMM4f  
43c0618d  Bootloader_socCpuPowerOnResetR5f     
43c0e169  Bootloader_socCpuRelease             
43c0e371  Bootloader_socCpuRequest             
43c03bd1  Bootloader_socCpuResetRelease        
43c0cd99  Bootloader_socCpuSetClock            
43c120fd  Bootloader_socCpuSetEntryPoint       
43c11acd  Bootloader_socGetCoreName            
43c121ad  Bootloader_socGetSBLMem              
43c11c9b  Bootloader_socIsAuthRequired         
43c11695  Bootloader_socIsMCUResetIsoEnabled   
43c121b7  Bootloader_socIsSmpEnable            
43c0dfc5  Bootloader_socMemInitCpu             
43c10c61  Bootloader_socOpenFirewalls          
43c1143d  Bootloader_socRprcToCslCoreId        
43c12141  Bootloader_socSelfCPUjump            
43c106c1  Bootloader_socTranslateSectionAddr   
43c035d5  Bootloader_socWaitForFWBoot          
43c04ae1  Bootloader_verifyMulticoreImage      
43c10f39  Bootloader_xmodemReceive             
43c10f6b  Bootloader_xmodemTransmit            
43c12288  C$$EXIT                              
43c0efa0  C$$IO$$                              
43c12297  CPS_UncachedRead32                   
43c1229b  CPS_UncachedWrite32                  
43c11fe5  CSL_emifClearECCInterruptStatus      
43c0e3d7  CSL_emifConfig                       
43c11ff7  CSL_emifEnableECCInterrupts          
43c121c1  CSL_secProxyGetDataAddr              
43c145d8  CacheP_configForceWrThru             
43c14661  CacheP_disable                       
43c142c8  CacheP_disableL1d                    
43c142f0  CacheP_disableL1p                    
43c1469b  CacheP_enable                        
43c14308  CacheP_enableL1d                     
43c14320  CacheP_enableL1p                     
43c145cc  CacheP_getCacheLevelInfo             
43c14594  CacheP_getEnabled                    
43c14609  CacheP_init                          
43c146bb  CacheP_inv                           
43c14338  CacheP_invL1d                        
43c143ac  CacheP_invL1dAll                     
43c14370  CacheP_invL1p                        
43c143b4  CacheP_invL1pAll                     
43c145f8  CacheP_setDLFO                       
43c143bc  CacheP_wb                            
43c14434  CacheP_wbAll                         
43c143f8  CacheP_wbInv                         
43c144dc  CacheP_wbInvAll                      
43c144f4  CacheP_wbInvAllAsm                   
43c121cb  ClockP_Params_init                   
43c0f7fb  ClockP_construct                     
43c119bd  ClockP_deinit                        
43c10917  ClockP_destruct                      
43c1214d  ClockP_getTicks                      
43c0ffc5  ClockP_getTimeUsec                   
43c1229f  ClockP_getTimerCount                 
43c092b5  ClockP_init                          
43c121d5  ClockP_isActive                      
43c116bb  ClockP_sleep                         
43c10c95  ClockP_start                         
43c10387  ClockP_stop                          
43c1204d  ClockP_ticksToUsec                   
43c122a3  ClockP_timerClearOverflowInt         
43c0e9fb  ClockP_timerTickIsr                  
43c106fd  ClockP_usleep                        
43c163e0  DDRSS_ctlReg                         
43c177c2  DDRSS_ctlRegNum                      
43c16aac  DDRSS_phyIndepReg                    
43c17b28  DDRSS_phyIndepRegNum                 
43c14a68  DDRSS_phyReg                         
43c1714c  DDRSS_phyRegNum                      
43c12159  DDR_ResetDDR_PLL                     
43c019c9  DDR_init                             
43c0dc5d  DDR_programHSDIV                     
43c06ddd  DDR_programPLL                       
43c057bf  DDR_socEnableVttRegulator            
43c11aed  DebugP_logZoneEnable                 
43c1210b  Dpl_deinit                           
43c10951  Dpl_init                             
43c11bcd  Drivers_close                        
43c122a7  Drivers_open                         
43c0f2c3  Drivers_uartOpen                     
43c12119  GTC_enable                           
43c12009  GTC_init                             
43c1179f  GTC_setFID                           
43c0e7bc  HOSTclose                            
43c0c144  HOSTlseek                            
43c0c3a0  HOSTopen                             
43c0cf2c  HOSTread                             
43c0bb14  HOSTrename                           
43c0de14  HOSTunlink                           
43c0cfb0  HOSTwrite                            
43c13ca9  HwiP_Params_init                     
43c13c61  HwiP_clearInt                        
43c13cbb  HwiP_construct                       
43c141ab  HwiP_data_abort_handler              
43c13e05  HwiP_destruct                        
43c14250  HwiP_disable                         
43c14260  HwiP_disableFIQ                      
43c13bd9  HwiP_disableInt                      
43c142a8  HwiP_disableVIC                      
43c14270  HwiP_enable                          
43c14280  HwiP_enableFIQ                       
43c13bb1  HwiP_enableInt                       
43c14298  HwiP_enableVIC                       
43c1403f  HwiP_fiq_handler                     
43c142b8  HwiP_getCPSR                         
43c13fa7  HwiP_inISR                           
43c13ed7  HwiP_init                            
43c141d8  HwiP_irq_handler                     
43c13fb9  HwiP_irq_handler_c                   
43c13c81  HwiP_post                            
43c1417d  HwiP_prefetch_abort_handler          
43c140f3  HwiP_reserved_handler                
43c14290  HwiP_restore                         
43c13c0b  HwiP_restoreInt                      
43c1414f  HwiP_svc_handler                     
43c14121  HwiP_undefined_handler               
43c08c79  LPDDR4_AckCtlInterrupt               
43c084bb  LPDDR4_CheckCtlInterrupt             
43c10cc9  LPDDR4_EnablePIInitiator             
43c11e1d  LPDDR4_Init                          
43c10cfd  LPDDR4_PollCtlIrq                    
43c1205d  LPDDR4_Probe                         
43c0fa7b  LPDDR4_ReadReg                       
43c0dccb  LPDDR4_Start                         
43c10407  LPDDR4_WriteCtlConfig                
43c1000b  LPDDR4_WritePhyConfig                
43c0fdc5  LPDDR4_WritePhyIndepConfig           
43c10051  LPDDR4_WriteReg                      
43c110f5  Module_clockDisable                  
43c11123  Module_clockEnable                   
43c10bc1  Module_clockSetFrequency             
43c146f9  MpuP_RegionAttrs_init                
43c147b9  MpuP_disable                         
43c148b0  MpuP_disableAsm                      
43c148c8  MpuP_disableBRAsm                    
43c147eb  MpuP_enable                          
43c148d8  MpuP_enableAsm                       
43c148f0  MpuP_enableBRAsm                     
43c14833  MpuP_init                            
43c147b5  MpuP_isEnable                        
43c14900  MpuP_isEnableAsm                     
43c14829  MpuP_resetRegion                     
43c14707  MpuP_setRegion                       
43c14914  MpuP_setRegionAsm                    
43c10097  Pinmux_config                        
43c119df  Pinmux_init                          
43c0fe0f  Pinmux_unlockMMR                     
43c122b3  PowerClock_deinit                    
43c12127  PowerClock_init                      
43c0ed99  SOC_controlModuleLockMMR             
43c0fe59  SOC_controlModuleUnlockMMR           
43c0dd39  SOC_moduleClockEnable                
43c12239  SOC_moduleGetClockFrequency          
43c07eed  SOC_moduleSetClockFrequency          
43c07781  Sciclient_ProcessPmMessage           
43c091b5  Sciclient_ProcessRmMessage           
43c0f84b  Sciclient_abiCheck                   
43c0aca5  Sciclient_boardCfgParseHeader        
43c0d035  Sciclient_boardCfgPm                 
43c0d0b9  Sciclient_boardCfgRm                 
43c0dbed  Sciclient_configPrmsInit             
43c0fb19  Sciclient_deinit                     
43c0e81d  Sciclient_direct_init                
43c0f89b  Sciclient_firewallSetRegion          
43c11181  Sciclient_flush                      
43c0f8ed  Sciclient_getCurrentContext          
43c0fb65  Sciclient_getDefaultBoardCfgInfo     
43c06539  Sciclient_init                       
43c0d13d  Sciclient_pmGetModuleClkFreq         
43c0ce1f  Sciclient_pmGetModuleClkNumParent    
43c0cea5  Sciclient_pmGetModuleClkParent       
43c0d245  Sciclient_pmGetModuleState           
43c0d549  Sciclient_pmModuleClkRequest         
43c0d1c1  Sciclient_pmModuleGetClkStatus       
43c0a9b5  Sciclient_pmQueryModuleClkFreq       
43c0b729  Sciclient_pmSetModuleClkFreq         
43c0d5c7  Sciclient_pmSetModuleClkParent       
43c0f36f  Sciclient_pmSetModuleRst             
43c0e87d  Sciclient_pmSetModuleState           
43c0ea59  Sciclient_procBootAuthAndStart       
43c0ee4d  Sciclient_procBootGetProcessorState  
43c0eab7  Sciclient_procBootReleaseProcessor   
43c0f3c3  Sciclient_procBootRequestProcessor   
43c0fbb1  Sciclient_procBootSetProcessorCfg    
43c0e43b  Sciclient_procBootSetSequenceCtrl    
43c11b0d  Sciclient_query_fw_caps_handler      
43c11cd5  Sciclient_readThread32               
43c11f09  Sciclient_readThreadCount            
43c0d349  Sciclient_sendMessage                
43c06365  Sciclient_service                    
43c0c1dd  Sciclient_serviceGetThreadIds        
43c0d92d  Sciclient_servicePrepareHeader       
43c032b9  Sciclient_serviceSecureProxy         
43c0e695  Sciclient_setDebugConfig             
43c1206d  Sciclient_threadStatusReg            
43c11f1d  Sciclient_verifyThread               
43c101f5  Sciclient_waitForBootNotification    
43c117c5  Sciclient_waitThread                 
43c10447  SemaphoreP_constructBinary           
43c105c9  SemaphoreP_constructMutex            
43c06363  SemaphoreP_destruct                  
43c0c275  SemaphoreP_pend                      
43c10f9d  SemaphoreP_post                      
43c11b2d  System_deinit                        
43c10d31  System_init                          
43c11d98  TI_memcpy_small                      
43c11eac  TI_memset_small                      
43c06f7f  TaskP_yield                          
43c11b4d  TimerP_Params_init                   
43c1201b  TimerP_clearOverflowInt              
43c122b7  TimerP_getCount                      
43c122bb  TimerP_getReloadCount                
43c06709  TimerP_setup                         
43c121df  TimerP_start                         
43c121e9  TimerP_stop                          
43c078c7  UART_close                           
43c11db5  UART_deinit                          
43c0f417  UART_dmaClose                        
43c0f319  UART_dmaDisableChannel               
43c1098b  UART_dmaOpen                         
43c0ae15  UART_flushTxFifo                     
43c10fcf  UART_getHandle                       
43c0c435  UART_init                            
43c01ebd  UART_open                            
43c074ed  UART_printf                          
43c040f5  UART_read                            
43c11dcf  UART_readInterruptDma                
43c059c1  UART_write                           
43c11de9  UART_writeInterruptDma               
43c114b5  Udma_chGetCqRingHandle               
43c114dd  Udma_chGetFqRingHandle               
43c122bf  Udma_defaultVirtToPhyFxn             
43c0edf3  Udma_ringDequeueRaw                  
43c0e6f7  Udma_ringQueueRaw                    
43c0e759  Utils_memcpyWord                     
43c2c158  _CIOBUF_                             
43c0eb13  _DebugP_assert                       
43c14a3d  _DebugP_assertNoLog                  
43c10a39  _DebugP_logZone                      
43c2d848  __ABORT_STACK_END                    
00000100  __ABORT_STACK_SIZE                   
43c2d748  __ABORT_STACK_START                  
43c2c548  __BSS_END                            
43c29980  __BSS_START                          
43c2c158  __CIOBUF_                            
43c2d648  __FIQ_STACK_END                      
00000100  __FIQ_STACK_SIZE                     
43c2d548  __FIQ_STACK_START                    
43c2d548  __IRQ_STACK_END                      
00001000  __IRQ_STACK_SIZE                     
43c2c548  __IRQ_STACK_START                    
43c29980  __STACK_END                          
00004000  __STACK_SIZE                         
43c2d748  __SVC_STACK_END                      
00000100  __SVC_STACK_SIZE                     
43c2d648  __SVC_STACK_START                    
00008000  __SYSMEM_SIZE                        
00000000  __TI_ATRegion0_region_sz             
00000000  __TI_ATRegion0_src_addr              
00000000  __TI_ATRegion0_trg_addr              
00000000  __TI_ATRegion1_region_sz             
00000000  __TI_ATRegion1_src_addr              
00000000  __TI_ATRegion1_trg_addr              
00000000  __TI_ATRegion2_region_sz             
00000000  __TI_ATRegion2_src_addr              
00000000  __TI_ATRegion2_trg_addr              
UNDEFED   __TI_CINIT_Base                      
UNDEFED   __TI_CINIT_Limit                     
UNDEFED   __TI_Handler_Table_Base              
UNDEFED   __TI_Handler_Table_Limit             
43c0f214  __TI_auto_init_nobinit_nopinit       
43c0eea4  __TI_cleanup                         
43c18c34  __TI_cleanup_ptr                     
43c0b0f0  __TI_closefile                       
43c0c8b8  __TI_doflush                         
43c18c38  __TI_dtors_ptr                       
43c18a64  __TI_ft_end                          
ffffffff  __TI_pprof_out_hndl                  
ffffffff  __TI_prof_data_size                  
ffffffff  __TI_prof_data_start                 
43c0eefc  __TI_readmsg                         
43c00000  __TI_static_base__                   
43c2c330  __TI_tmpnams                         
43c0ef54  __TI_writemsg                        
43c0bed4  __TI_wrt_ok                          
43c2d948  __UNDEFINED_STACK_END                
00000100  __UNDEFINED_STACK_SIZE               
43c2d848  __UNDEFINED_STACK_START              
43c122d0  __aeabi_ldiv0                        
43c11504  __aeabi_llsl                         
43c1152c  __aeabi_llsr                         
43c12164  __aeabi_memclr                       
43c12164  __aeabi_memclr4                      
43c12164  __aeabi_memclr8                      
43c122c4  __aeabi_memcpy                       
43c122c4  __aeabi_memcpy4                      
43c122c4  __aeabi_memcpy8                      
43c1208c  __aeabi_memset                       
43c1208c  __aeabi_memset4                      
43c1208c  __aeabi_memset8                      
43c117e8  __aeabi_uldivmod                     
43c11504  __ashldi3                            
ffffffff  __binit__                            
43c1152c  __lshrdi3                            
43c14a5b  __mpu_init                           
43c25980  __stack                              
43c00100  __start___llvm_prf_bits              
43c00100  __start___llvm_prf_cnts              
43c00100  __stop___llvm_prf_bits               
43c00100  __stop___llvm_prf_cnts               
43c08938  __udivmoddi4                         
43c14964  _c_int00                             
43c14940  _c_int00_sbl                         
43c18830  _device                              
43c2c470  _freertosresetvectors                
43c183bc  _ftable                              
43c100dd  _inbyte                              
43c18c0c  _lock                                
43c122c8  _nop                                 
43c10bf7  _outbyte                             
43c189cc  _stream                              
43c1d980  _sys_memory                          
UNDEFED   _system_post_cinit                   
43c11cf1  _system_pre_init                     
43c18c54  _unlock                              
43c00000  _vectors                             
43c00040  _vectors_sbl                         
43c12288  abort                                
43c068c8  aligned_alloc                        
ffffffff  binit                                
43c1180d  boardcfg_get_rm_devgrp               
43c11f31  boardcfg_get_rm_resasg               
43c11e35  boardcfg_get_rm_resasg_size          
43c111ad  boardcfg_memcpy_rm                   
43c109c5  boardcfg_pm_receive_and_validate     
43c0b9cd  boardcfg_rm_receive_and_validate     
43c2c3d0  bootCpuInfo                          
43c2c538  bootHandle                           
43c11ec5  clk_div_get_freq                     
43c0f46d  clk_div_init                         
43c09875  clk_div_notify_freq                  
43c0e4a1  clk_div_reg_get_div                  
43c0eb71  clk_div_reg_go_get_div               
43c0b1a5  clk_div_reg_go_set_div               
43c0d3c9  clk_div_reg_set_div                  
43c04385  clk_div_set_freq                     
43c0a46d  clk_div_set_freq_static_parent       
43c10a71  clk_drop_pwr_up_en                   
43c1b2bc  clk_drv_div_pll_16fft_hsdiv          
43c1b2e0  clk_drv_div_pll_16fft_postdiv        
43c1b304  clk_drv_div_reg                      
43c1b328  clk_drv_div_reg_go                   
43c1b760  clk_drv_fixed                        
43c1b778  clk_drv_from_device                  
43c1b4a0  clk_drv_mux_reg                      
43c1b790  clk_drv_pll_16fft                    
43c1b4c0  clk_drv_pllctrl_mux_reg_ro           
43c1b7a8  clk_drv_soc_hfosc0                   
43c1b7c0  clk_drv_soc_lfosc0                   
43c12249  clk_freq_change_allow                
43c12251  clk_freq_change_block                
43c0bf71  clk_generic_set_freq_parent          
43c0da91  clk_get                              
43c111d9  clk_get_div                          
43c11065  clk_get_freq                         
43c10489  clk_get_parent                       
43c11095  clk_get_parent_freq                  
43c1027d  clk_get_state                        
43c07639  clk_init                             
43c121f3  clk_notify_children_freq             
43c0e8dd  clk_notify_freq                      
43c0d645  clk_notify_sibling_freq              
43c0feed  clk_put                              
43c09c1d  clk_set_freq                         
43c0a6b5  clk_set_parent                       
43c10d99  clk_set_state                        
43c11a01  clk_ssc_allow                        
43c11b6d  clk_ssc_block                        
43c11555  clk_value_get_freq                   
43c10ae1  clk_value_set_freq                   
43c0ca5c  close                                
43c1130d  crc16_ccitt                          
43c11e7d  dev_get_clk                          
43c10303  device_clk_disable                   
43c10345  device_clk_enable                    
43c10b19  device_clk_get_freq                  
43c11f59  device_clk_get_freq_change           
43c0ec29  device_clk_get_hw_ready              
43c122e5  device_clk_get_hw_ssc                
43c11f6d  device_clk_get_input_term            
43c10607  device_clk_get_num_parents           
43c090b1  device_clk_get_parent                
43c11f81  device_clk_get_ssc                   
43c11f95  device_clk_get_sw_gated              
43c0de81  device_clk_init                      
43c1209d  device_clk_query_freq                
43c11ef1  device_clk_set_freq                  
43c0efad  device_clk_set_freq_change           
43c09cfd  device_clk_set_gated                 
43c11a23  device_clk_set_input_term            
43c0a531  device_clk_set_parent                
43c0f005  device_clk_set_ssc                   
43c10739  device_disable                       
43c11879  device_prepare_exclusive             
43c12171  device_prepare_nonexclusive          
43c11beb  device_resource_mem                  
43c11001  device_set_retention                 
43c0c5ed  device_set_state                     
43c1189d  device_suspend                       
43c057c1  devices_init                         
43c10dcd  devices_init_rw                      
43c118c1  dmsc_init                            
43c1c6d4  evt_rt_srcs                          
43c1c940  evt_rt_srcs_count                    
43c0f4c0  exit                                 
43c0f514  finddevice                           
43c094a8  fputc                                
43c06a7c  free                                 
43c122e8  fseek                                
43c0b258  fseeko                               
43c18c10  gAddrTranslateConfig                 
43c184ac  gAddrTranslateInfo                   
84000000  gAppImageBuf                         
43c18bdc  gBootloader0Args                     
43c18aa0  gBootloaderConfig                    
43c18ca0  gBootloaderConfigNum                 
43c18b40  gBootloaderMemFxns                   
43c18ac0  gBootloaderUdmaArgs                  
43c18c4c  gCacheConfig                         
43c1c944  gCacheL1dCacheLineSize               
43c1c948  gCacheL1pCacheLineSize               
43c18b58  gClockConfig                         
43c2c4b0  gClockCtrl                           
43c1858c  gCoreBootInfo                        
43c18ca4  gDebugLogZone                        
43c18ca8  gEndOfFilesTransferWord              
43c18cac  gHwiConfig                           
43c29980  gHwiCtrl                             
43c18bec  gMemBootloaderArgs                   
43c18ae0  gMemBootloaderConfig                 
43c18c1c  gMpuConfig                           
43c187a0  gMpuRegionConfig                     
43c18bb8  gResMemSection                       
43c1aa58  gSOC_r5fVectors                      
43c1891c  gSciclientHandle                     
43c1a6a4  gSciclientMap                        
43c18b00  gSciclientRomSecProxyCfg             
43c1ca00  gSciclient_boardCfgLow               
43c1d900  gSciclient_boardCfgLow_pm            
43c1ca80  gSciclient_boardCfgLow_rm            
43c1d780  gSciclient_boardCfgLow_sec           
43c18b20  gSciclient_secProxyCfg               
43c18bfc  gSocModules                          
43c18b88  gSocModulesClockFrequency            
43c18c28  gUartConfig                          
43c18cb0  gUartConfigNum                       
43c14a68  gUartDmaConfig                       
43c18cb4  gUartDmaConfigNum                    
43c2c53c  gUartHandle                          
43c18978  gUartParams                          
43c1c6c4  gcSciclientDirectExtBootX509MagicWord
43c0a775  get_clock_handler                    
43c0d73d  get_clock_parent_handler             
43c0deed  get_dev_clk                          
43c0ff35  get_dev_clk_data                     
43c0bc55  get_device_handler                   
43c0ec85  get_freq_handler                     
43c0d7b9  get_num_clock_parents_handler        
43c0a3a4  getdevice                            
43c1864c  ia_inst                              
43c1abf4  ia_soc_pe_init_list                  
43c0801f  ioremap_internal                     
43c188a8  ir_inst                              
43c1ac68  irq_global_event_types               
43c0f0b5  lib_itoa                             
43c12259  lpsc_module_get                      
43c0f569  lpsc_module_get_local_reset          
43c12261  lpsc_module_get_module_reset         
43c0fc49  lpsc_module_get_reset_iso            
43c11391  lpsc_module_get_state                
43c1157d  lpsc_module_idx                      
43c12269  lpsc_module_put                      
43c12271  lpsc_module_ret_get                  
43c12279  lpsc_module_ret_put                  
43c0c70d  lpsc_module_set_local_reset          
43c0cd11  lpsc_module_set_module_reset         
43c0df59  lpsc_module_set_reset_iso            
43c09ddd  lpsc_module_wait                     
43c10e34  lseek                                
43c08d8b  main                                 
43c1217c  malloc                               
43c0af85  map_add                              
43c068c8  memalign                             
43c085db  mmr_lock_all                         
43c10829  mmr_unlock                           
43c0f10d  mmr_unlock_all                       
43c11d29  notifier_call                        
43c18cb8  operatingMode                        
43c11a67  osal_delay                           
43c18cbc  pSciclient_secProxyCfg               
43c2c50c  parmbuf                              
43c00101  pll_calc                             
43c0f165  pll_init                             
43c120bd  pm_devgroup_is_enabled               
43c120cd  pm_devgroup_set_enabled              
43c0b03b  pm_div64                             
43c0b30d  pm_init                              
43c0d9a5  psc_drop_pwr_up_ref                  
43c1c2d0  psc_drv                              
43c10e69  psc_lookup                           
43c10509  psc_lookup_lpsc                      
43c10e9d  psc_lookup_pd                        
43c09961  psc_pd_get                           
43c118e5  psc_pd_idx                           
43c0a139  psc_pd_put                           
43c0cae9  psc_pd_wait                          
43c120dc  putchar                              
43c122f1  putchar_                             
43c0aecd  query_freq_handler                   
43c113bd  query_fw_caps_handler                
43c180b4  ra_inst                              
43c1c970  ra_inst_count                        
43c122f4  remove                               
43c17e78  resasg_indexer                       
43c08e99  rm_core_get_resource_range           
43c0bcf5  rm_core_init                         
43c120ed  rm_core_map_region                   
43c12281  rm_core_param_is_valid               
43c0e631  rm_core_resasg_get_utype_index       
43c0aa71  rm_core_resasg_validate_resource     
43c11fa9  rm_core_unmap_region                 
43c0e2a1  rm_core_validate_devgrp              
43c0959d  rm_ia_init                           
43c0f5bd  rm_ia_is_managed_resasg_utype        
43c115cd  rm_ia_validate_vint                  
43c11909  rm_ia_vint_get_info                  
43c08fa5  rm_ia_vint_map                       
43c09691  rm_ia_vint_unmap                     
43c10ed1  rm_init                              
43c0c0a9  rm_ir_clear                          
43c07241  rm_ir_configure                      
43c0e309  rm_ir_get_outp                       
43c10b51  rm_ir_init                           
43c115f5  rm_ir_is_managed_resasg_utype        
43c1161d  rm_ir_validate_output                
43c1192d  rm_irq_init                          
43c10b89  rm_irq_is_managed_resasg_utype       
43c0f611  rm_irq_oes_src_register              
43c04f75  rm_irq_release                       
43c05bc1  rm_irq_set                           
43c023b1  rm_ra_cfg                            
43c0b471  rm_ra_init                           
43c0d835  rm_ra_is_managed_resasg_utype        
43c09ebd  rm_ra_mon_cfg                        
43c0bd95  rm_ra_validate_ring_index            
43c038e9  rm_udmap_flow_cfg                    
43c0a209  rm_udmap_flow_delegate               
43c122f9  rm_udmap_flow_size_thresh_cfg        
43c06f81  rm_udmap_gcfg_cfg                    
43c0b67d  rm_udmap_init                        
43c09a4d  rm_udmap_is_managed_resasg_utype     
43c00e6d  rm_udmap_rx_ch_cfg                   
43c00841  rm_udmap_tx_ch_cfg                   
43c18ccc  selfcoreEntry                        
43c0a8f5  set_clock_handler                    
43c0d4c9  set_clock_parent_handler             
43c070e5  set_device_handler                   
43c0db05  set_device_resets_handler            
43c0ab2d  set_freq_handler                     
43c07a0c  setvbuf                              
43c11d61  sleep_modes_register                 
43c18c98  socCpuCores                          
43c1c974  soc_clock_count                      
43c18cf0  soc_clock_data                       
43c1a810  soc_clock_freq_defaults              
43c1b244  soc_clock_ranges                     
43c2be54  soc_clock_values                     
43c2b430  soc_clocks                           
43c1c978  soc_devgroup_count                   
43c1aaa0  soc_devgroups                        
43c1c97c  soc_device_count                     
43c19d30  soc_device_data_arr                  
43c0ed3d  soc_device_disable                   
43c0f665  soc_device_enable                    
43c0f98d  soc_device_get_context_loss_count    
43c10865  soc_device_get_reset_iso             
43c0fce1  soc_device_get_resets                
43c0e93d  soc_device_get_state                 
43c0abe9  soc_device_init                      
43c122fd  soc_device_init_complete             
43c0fd2d  soc_device_ret_disable               
43c0fd79  soc_device_ret_enable                
43c10549  soc_device_set_reset_iso             
43c0f9dd  soc_device_set_resets                
43c2b840  soc_devices                          
43c1b500  soc_fw_caps                          
43c1a5a6  soc_host_indexes                     
43c1a955  soc_host_indexes_sz                  
43c1a2c4  soc_pll_table                        
43c1c980  soc_psc_multiple_domains             
43c02ba0  strcmp                               
43c11c27  sys_reset_handler                    
43c12189  sys_reset_handler_register           
43c11fd1  system_reset                         
43c12301  trace_debug                          
43c110c5  trace_debug_uart                     
43c12195  trace_reconfigure                    
43c0881b  u32_get_bytes                        
43c11c45  u32map_get                           
43c18254  udmap_inst                           
43c1c990  udmap_inst_count                     
43c0ff7c  unlink                               
43c11999  vprintf_                             
43c10f04  write                                
43c053b9  xmodemReceive                        
43c05dbd  xmodemTransmit                       


GLOBAL SYMBOLS: SORTED BY Symbol Address 

address   name                                 
-------   ----                                 
00000000  __TI_ATRegion0_region_sz             
00000000  __TI_ATRegion0_src_addr              
00000000  __TI_ATRegion0_trg_addr              
00000000  __TI_ATRegion1_region_sz             
00000000  __TI_ATRegion1_src_addr              
00000000  __TI_ATRegion1_trg_addr              
00000000  __TI_ATRegion2_region_sz             
00000000  __TI_ATRegion2_src_addr              
00000000  __TI_ATRegion2_trg_addr              
00000100  __ABORT_STACK_SIZE                   
00000100  __FIQ_STACK_SIZE                     
00000100  __SVC_STACK_SIZE                     
00000100  __UNDEFINED_STACK_SIZE               
00001000  __IRQ_STACK_SIZE                     
00004000  __STACK_SIZE                         
00008000  __SYSMEM_SIZE                        
43c00000  __TI_static_base__                   
43c00000  _vectors                             
43c00040  _vectors_sbl                         
43c00100  __start___llvm_prf_bits              
43c00100  __start___llvm_prf_cnts              
43c00100  __stop___llvm_prf_bits               
43c00100  __stop___llvm_prf_cnts               
43c00101  pll_calc                             
43c00841  rm_udmap_tx_ch_cfg                   
43c00e6d  rm_udmap_rx_ch_cfg                   
43c019c9  DDR_init                             
43c01ebd  UART_open                            
43c023af  Board_deinit                         
43c023b1  rm_ra_cfg                            
43c027ed  Board_driversOpen                    
43c02b89  Bootloader_socAuthImage              
43c02ba0  strcmp                               
43c032b9  Sciclient_serviceSecureProxy         
43c035d5  Bootloader_socWaitForFWBoot          
43c038e9  rm_udmap_flow_cfg                    
43c03bd1  Bootloader_socCpuResetRelease        
43c040f5  UART_read                            
43c04385  clk_div_set_freq                     
43c04ae1  Bootloader_verifyMulticoreImage      
43c04d2b  Board_init                           
43c04f75  rm_irq_release                       
43c053b9  xmodemReceive                        
43c055bf  App_loadImages                       
43c057bf  DDR_socEnableVttRegulator            
43c057c1  devices_init                         
43c059c1  UART_write                           
43c05bc1  rm_irq_set                           
43c05dbd  xmodemTransmit                       
43c0618d  Bootloader_socCpuPowerOnResetR5f     
43c06363  SemaphoreP_destruct                  
43c06365  Sciclient_service                    
43c06539  Sciclient_init                       
43c06709  TimerP_setup                         
43c068c8  aligned_alloc                        
43c068c8  memalign                             
43c06a7c  free                                 
43c06ddd  DDR_programPLL                       
43c06f7f  TaskP_yield                          
43c06f81  rm_udmap_gcfg_cfg                    
43c070e5  set_device_handler                   
43c07241  rm_ir_configure                      
43c074ed  UART_printf                          
43c07639  clk_init                             
43c07781  Sciclient_ProcessPmMessage           
43c078c7  UART_close                           
43c07a0c  setvbuf                              
43c07b51  Bootloader_parseMultiCoreAppImage    
43c07eed  SOC_moduleSetClockFrequency          
43c0801f  ioremap_internal                     
43c084bb  LPDDR4_CheckCtlInterrupt             
43c085db  mmr_lock_all                         
43c0881b  u32_get_bytes                        
43c08938  __udivmoddi4                         
43c08a51  Bootloader_socCpuPowerOnResetHSMM4f  
43c08b67  Bootloader_rprcImageLoad             
43c08c79  LPDDR4_AckCtlInterrupt               
43c08d8b  main                                 
43c08e99  rm_core_get_resource_range           
43c08fa5  rm_ia_vint_map                       
43c090b1  device_clk_get_parent                
43c091b5  Sciclient_ProcessRmMessage           
43c092b5  ClockP_init                          
43c094a8  fputc                                
43c0959d  rm_ia_init                           
43c09691  rm_ia_vint_unmap                     
43c09783  Bootloader_dmaCopy                   
43c09875  clk_div_notify_freq                  
43c09961  psc_pd_get                           
43c09a4d  rm_udmap_is_managed_resasg_utype     
43c09c1d  clk_set_freq                         
43c09cfd  device_clk_set_gated                 
43c09ddd  lpsc_module_wait                     
43c09ebd  rm_ra_mon_cfg                        
43c0a139  psc_pd_put                           
43c0a209  rm_udmap_flow_delegate               
43c0a3a4  getdevice                            
43c0a46d  clk_div_set_freq_static_parent       
43c0a531  device_clk_set_parent                
43c0a6b5  clk_set_parent                       
43c0a775  get_clock_handler                    
43c0a8f5  set_clock_handler                    
43c0a9b5  Sciclient_pmQueryModuleClkFreq       
43c0aa71  rm_core_resasg_validate_resource     
43c0ab2d  set_freq_handler                     
43c0abe9  soc_device_init                      
43c0aca5  Sciclient_boardCfgParseHeader        
43c0ae15  UART_flushTxFifo                     
43c0aecd  query_freq_handler                   
43c0af85  map_add                              
43c0b03b  pm_div64                             
43c0b0f0  __TI_closefile                       
43c0b1a5  clk_div_reg_go_set_div               
43c0b258  fseeko                               
43c0b30d  pm_init                              
43c0b471  rm_ra_init                           
43c0b67d  rm_udmap_init                        
43c0b729  Sciclient_pmSetModuleClkFreq         
43c0b9cd  boardcfg_rm_receive_and_validate     
43c0bb14  HOSTrename                           
43c0bc55  get_device_handler                   
43c0bcf5  rm_core_init                         
43c0bd95  rm_ra_validate_ring_index            
43c0bed4  __TI_wrt_ok                          
43c0bf71  clk_generic_set_freq_parent          
43c0c0a9  rm_ir_clear                          
43c0c144  HOSTlseek                            
43c0c1dd  Sciclient_serviceGetThreadIds        
43c0c275  SemaphoreP_pend                      
43c0c30b  Bootloader_getMsgLen                 
43c0c3a0  HOSTopen                             
43c0c435  UART_init                            
43c0c55d  Bootloader_loadSelfCpu               
43c0c5ed  device_set_state                     
43c0c70d  lpsc_module_set_local_reset          
43c0c8b8  __TI_doflush                         
43c0ca5c  close                                
43c0cae9  psc_pd_wait                          
43c0cbff  Bootloader_socCpuPowerOnResetC7x     
43c0cd11  lpsc_module_set_module_reset         
43c0cd99  Bootloader_socCpuSetClock            
43c0ce1f  Sciclient_pmGetModuleClkNumParent    
43c0cea5  Sciclient_pmGetModuleClkParent       
43c0cf2c  HOSTread                             
43c0cfb0  HOSTwrite                            
43c0d035  Sciclient_boardCfgPm                 
43c0d0b9  Sciclient_boardCfgRm                 
43c0d13d  Sciclient_pmGetModuleClkFreq         
43c0d1c1  Sciclient_pmModuleGetClkStatus       
43c0d245  Sciclient_pmGetModuleState           
43c0d349  Sciclient_sendMessage                
43c0d3c9  clk_div_reg_set_div                  
43c0d4c9  set_clock_parent_handler             
43c0d549  Sciclient_pmModuleClkRequest         
43c0d5c7  Sciclient_pmSetModuleClkParent       
43c0d645  clk_notify_sibling_freq              
43c0d73d  get_clock_parent_handler             
43c0d7b9  get_num_clock_parents_handler        
43c0d835  rm_ra_is_managed_resasg_utype        
43c0d92d  Sciclient_servicePrepareHeader       
43c0d9a5  psc_drop_pwr_up_ref                  
43c0da91  clk_get                              
43c0db05  set_device_resets_handler            
43c0db79  Bootloader_socCpuPowerOnResetA53     
43c0dbed  Sciclient_configPrmsInit             
43c0dc5d  DDR_programHSDIV                     
43c0dccb  LPDDR4_Start                         
43c0dd39  SOC_moduleClockEnable                
43c0de14  HOSTunlink                           
43c0de81  device_clk_init                      
43c0deed  get_dev_clk                          
43c0df59  lpsc_module_set_reset_iso            
43c0dfc5  Bootloader_socMemInitCpu             
43c0e099  AddrTranslateP_getLocalAddr          
43c0e101  Bootloader_socCpuGetClock            
43c0e169  Bootloader_socCpuRelease             
43c0e2a1  rm_core_validate_devgrp              
43c0e309  rm_ir_get_outp                       
43c0e371  Bootloader_socCpuRequest             
43c0e3d7  CSL_emifConfig                       
43c0e43b  Sciclient_procBootSetSequenceCtrl    
43c0e4a1  clk_div_reg_get_div                  
43c0e631  rm_core_resasg_get_utype_index       
43c0e695  Sciclient_setDebugConfig             
43c0e6f7  Udma_ringQueueRaw                    
43c0e759  Utils_memcpyWord                     
43c0e7bc  HOSTclose                            
43c0e81d  Sciclient_direct_init                
43c0e87d  Sciclient_pmSetModuleState           
43c0e8dd  clk_notify_freq                      
43c0e93d  soc_device_get_state                 
43c0e99d  Bootloader_runCpu                    
43c0e9fb  ClockP_timerTickIsr                  
43c0ea59  Sciclient_procBootAuthAndStart       
43c0eab7  Sciclient_procBootReleaseProcessor   
43c0eb13  _DebugP_assert                       
43c0eb71  clk_div_reg_go_get_div               
43c0ec29  device_clk_get_hw_ready              
43c0ec85  get_freq_handler                     
43c0ed3d  soc_device_disable                   
43c0ed99  SOC_controlModuleLockMMR             
43c0edf3  Udma_ringDequeueRaw                  
43c0ee4d  Sciclient_procBootGetProcessorState  
43c0eea4  __TI_cleanup                         
43c0eefc  __TI_readmsg                         
43c0ef54  __TI_writemsg                        
43c0efa0  C$$IO$$                              
43c0efad  device_clk_set_freq_change           
43c0f005  device_clk_set_ssc                   
43c0f0b5  lib_itoa                             
43c0f10d  mmr_unlock_all                       
43c0f165  pll_init                             
43c0f214  __TI_auto_init_nobinit_nopinit       
43c0f26d  App_runCpus                          
43c0f2c3  Drivers_uartOpen                     
43c0f319  UART_dmaDisableChannel               
43c0f36f  Sciclient_pmSetModuleRst             
43c0f3c3  Sciclient_procBootRequestProcessor   
43c0f417  UART_dmaClose                        
43c0f46d  clk_div_init                         
43c0f4c0  exit                                 
43c0f514  finddevice                           
43c0f569  lpsc_module_get_local_reset          
43c0f5bd  rm_ia_is_managed_resasg_utype        
43c0f611  rm_irq_oes_src_register              
43c0f665  soc_device_enable                    
43c0f70b  Bootloader_loadCpu                   
43c0f75b  Bootloader_rprcImageParseEntryPoint  
43c0f7fb  ClockP_construct                     
43c0f84b  Sciclient_abiCheck                   
43c0f89b  Sciclient_firewallSetRegion          
43c0f8ed  Sciclient_getCurrentContext          
43c0f98d  soc_device_get_context_loss_count    
43c0f9dd  soc_device_set_resets                
43c0fa2d  Bootloader_findSeq                   
43c0fa7b  LPDDR4_ReadReg                       
43c0fb19  Sciclient_deinit                     
43c0fb65  Sciclient_getDefaultBoardCfgInfo     
43c0fbb1  Sciclient_procBootSetProcessorCfg    
43c0fc49  lpsc_module_get_reset_iso            
43c0fce1  soc_device_get_resets                
43c0fd2d  soc_device_ret_disable               
43c0fd79  soc_device_ret_enable                
43c0fdc5  LPDDR4_WritePhyIndepConfig           
43c0fe0f  Pinmux_unlockMMR                     
43c0fe59  SOC_controlModuleUnlockMMR           
43c0feed  clk_put                              
43c0ff35  get_dev_clk_data                     
43c0ff7c  unlink                               
43c0ffc5  ClockP_getTimeUsec                   
43c1000b  LPDDR4_WritePhyConfig                
43c10051  LPDDR4_WriteReg                      
43c10097  Pinmux_config                        
43c100dd  _inbyte                              
43c101f5  Sciclient_waitForBootNotification    
43c1027d  clk_get_state                        
43c10303  device_clk_disable                   
43c10345  device_clk_enable                    
43c10387  ClockP_stop                          
43c10407  LPDDR4_WriteCtlConfig                
43c10447  SemaphoreP_constructBinary           
43c10489  clk_get_parent                       
43c10509  psc_lookup_lpsc                      
43c10549  soc_device_set_reset_iso             
43c105c9  SemaphoreP_constructMutex            
43c10607  device_clk_get_num_parents           
43c106c1  Bootloader_socTranslateSectionAddr   
43c106fd  ClockP_usleep                        
43c10739  device_disable                       
43c10829  mmr_unlock                           
43c10865  soc_device_get_reset_iso             
43c108dd  Bootloader_open                      
43c10917  ClockP_destruct                      
43c10951  Dpl_init                             
43c1098b  UART_dmaOpen                         
43c109c5  boardcfg_pm_receive_and_validate     
43c10a01  Bootloader_socCpuPowerOnReset        
43c10a39  _DebugP_logZone                      
43c10a71  clk_drop_pwr_up_en                   
43c10ae1  clk_value_set_freq                   
43c10b19  device_clk_get_freq                  
43c10b51  rm_ir_init                           
43c10b89  rm_irq_is_managed_resasg_utype       
43c10bc1  Module_clockSetFrequency             
43c10bf7  _outbyte                             
43c10c2d  Bootloader_BootImageInfo_init        
43c10c61  Bootloader_socOpenFirewalls          
43c10c95  ClockP_start                         
43c10cc9  LPDDR4_EnablePIInitiator             
43c10cfd  LPDDR4_PollCtlIrq                    
43c10d31  System_init                          
43c10d99  clk_set_state                        
43c10dcd  devices_init_rw                      
43c10e34  lseek                                
43c10e69  psc_lookup                           
43c10e9d  psc_lookup_pd                        
43c10ed1  rm_init                              
43c10f04  write                                
43c10f39  Bootloader_xmodemReceive             
43c10f6b  Bootloader_xmodemTransmit            
43c10f9d  SemaphoreP_post                      
43c10fcf  UART_getHandle                       
43c11001  device_set_retention                 
43c11065  clk_get_freq                         
43c11095  clk_get_parent_freq                  
43c110c5  trace_debug_uart                     
43c110f5  Module_clockDisable                  
43c11123  Module_clockEnable                   
43c11181  Sciclient_flush                      
43c111ad  boardcfg_memcpy_rm                   
43c111d9  clk_get_div                          
43c1130d  crc16_ccitt                          
43c11391  lpsc_module_get_state                
43c113bd  query_fw_caps_handler                
43c1143d  Bootloader_socRprcToCslCoreId        
43c114b5  Udma_chGetCqRingHandle               
43c114dd  Udma_chGetFqRingHandle               
43c11504  __aeabi_llsl                         
43c11504  __ashldi3                            
43c1152c  __aeabi_llsr                         
43c1152c  __lshrdi3                            
43c11555  clk_value_get_freq                   
43c1157d  lpsc_module_idx                      
43c115cd  rm_ia_validate_vint                  
43c115f5  rm_ir_is_managed_resasg_utype        
43c1161d  rm_ir_validate_output                
43c11695  Bootloader_socIsMCUResetIsoEnabled   
43c116bb  ClockP_sleep                         
43c1179f  GTC_setFID                           
43c117c5  Sciclient_waitThread                 
43c117e8  __aeabi_uldivmod                     
43c1180d  boardcfg_get_rm_devgrp               
43c11879  device_prepare_exclusive             
43c1189d  device_suspend                       
43c118c1  dmsc_init                            
43c118e5  psc_pd_idx                           
43c11909  rm_ia_vint_get_info                  
43c1192d  rm_irq_init                          
43c11999  vprintf_                             
43c119bd  ClockP_deinit                        
43c119df  Pinmux_init                          
43c11a01  clk_ssc_allow                        
43c11a23  device_clk_set_input_term            
43c11a67  osal_delay                           
43c11acd  Bootloader_socGetCoreName            
43c11aed  DebugP_logZoneEnable                 
43c11b0d  Sciclient_query_fw_caps_handler      
43c11b2d  System_deinit                        
43c11b4d  TimerP_Params_init                   
43c11b6d  clk_ssc_block                        
43c11bcd  Drivers_close                        
43c11beb  device_resource_mem                  
43c11c27  sys_reset_handler                    
43c11c45  u32map_get                           
43c11c63  Bootloader_JumpSelfCpu               
43c11c7f  Bootloader_socCpuGetClkDefault       
43c11c9b  Bootloader_socIsAuthRequired         
43c11cd5  Sciclient_readThread32               
43c11cf1  _system_pre_init                     
43c11d29  notifier_call                        
43c11d61  sleep_modes_register                 
43c11d98  TI_memcpy_small                      
43c11db5  UART_deinit                          
43c11dcf  UART_readInterruptDma                
43c11de9  UART_writeInterruptDma               
43c11e1d  LPDDR4_Init                          
43c11e35  boardcfg_get_rm_resasg_size          
43c11e7d  dev_get_clk                          
43c11eac  TI_memset_small                      
43c11ec5  clk_div_get_freq                     
43c11ef1  device_clk_set_freq                  
43c11f09  Sciclient_readThreadCount            
43c11f1d  Sciclient_verifyThread               
43c11f31  boardcfg_get_rm_resasg               
43c11f59  device_clk_get_freq_change           
43c11f6d  device_clk_get_input_term            
43c11f81  device_clk_get_ssc                   
43c11f95  device_clk_get_sw_gated              
43c11fa9  rm_core_unmap_region                 
43c11fd1  system_reset                         
43c11fe5  CSL_emifClearECCInterruptStatus      
43c11ff7  CSL_emifEnableECCInterrupts          
43c12009  GTC_init                             
43c1201b  TimerP_clearOverflowInt              
43c1202d  Bootloader_close                     
43c1203d  Bootloader_isCorePresent             
43c1204d  ClockP_ticksToUsec                   
43c1205d  LPDDR4_Probe                         
43c1206d  Sciclient_threadStatusReg            
43c1208c  __aeabi_memset                       
43c1208c  __aeabi_memset4                      
43c1208c  __aeabi_memset8                      
43c1209d  device_clk_query_freq                
43c120bd  pm_devgroup_is_enabled               
43c120cd  pm_devgroup_set_enabled              
43c120dc  putchar                              
43c120ed  rm_core_map_region                   
43c120fd  Bootloader_socCpuSetEntryPoint       
43c1210b  Dpl_deinit                           
43c12119  GTC_enable                           
43c12127  PowerClock_init                      
43c12135  Bootloader_Params_init               
43c12141  Bootloader_socSelfCPUjump            
43c1214d  ClockP_getTicks                      
43c12159  DDR_ResetDDR_PLL                     
43c12164  __aeabi_memclr                       
43c12164  __aeabi_memclr4                      
43c12164  __aeabi_memclr8                      
43c12171  device_prepare_nonexclusive          
43c1217c  malloc                               
43c12189  sys_reset_handler_register           
43c12195  trace_reconfigure                    
43c121ad  Bootloader_socGetSBLMem              
43c121b7  Bootloader_socIsSmpEnable            
43c121c1  CSL_secProxyGetDataAddr              
43c121cb  ClockP_Params_init                   
43c121d5  ClockP_isActive                      
43c121df  TimerP_start                         
43c121e9  TimerP_stop                          
43c121f3  clk_notify_children_freq             
43c12239  SOC_moduleGetClockFrequency          
43c12249  clk_freq_change_allow                
43c12251  clk_freq_change_block                
43c12259  lpsc_module_get                      
43c12261  lpsc_module_get_module_reset         
43c12269  lpsc_module_put                      
43c12271  lpsc_module_ret_get                  
43c12279  lpsc_module_ret_put                  
43c12281  rm_core_param_is_valid               
43c12288  C$$EXIT                              
43c12288  abort                                
43c12297  CPS_UncachedRead32                   
43c1229b  CPS_UncachedWrite32                  
43c1229f  ClockP_getTimerCount                 
43c122a3  ClockP_timerClearOverflowInt         
43c122a7  Drivers_open                         
43c122b3  PowerClock_deinit                    
43c122b7  TimerP_getCount                      
43c122bb  TimerP_getReloadCount                
43c122bf  Udma_defaultVirtToPhyFxn             
43c122c4  __aeabi_memcpy                       
43c122c4  __aeabi_memcpy4                      
43c122c4  __aeabi_memcpy8                      
43c122c8  _nop                                 
43c122d0  __aeabi_ldiv0                        
43c122e5  device_clk_get_hw_ssc                
43c122e8  fseek                                
43c122f1  putchar_                             
43c122f4  remove                               
43c122f9  rm_udmap_flow_size_thresh_cfg        
43c122fd  soc_device_init_complete             
43c12301  trace_debug                          
43c13bb1  HwiP_enableInt                       
43c13bd9  HwiP_disableInt                      
43c13c0b  HwiP_restoreInt                      
43c13c61  HwiP_clearInt                        
43c13c81  HwiP_post                            
43c13ca9  HwiP_Params_init                     
43c13cbb  HwiP_construct                       
43c13e05  HwiP_destruct                        
43c13ed7  HwiP_init                            
43c13fa7  HwiP_inISR                           
43c13fb9  HwiP_irq_handler_c                   
43c1403f  HwiP_fiq_handler                     
43c140f3  HwiP_reserved_handler                
43c14121  HwiP_undefined_handler               
43c1414f  HwiP_svc_handler                     
43c1417d  HwiP_prefetch_abort_handler          
43c141ab  HwiP_data_abort_handler              
43c141d8  HwiP_irq_handler                     
43c14250  HwiP_disable                         
43c14260  HwiP_disableFIQ                      
43c14270  HwiP_enable                          
43c14280  HwiP_enableFIQ                       
43c14290  HwiP_restore                         
43c14298  HwiP_enableVIC                       
43c142a8  HwiP_disableVIC                      
43c142b8  HwiP_getCPSR                         
43c142c8  CacheP_disableL1d                    
43c142f0  CacheP_disableL1p                    
43c14308  CacheP_enableL1d                     
43c14320  CacheP_enableL1p                     
43c14338  CacheP_invL1d                        
43c14370  CacheP_invL1p                        
43c143ac  CacheP_invL1dAll                     
43c143b4  CacheP_invL1pAll                     
43c143bc  CacheP_wb                            
43c143f8  CacheP_wbInv                         
43c14434  CacheP_wbAll                         
43c144dc  CacheP_wbInvAll                      
43c144f4  CacheP_wbInvAllAsm                   
43c14594  CacheP_getEnabled                    
43c145cc  CacheP_getCacheLevelInfo             
43c145d8  CacheP_configForceWrThru             
43c145f8  CacheP_setDLFO                       
43c14609  CacheP_init                          
43c14661  CacheP_disable                       
43c1469b  CacheP_enable                        
43c146bb  CacheP_inv                           
43c146f9  MpuP_RegionAttrs_init                
43c14707  MpuP_setRegion                       
43c147b5  MpuP_isEnable                        
43c147b9  MpuP_disable                         
43c147eb  MpuP_enable                          
43c14829  MpuP_resetRegion                     
43c14833  MpuP_init                            
43c148b0  MpuP_disableAsm                      
43c148c8  MpuP_disableBRAsm                    
43c148d8  MpuP_enableAsm                       
43c148f0  MpuP_enableBRAsm                     
43c14900  MpuP_isEnableAsm                     
43c14914  MpuP_setRegionAsm                    
43c14940  _c_int00_sbl                         
43c14964  _c_int00                             
43c14a3d  _DebugP_assertNoLog                  
43c14a5b  __mpu_init                           
43c14a68  DDRSS_phyReg                         
43c14a68  gUartDmaConfig                       
43c163e0  DDRSS_ctlReg                         
43c16aac  DDRSS_phyIndepReg                    
43c1714c  DDRSS_phyRegNum                      
43c177c2  DDRSS_ctlRegNum                      
43c17b28  DDRSS_phyIndepRegNum                 
43c17e78  resasg_indexer                       
43c180b4  ra_inst                              
43c18254  udmap_inst                           
43c183bc  _ftable                              
43c184ac  gAddrTranslateInfo                   
43c1858c  gCoreBootInfo                        
43c1864c  ia_inst                              
43c187a0  gMpuRegionConfig                     
43c18830  _device                              
43c188a8  ir_inst                              
43c1891c  gSciclientHandle                     
43c18978  gUartParams                          
43c189cc  _stream                              
43c18a64  __TI_ft_end                          
43c18aa0  gBootloaderConfig                    
43c18ac0  gBootloaderUdmaArgs                  
43c18ae0  gMemBootloaderConfig                 
43c18b00  gSciclientRomSecProxyCfg             
43c18b20  gSciclient_secProxyCfg               
43c18b40  gBootloaderMemFxns                   
43c18b58  gClockConfig                         
43c18b88  gSocModulesClockFrequency            
43c18bb8  gResMemSection                       
43c18bdc  gBootloader0Args                     
43c18bec  gMemBootloaderArgs                   
43c18bfc  gSocModules                          
43c18c0c  _lock                                
43c18c10  gAddrTranslateConfig                 
43c18c1c  gMpuConfig                           
43c18c28  gUartConfig                          
43c18c34  __TI_cleanup_ptr                     
43c18c38  __TI_dtors_ptr                       
43c18c4c  gCacheConfig                         
43c18c54  _unlock                              
43c18c98  socCpuCores                          
43c18ca0  gBootloaderConfigNum                 
43c18ca4  gDebugLogZone                        
43c18ca8  gEndOfFilesTransferWord              
43c18cac  gHwiConfig                           
43c18cb0  gUartConfigNum                       
43c18cb4  gUartDmaConfigNum                    
43c18cb8  operatingMode                        
43c18cbc  pSciclient_secProxyCfg               
43c18ccc  selfcoreEntry                        
43c18cf0  soc_clock_data                       
43c19d30  soc_device_data_arr                  
43c1a2c4  soc_pll_table                        
43c1a5a6  soc_host_indexes                     
43c1a6a4  gSciclientMap                        
43c1a810  soc_clock_freq_defaults              
43c1a955  soc_host_indexes_sz                  
43c1aa58  gSOC_r5fVectors                      
43c1aaa0  soc_devgroups                        
43c1abf4  ia_soc_pe_init_list                  
43c1ac68  irq_global_event_types               
43c1b244  soc_clock_ranges                     
43c1b2bc  clk_drv_div_pll_16fft_hsdiv          
43c1b2e0  clk_drv_div_pll_16fft_postdiv        
43c1b304  clk_drv_div_reg                      
43c1b328  clk_drv_div_reg_go                   
43c1b4a0  clk_drv_mux_reg                      
43c1b4c0  clk_drv_pllctrl_mux_reg_ro           
43c1b500  soc_fw_caps                          
43c1b760  clk_drv_fixed                        
43c1b778  clk_drv_from_device                  
43c1b790  clk_drv_pll_16fft                    
43c1b7a8  clk_drv_soc_hfosc0                   
43c1b7c0  clk_drv_soc_lfosc0                   
43c1c2d0  psc_drv                              
43c1c6c4  gcSciclientDirectExtBootX509MagicWord
43c1c6d4  evt_rt_srcs                          
43c1c940  evt_rt_srcs_count                    
43c1c944  gCacheL1dCacheLineSize               
43c1c948  gCacheL1pCacheLineSize               
43c1c970  ra_inst_count                        
43c1c974  soc_clock_count                      
43c1c978  soc_devgroup_count                   
43c1c97c  soc_device_count                     
43c1c980  soc_psc_multiple_domains             
43c1c990  udmap_inst_count                     
43c1ca00  gSciclient_boardCfgLow               
43c1ca80  gSciclient_boardCfgLow_rm            
43c1d780  gSciclient_boardCfgLow_sec           
43c1d900  gSciclient_boardCfgLow_pm            
43c1d980  _sys_memory                          
43c25980  __stack                              
43c29980  __BSS_START                          
43c29980  __STACK_END                          
43c29980  gHwiCtrl                             
43c2b430  soc_clocks                           
43c2b840  soc_devices                          
43c2be54  soc_clock_values                     
43c2c158  _CIOBUF_                             
43c2c158  __CIOBUF_                            
43c2c330  __TI_tmpnams                         
43c2c3d0  bootCpuInfo                          
43c2c470  _freertosresetvectors                
43c2c4b0  gClockCtrl                           
43c2c50c  parmbuf                              
43c2c538  bootHandle                           
43c2c53c  gUartHandle                          
43c2c548  __BSS_END                            
43c2c548  __IRQ_STACK_START                    
43c2d548  __FIQ_STACK_START                    
43c2d548  __IRQ_STACK_END                      
43c2d648  __FIQ_STACK_END                      
43c2d648  __SVC_STACK_START                    
43c2d748  __ABORT_STACK_START                  
43c2d748  __SVC_STACK_END                      
43c2d848  __ABORT_STACK_END                    
43c2d848  __UNDEFINED_STACK_START              
43c2d948  __UNDEFINED_STACK_END                
84000000  gAppImageBuf                         
ffffffff  __TI_pprof_out_hndl                  
ffffffff  __TI_prof_data_size                  
ffffffff  __TI_prof_data_start                 
ffffffff  __binit__                            
ffffffff  binit                                
UNDEFED   __TI_CINIT_Base                      
UNDEFED   __TI_CINIT_Limit                     
UNDEFED   __TI_Handler_Table_Base              
UNDEFED   __TI_Handler_Table_Limit             
UNDEFED   _system_post_cinit                   

[646 symbols]
