******************************************************************************
            TI ARM Clang Linker Unix v3.2.2                    
******************************************************************************
>> Linked Thu Jun  6 11:05:15 2024

OUTPUT FILE NAME:   <sbl_dfu.release.out>
ENTRY POINT SYMBOL: "_vectors_sbl"  address: 70000000


MEMORY CONFIGURATION

         name            origin    length      used     unused   attr    fill
----------------------  --------  ---------  --------  --------  ----  --------
  R5F_VECS              00000000   00000040  00000000  00000040  RWIX
  R5F_TCMA              00000040   00007fc0  00000000  00007fc0  RWIX
  R5F_TCMB0             41010000   00008000  00000000  00008000  RWIX
  MSRAM_VECS            70000000   00000100  00000040  000000c0  RWIX
  MSRAM_0               70000100   0004ff00  00011648  0003e8b8  RWIX
  NON_CACHE_MEM         70050000   00008000  00007590  00000a70  RWIX
  MSRAM_1               70058000   00028000  0000762c  000209d4  RWIX
  MSRAM_2               70180000   00060000  00060000  00000000  RWIX


SEGMENT ALLOCATION MAP

run origin  load origin   length   init length attrs members
----------  ----------- ---------- ----------- ----- -------
70000000    70000000    00000040   00000040    r-x
  70000000    70000000    00000040   00000040    r-x .vectors
70000100    70000100    0000f700   0000f700    r-x
  70000100    70000100    0000e830   0000e830    r-x .text
  7000e930    7000e930    00000760   00000760    r-x .text.hwi
  7000f090    7000f090    00000430   00000430    r-x .text.cache
  7000f4c0    7000f4c0    00000218   00000218    r-x .text.mpu
  7000f6d8    7000f6d8    00000128   00000128    r-x .text.boot
7000f800    7000f800    000006e0   000006e0    rw-
  7000f800    7000f800    000006e0   000006e0    rw- .data
7000fee0    7000fee0    00001868   00001868    r--
  7000fee0    7000fee0    00001868   00001868    r-- .rodata
70058000    70058000    0000622c   00000000    rw-
  70058000    70058000    00004000   00000000    rw- .stack
  7005c000    7005c000    00002020   00000000    rw- .bss
  7005e020    7005e020    0000020c   00000000    rw- .bss._dfu_ctx
7005e230    7005e230    00001400   00000000    r--
  7005e230    7005e230    00001000   00000000    r-- .irqstack
  7005f230    7005f230    00000100   00000000    r-- .fiqstack
  7005f330    7005f330    00000100   00000000    r-- .svcstack
  7005f430    7005f430    00000100   00000000    r-- .abortstack
  7005f530    7005f530    00000100   00000000    r-- .undefinedstack


SECTION ALLOCATION MAP

 output                                  attributes/
section   page    origin      length       input sections
--------  ----  ----------  ----------   ----------------
.vectors   0    70000000    00000040     
                  70000000    00000040     nortos.am64x.r5f.ti-arm-clang.release.lib : HwiP_armv7r_vectors_nortos_sbl_asm.obj (.vectors)

.text      0    70000100    0000e830     
                  70000100    000006f2     usbd_tusb_dfu_nortos.am64x.r5f.ti-arm-clang.release.lib : usbd.obj (.text.tud_task_ext)
                  700007f2    00000620     drivers.am64x.r5f.ti-arm-clang.release.lib : sciclient_rm_irq.obj (.text.Sciclient_rmIrqFindRoute)
                  70000e12    00000002     ti_dpl_config.obj (.text.Dpl_deinit)
                  70000e14    00000598     nortos.am64x.r5f.ti-arm-clang.release.lib : printf.obj (.text._vsnprintf)
                  700013ac    00000522     drivers.am64x.r5f.ti-arm-clang.release.lib : udma_ch.obj (.text.Udma_chDisable)
                  700018ce    000004e2     usbd_cdn_nortos.am64x.r5f.ti-arm-clang.release.lib : cusbd.obj (.text.cusbd_dsr)
                  70001db0    0000045e     drivers.am64x.r5f.ti-arm-clang.release.lib : udma_event.obj (.text.Udma_eventRegister)
                  7000220e    000003a4                                                : udma_ch.obj (.text.Udma_chOpen)
                  700025b2    00000006                                                : csl_pktdma.obj (.text.CSL_pktdmaTeardownRxChan)
                  700025b8    00000398     nortos.am64x.r5f.ti-arm-clang.release.lib : printf.obj (.text._ftoa)
                  70002950    00000390     drivers.am64x.r5f.ti-arm-clang.release.lib : uart_v0.obj (.text.UART_open)
                  70002ce0    0000037c                                                : sciclient.obj (.text.Sciclient_service)
                  7000305c    00000314     usbd_cdn_nortos.am64x.r5f.ti-arm-clang.release.lib : cusbd.obj (.text.CUSBD_Init)
                  70003370    00000310     nortos.am64x.r5f.ti-arm-clang.release.lib : printf.obj (.text._etoa)
                  70003680    000002d4     main.obj (.text.main)
                  70003954    0000028c     drivers.am64x.r5f.ti-arm-clang.release.lib : sciclient_rm_irq.obj (.text.Sciclient_rmIrqGetRoute)
                  70003be0    00000280                                                : uart_v0_lld.obj (.text.UART_configInstance)
                  70003e60    0000021e                                                : bootloader_soc.obj (.text.Bootloader_socCpuResetRelease)
                  7000407e    00000002                                                : bootloader_mem.obj (.text.Mem_imgClose)
                  70004080    0000020e                                                : bootloader_soc.obj (.text.Bootloader_socCpuPowerOnResetR5f)
                  7000428e    00000002     nortos.am64x.r5f.ti-arm-clang.release.lib : SemaphoreP_nortos.obj (.text.SemaphoreP_destruct)
                  70004290    0000020a     drivers.am64x.r5f.ti-arm-clang.release.lib : udma_event.obj (.text.Udma_eventUnRegister)
                  7000449a    00000206                                                : uart_v0_lld.obj (.text.UART_lld_controllerIsr)
                  700046a0    00000202                                                : sciclient_rm_irq.obj (.text.Sciclient_rmProgramInterruptRoute)
                  700048a2    00000002     nortos.am64x.r5f.ti-arm-clang.release.lib : TaskP_nortos.obj (.text.TaskP_yield)
                  700048a4    000001f6     usbd_tusb_dfu_nortos.am64x.r5f.ti-arm-clang.release.lib : dfu_device.obj (.text.dfu_moded_control_xfer_cb)
                  70004a9a    00000002     drivers.am64x.r5f.ti-arm-clang.release.lib : uart_v0.obj (.text.UART_lld_errorCallback)
                  70004a9c    000001ea                                                : bootloader.obj (.text.Bootloader_verifyMulticoreImage)
                  70004c86    000001e2     usbd_cdn_nortos.am64x.r5f.ti-arm-clang.release.lib : cusbd.obj (.text.CUSBD_EpEnable)
                  70004e68    000001ce                                                        : cusbd.obj (.text.GetEPSelConfigValue)
                  70005036    00000002     drivers.am64x.r5f.ti-arm-clang.release.lib : udma_rm.obj (.text.Udma_rmFreeFreeRing)
                  70005038    000001ca                                                : csl_bcdma.obj (.text.CSL_bcdmaChanOp)
                  70005202    000001c4                                                : uart_dma_udma.obj (.text.UART_lld_dmaInit)
                  700053c6    000001c0     nortos.am64x.r5f.ti-arm-clang.release.lib : TimerP.obj (.text.TimerP_setup)
                  70005586    000001ba     usbd_tusb_dfu_nortos.am64x.r5f.ti-arm-clang.release.lib : dcd.obj (.text.dcd_edpt_xfer)
                  70005740    000001b0     drivers.am64x.r5f.ti-arm-clang.release.lib : sciclient_rm_irq.obj (.text.Sciclient_rmClearInterruptRoute)
                  700058f0    000001ac     usbd_cdn_nortos.am64x.r5f.ti-arm-clang.release.lib : cusbd.obj (.text.cusbdmaProcessDataXferInt)
                  70005a9c    00000198     drivers.am64x.r5f.ti-arm-clang.release.lib : uart_v0_lld.obj (.text.UART_lld_initDma)
                  70005c34    00000190                                                : udma_ring_common.obj (.text.Udma_ringAlloc)
                  70005dc4    00000182                                                : uart_v0_lld.obj (.text.UART_lld_init)
                  70005f46    00000176     usbd_cdn_nortos.am64x.r5f.ti-arm-clang.release.lib : cusbd.obj (.text.CUSBD_Isr)
                  700060bc    00000174     drivers.am64x.r5f.ti-arm-clang.release.lib : bootloader_soc.obj (.text.Bootloader_socCpuResetReleaseSelf)
                  70006230    0000016e     usbd_tusb_dfu_nortos.am64x.r5f.ti-arm-clang.release.lib : usbd.obj (.text.dcd_event_handler)
                  7000639e    00000152     nortos.am64x.r5f.ti-arm-clang.release.lib : printf.obj (.text._ntoa_format)
                  700064f0    00000150     drivers.am64x.r5f.ti-arm-clang.release.lib : bootloader_profile.obj (.text.Bootloader_profilePrintProfileLog)
                  70006640    00000148                                                : csl_bcdma.obj (.text.CSL_bcdmaChanOpCfgChan)
                  70006788    00000146     usbd_cdn_nortos.am64x.r5f.ti-arm-clang.release.lib : cusbd.obj (.text.CUSBD_ReqQueue)
                  700068ce    00000144     drivers.am64x.r5f.ti-arm-clang.release.lib : uart_v0.obj (.text.UART_close)
                  70006a12    00000142                                                : uart_v0_lld.obj (.text.UART_lld_write)
                  70006b54    00000140                                                : sciclient_rm_irq.obj (.text.Sciclient_rmIrqProgramRoute)
                  70006c94    0000013c                                                : udma_ch.obj (.text.Udma_chConfigRx)
                  70006dd0    0000013c     usbd_cdn_nortos.am64x.r5f.ti-arm-clang.release.lib : cusbdma.obj (.text.channelUpdateState)
                  70006f0c    00000134     drivers.am64x.r5f.ti-arm-clang.release.lib : sciclient_rm_irq.obj (.text.Sciclient_rmIrqDeleteRoute)
                  70007040    00000132     usbd_cdn_nortos.am64x.r5f.ti-arm-clang.release.lib : cusbdma.obj (.text.CUSBDMA_ChannelProgram)
                  70007172    00000132     drivers.am64x.r5f.ti-arm-clang.release.lib : soc.obj (.text.SOC_moduleSetClockFrequency)
                  700072a4    00000132     usbd_tusb_dfu_nortos.am64x.r5f.ti-arm-clang.release.lib : usb_wrapper.obj (.text.usbDeviceInit)
                  700073d6    0000012c     usbd_cdn_nortos.am64x.r5f.ti-arm-clang.release.lib : cusbdma.obj (.text.CUSBDMA_ChannelAlloc)
                  70007502    00000002     nortos.am64x.r5f.ti-arm-clang.release.lib : printf.obj (.text._out_null)
                  70007504    00000118     libclang_rt.builtins.a : udivmoddi4.S.obj (.text)
                  7000761c    00000116     usbd_cdn_nortos.am64x.r5f.ti-arm-clang.release.lib : cusbdma.obj (.text.CUSBDMA_ChannelRelease)
                  70007732    00000112     drivers.am64x.r5f.ti-arm-clang.release.lib : bootloader_soc.obj (.text.Bootloader_socCpuPowerOnResetM4f)
                  70007844    00000102     nortos.am64x.r5f.ti-arm-clang.release.lib : ClockP_nortos_r5.obj (.text.ClockP_init)
                  70007946    000000fc     usbd_cdn_nortos.am64x.r5f.ti-arm-clang.release.lib : cusbd.obj (.text.cusbdAuxBufferDequeue)
                  70007a42    000000fa     drivers.am64x.r5f.ti-arm-clang.release.lib : udma_flow.obj (.text.Udma_flowConfig)
                  70007b3c    000000f6                                                : udma_ch.obj (.text.Udma_chEnable)
                  70007c32    000000f4                                                : uart_v0.obj (.text.UART_write)
                  70007d26    000000f0                                                : udma_ch.obj (.text.Udma_chFreeResource)
                  70007e16    000000de     usbd_cdn_nortos.am64x.r5f.ti-arm-clang.release.lib : cusbd.obj (.text.handleEp0Irq)
                  70007ef4    000000da     drivers.am64x.r5f.ti-arm-clang.release.lib : udma_ch.obj (.text.Udma_chConfigTx)
                  70007fce    000000d4                                                : bootloader.obj (.text.Bootloader_rprcImageLoad)
                  700080a2    000000ce     usbd_cdn_nortos.am64x.r5f.ti-arm-clang.release.lib : cusbd.obj (.text.handleSwEpOutReq)
                  70008170    000000cc                                                        : cusbdma.obj (.text.channelTrigger)
                  7000823c    000000cc     usbd_tusb_dfu_nortos.am64x.r5f.ti-arm-clang.release.lib : usbd_control.obj (.text.usbd_control_xfer_cb)
                  70008308    000000c8     drivers.am64x.r5f.ti-arm-clang.release.lib : bootloader.obj (.text.Bootloader_parseMultiCoreAppImage)
                  700083d0    000000c2     usbd_tusb_dfu_nortos.am64x.r5f.ti-arm-clang.release.lib : usbd.obj (.text.tud_init)
                  70008492    000000c0     drivers.am64x.r5f.ti-arm-clang.release.lib : uart_dma_udma.obj (.text.UART_lld_dmaWrite)
                  70008552    000000be     usbd_cdn_nortos.am64x.r5f.ti-arm-clang.release.lib : cusbdma.obj (.text.programTRBs)
                  70008610    000000ba     drivers.am64x.r5f.ti-arm-clang.release.lib : bootloader.obj (.text.Bootloader_loadSelfCpu)
                  700086ca    000000ba                                                : csl_bcdma.obj (.text.CSL_bcdmaChanOpTeardownChan)
                  70008784    000000b8                                                : uart_v0_lld.obj (.text.UART_divisorLatchWrite)
                  7000883c    000000b2     usbd_cdn_nortos.am64x.r5f.ti-arm-clang.release.lib : cusbd.obj (.text.ep0transfer)
                  700088ee    000000b0     nortos.am64x.r5f.ti-arm-clang.release.lib : printf.obj (.text._ntoa_long_long)
                  7000899e    000000aa     drivers.am64x.r5f.ti-arm-clang.release.lib : sciclient_rm_irq.obj (.text.Sciclient_rmIaValidateMapping)
                  70008a48    000000aa                                                : uart_v0_lld.obj (.text.UART_procLineStatusErr)
                  70008af2    000000aa                                                : udma_rm.obj (.text.Udma_rmAllocMappedRxCh)
                  70008b9c    000000aa                                                : udma_rm.obj (.text.Udma_rmAllocMappedTxCh)
                  70008c46    000000a8     usbd_cdn_nortos.am64x.r5f.ti-arm-clang.release.lib : cusbd.obj (.text.CUSBD_EpSetHalt)
                  70008cee    000000a6     drivers.am64x.r5f.ti-arm-clang.release.lib : udma_ch.obj (.text.Udma_chConfigPdma)
                  70008d94    000000a6     nortos.am64x.r5f.ti-arm-clang.release.lib : printf.obj (.text._out_rev)
                  70008e3a    000000a4     drivers.am64x.r5f.ti-arm-clang.release.lib : sciclient_pm.obj (.text.Sciclient_pmQueryModuleClkFreq)
                  70008ede    000000a2                                                : sciclient_rm_irq.obj (.text.Sciclient_rmIrInpIsFree)
                  70008f80    000000a0                                                : bootloader.obj (.text.Bootloader_getMsgLen)
                  70009020    000000a0                                                : udma_rm.obj (.text.Udma_rmAllocBlkCopyCh)
                  700090c0    000000a0                                                : udma_rm.obj (.text.Udma_rmAllocBlkCopyHcCh)
                  70009160    000000a0                                                : udma_rm.obj (.text.Udma_rmAllocBlkCopyUhcCh)
                  70009200    000000a0                                                : udma_rm.obj (.text.Udma_rmAllocIrIntr)
                  700092a0    000000a0                                                : udma_rm.obj (.text.Udma_rmAllocRxCh)
                  70009340    000000a0                                                : udma_rm.obj (.text.Udma_rmAllocRxHcCh)
                  700093e0    000000a0                                                : udma_rm.obj (.text.Udma_rmAllocRxUhcCh)
                  70009480    000000a0                                                : udma_rm.obj (.text.Udma_rmAllocTxCh)
                  70009520    000000a0                                                : udma_rm.obj (.text.Udma_rmAllocTxHcCh)
                  700095c0    000000a0                                                : udma_rm.obj (.text.Udma_rmAllocTxUhcCh)
                  70009660    0000009e     usbd_cdn_nortos.am64x.r5f.ti-arm-clang.release.lib : cusbd.obj (.text.CUSBD_EpDisable)
                  700096fe    0000009e     drivers.am64x.r5f.ti-arm-clang.release.lib : uart_v0.obj (.text.UART_flushTxFifo)
                  7000979c    0000009a     usbd_cdn_nortos.am64x.r5f.ti-arm-clang.release.lib : cusbdma.obj (.text.CUSBDMA_ChannelHandleStall)
                  70009836    0000009a                                                        : cusbdma.obj (.text.CUSBDMA_Init)
                  700098d0    0000009a     drivers.am64x.r5f.ti-arm-clang.release.lib : sciclient.obj (.text.Sciclient_init)
                  7000996a    0000009a                                                : sciclient.obj (.text.Sciclient_sendMessage)
                  70009a04    0000009a                                                : uart_dma_udma.obj (.text.UART_udmaDeInitCh)
                  70009a9e    00000096     nortos.am64x.r5f.ti-arm-clang.release.lib : SemaphoreP_nortos.obj (.text.SemaphoreP_pend)
                  70009b34    00000094     usbd_cdn_nortos.am64x.r5f.ti-arm-clang.release.lib : cusbd_sanity.obj (.text.CUSBD_PrivateDataSF)
                  70009bc8    00000094     drivers.am64x.r5f.ti-arm-clang.release.lib : uart_v0.obj (.text.UART_init)
                  70009c5c    00000094                                                : udma_rm.obj (.text.Udma_rmAllocMappedRing)
                  70009cf0    00000092                                                : sciclient_pm.obj (.text.Sciclient_pmSetModuleClkFreq)
                  70009d82    00000092                                                : udma_ch.obj (.text.Udma_chClose)
                  70009e14    00000092                                                : udma_event.obj (.text.Udma_eventFreeResource)
                  70009ea6    00000090                                                : bootloader_soc.obj (.text.Bootloader_socCpuSetEntryPoint)
                  70009f36    0000008e                                                : csl_pktdma.obj (.text.CSL_pktdmaTeardownChan)
                  70009fc4    0000008e     usbd_cdn_nortos.am64x.r5f.ti-arm-clang.release.lib : cusbdma.obj (.text.CUSBDMA_ChannelReset)
                  7000a052    0000008c     nortos.am64x.r5f.ti-arm-clang.release.lib : printf.obj (.text._ntoa_long)
                  7000a0de    0000008c     usbd_tusb_dfu_nortos.am64x.r5f.ti-arm-clang.release.lib : dfu_device.obj (.text.process_download_get_status)
                  7000a16a    0000008a     drivers.am64x.r5f.ti-arm-clang.release.lib : udma_event.obj (.text.Udma_eventIsrFxn)
                  7000a1f4    00000088     usbd_cdn_nortos.am64x.r5f.ti-arm-clang.release.lib : cusbd.obj (.text.initDevHw)
                  7000a27c    00000086     drivers.am64x.r5f.ti-arm-clang.release.lib : uart_v0_lld.obj (.text.UART_lld_writeIntr)
                  7000a302    00000086     usbd_cdn_nortos.am64x.r5f.ti-arm-clang.release.lib : cusbd.obj (.text.initSwEp)
                  7000a388    00000086     usbd_tusb_dfu_nortos.am64x.r5f.ti-arm-clang.release.lib : dfu_device.obj (.text.process_manifest_get_status)
                  7000a40e    00000084     dfu_descriptors.obj (.text.tud_descriptor_string_cb)
                  7000a492    00000082     usbd_tusb_dfu_nortos.am64x.r5f.ti-arm-clang.release.lib : usbd.obj (.text.configuration_reset)
                  7000a514    00000080     drivers.am64x.r5f.ti-arm-clang.release.lib : sciclient_boardcfg.obj (.text.Sciclient_boardCfgPm)
                  7000a594    00000080     usbd_cdn_nortos.am64x.r5f.ti-arm-clang.release.lib : cusbdma.obj (.text.allocTRBChainDesc)
                  7000a614    0000007e     drivers.am64x.r5f.ti-arm-clang.release.lib : bootloader_soc.obj (.text.Bootloader_socOpenFirewalls)
                  7000a692    0000007c                                                : pinmux.obj (.text.Pinmux_config)
                  7000a70e    0000007c                                                : sciclient_procboot.obj (.text.Sciclient_procBootWaitProcessorState)
                  7000a78a    0000007c                                                : sciclient_rm_irq.obj (.text.Sciclient_rmIrOutpIsFree)
                  7000a806    0000007c                                                : sciclient_rm_irq.obj (.text.Sciclient_rmIrqGetNode)
                  7000a882    0000007a                                                : sciclient_pm.obj (.text.Sciclient_pmGetModuleClkNumParent)
                  7000a8fc    00000078                                                : bootloader_soc.obj (.text.Bootloader_socCpuSetClock)
                  7000a974    00000078                                                : bootloader_soc.obj (.text.Bootloader_socOpenFirewallRegion)
                  7000a9ec    00000076                                                : uart_v0_lld.obj (.text.UART_lld_writeDma)
                  7000aa62    00000072                                                : bootloader_soc.obj (.text.Bootloader_socCpuPowerOnResetA53)
                  7000aad4    00000072                                                : csl_pktdma.obj (.text.CSL_pktdmaAccessChanPeerReg)
                  7000ab46    00000072                                                : udma_rm.obj (.text.Udma_rmAllocVintrBit)
                  7000abb8    00000070                                                : bootloader_soc.obj (.text.Bootloader_socMemInitCpu)
                  7000ac28    00000070     usbd_tusb_dfu_nortos.am64x.r5f.ti-arm-clang.release.lib : usb_wrapper.obj (.text.usbSetupDeviceMode)
                  7000ac98    0000006e     usbd_cdn_nortos.am64x.r5f.ti-arm-clang.release.lib : cdn_osal_none.obj (.text.OsalNoRtosQueue_enqueue)
                  7000ad06    0000006e     drivers.am64x.r5f.ti-arm-clang.release.lib : soc.obj (.text.SOC_moduleClockEnable)
                  7000ad74    0000006e                                                : sciclient_pm.obj (.text.Sciclient_pmGetModuleState)
                  7000ade2    0000006c     usbd_cdn_nortos.am64x.r5f.ti-arm-clang.release.lib : cdn_osal_none.obj (.text.OsalNoRtosQueue_dequeue)
                  7000ae4e    0000006c     drivers.am64x.r5f.ti-arm-clang.release.lib : soc.obj (.text.SOC_isR5FDualCoreMode)
                  7000aeba    0000006a                                                : uart_dma_udma.obj (.text.UART_udmaHpdInit)
                  7000af24    00000068     nortos.am64x.r5f.ti-arm-clang.release.lib : AddrTranslateP.obj (.text.AddrTranslateP_getLocalAddr)
                  7000af8c    00000068     drivers.am64x.r5f.ti-arm-clang.release.lib : bootloader_soc.obj (.text.Bootloader_socCpuRelease)
                  7000aff4    00000066                                                : bootloader_soc.obj (.text.Bootloader_socCpuRequest)
                  7000b05a    00000066                                                : sciclient_pm.obj (.text.Sciclient_pmGetModuleClkFreq)
                  7000b0c0    00000066                                                : sciclient_pm.obj (.text.Sciclient_pmGetModuleClkParent)
                  7000b126    00000064                                                : bootloader_soc.obj (.text.Bootloader_socCpuGetClock)
                  7000b18a    00000064                                                : csl_bcdma.obj (.text.CSL_bcdmaDoChanOp)
                  7000b1ee    00000064                                                : sciclient_pm.obj (.text.Sciclient_pmModuleGetClkStatus)
                  7000b252    00000064                                                : uart_v0_lld.obj (.text.UART_writeCancelNoCB)
                  7000b2b6    00000062                                                : sciclient.obj (.text.Sciclient_waitForBootNotification)
                  7000b318    00000062                                                : udma_ring_common.obj (.text.Udma_ringFree)
                  7000b37a    00000062                                                : udma_ring_common.obj (.text.Udma_ringQueueRaw)
                  7000b3dc    00000062     usbd_cdn_nortos.am64x.r5f.ti-arm-clang.release.lib : usbss_functions.obj (.text.usbss_reset_release)
                  7000b43e    00000060     drivers.am64x.r5f.ti-arm-clang.release.lib : uart_v0_lld.obj (.text.UART_intrDisable)
                  7000b49e    00000060                                                : udma_rm.obj (.text.Udma_rmFreeMappedRing)
                  7000b4fe    00000060     usbd_tusb_dfu_nortos.am64x.r5f.ti-arm-clang.release.lib : dfu_device.obj (.text.dfu_moded_open)
                  7000b55e    00000060     nortos.am64x.r5f.ti-arm-clang.release.lib : PmuP_armv7r.obj (.text.pmu)
                  7000b5be    0000005e     drivers.am64x.r5f.ti-arm-clang.release.lib : bootloader.obj (.text.Bootloader_runCpu)
                  7000b61c    0000005e     nortos.am64x.r5f.ti-arm-clang.release.lib : ClockP_nortos.obj (.text.ClockP_timerTickIsr)
                  7000b67a    0000005e     drivers.am64x.r5f.ti-arm-clang.release.lib : sciclient_pm.obj (.text.Sciclient_pmModuleClkRequest)
                  7000b6d8    0000005e                                                : sciclient_pm.obj (.text.Sciclient_pmSetModuleClkParent)
                  7000b736    0000005e                                                : uart_dma_udma.obj (.text.UART_lld_dmaDisableChannel)
                  7000b794    0000005e     usbd_tusb_dfu_nortos.am64x.r5f.ti-arm-clang.release.lib : usbd_control.obj (.text.tud_control_xfer)
                  7000b7f2    0000005c     drivers.am64x.r5f.ti-arm-clang.release.lib : csl_bcdma.obj (.text.CSL_bcdmaChanOpGetChanStats)
                  7000b84e    0000005c                                                : csl_bcdma.obj (.text.CSL_bcdmaChanOpSetChanPause)
                  7000b8aa    0000005c                                                : sciclient_procboot.obj (.text.Sciclient_procBootSetSequenceCtrl)
                  7000b906    0000005c                                                : uart_dma_udma.obj (.text.UART_udmaIsrRx)
                  7000b962    0000005c                                                : uart_dma_udma.obj (.text.UART_udmaIsrTx)
                  7000b9be    0000005c                                                : udma_rm.obj (.text.Udma_rmAllocEvent)
                  7000ba1a    0000005c                                                : udma_rm.obj (.text.Udma_rmAllocVintr)
                  7000ba76    0000005c     nortos.am64x.r5f.ti-arm-clang.release.lib : DebugP_log.obj (.text._DebugP_assert)
                  7000bad2    0000005a     drivers.am64x.r5f.ti-arm-clang.release.lib : uart_v0_lld.obj (.text.UART_lld_flushTxFifo)
                  7000bb2c    0000005a                                                : udma_ring_common.obj (.text.Udma_ringDequeueRaw)
                  7000bb86    00000058     usbd_cdn_nortos.am64x.r5f.ti-arm-clang.release.lib : cusbdma_sanity.obj (.text.CUSBDMA_DmaControllerSF)
                  7000bbde    00000002     usbd_tusb_dfu_nortos.am64x.r5f.ti-arm-clang.release.lib : dcd.obj (.text.dcd_edpt_close_all)
                  7000bbe0    00000058     libc.a : autoinit.c.obj (.text:__TI_auto_init_nobinit_nopinit)
                  7000bc38    00000056     usbd_cdn_nortos.am64x.r5f.ti-arm-clang.release.lib : cusbd.obj (.text.CUSBD_Start)
                  7000bc8e    00000056     nortos.am64x.r5f.ti-arm-clang.release.lib : ClockP_nortos.obj (.text.ClockP_getTimeUsec)
                  7000bce4    00000056     usbd_tusb_dfu_nortos.am64x.r5f.ti-arm-clang.release.lib : usbd_control.obj (.text._data_stage_xact)
                  7000bd3a    00000056                                                             : tusb_fifo.obj (.text._tu_fifo_peek)
                  7000bd90    00000056                                                             : usbd.obj (.text.usbd_edpt_xfer)
                  7000bde6    00000054     drivers.am64x.r5f.ti-arm-clang.release.lib : csl_bcdma.obj (.text.CSL_bcdmaChanOpDecChanStats)
                  7000be3a    00000054                                                : csl_bcdma.obj (.text.CSL_bcdmaChanOpGetChanRT)
                  7000be8e    00000054                                                : csl_intaggr.obj (.text.CSL_intaggrIsIntrPending)
                  7000bee2    00000054                                                : sciclient_rm.obj (.text.Sciclient_rmGetResourceRange)
                  7000bf36    00000054     usbd_cdn_nortos.am64x.r5f.ti-arm-clang.release.lib : cusbdma.obj (.text.getActualNumTRBs)
                  7000bf8a    00000052     drivers.am64x.r5f.ti-arm-clang.release.lib : sciclient_pm.obj (.text.Sciclient_pmSetModuleState)
                  7000bfdc    00000052                                                : uart_v0_lld.obj (.text.UART_lld_deInitDma)
                  7000c02e    00000052     usbd_tusb_dfu_nortos.am64x.r5f.ti-arm-clang.release.lib : usb_wrapper.obj (.text.disconnect)
                  7000c080    00000050     nortos.am64x.r5f.ti-arm-clang.release.lib : ClockP_nortos.obj (.text.ClockP_addToList)
                  7000c0d0    00000050                                               : ClockP_nortos.obj (.text.ClockP_construct)
                  7000c120    00000050     drivers.am64x.r5f.ti-arm-clang.release.lib : sciclient_soc_priv.obj (.text.Sciclient_getContext)
                  7000c170    00000050                                                : udma_rm.obj (.text.Udma_rmFreeVintrBit)
                  7000c1c0    0000004e                                                : bootloader.obj (.text.Bootloader_findSeq)
                  7000c20e    0000004e     usbd_cdn_nortos.am64x.r5f.ti-arm-clang.release.lib : cusbd.obj (.text.CUSBD_Probe)
                  7000c25c    0000004e     drivers.am64x.r5f.ti-arm-clang.release.lib : sciclient_procboot.obj (.text.Sciclient_procBootReleaseProcessor)
                  7000c2aa    0000004e                                                : udma_soc.obj (.text.Udma_getMappedChRingAttributes)
                  7000c2f8    0000004e     usbd_cdn_nortos.am64x.r5f.ti-arm-clang.release.lib : cusbd.obj (.text.startHwTransfer)
                  7000c346    0000004e     usbd_tusb_dfu_nortos.am64x.r5f.ti-arm-clang.release.lib : tusb_fifo.obj (.text.tu_fifo_write)
                  7000c394    0000004c     ti_drivers_open_close.obj (.text.Drivers_uartOpen)
                  7000c3e0    0000004c     usbd_cdn_nortos.am64x.r5f.ti-arm-clang.release.lib : cdn_osal_none.obj (.text.OsalNoRtosQueue_init)
                  7000c42c    0000004c     drivers.am64x.r5f.ti-arm-clang.release.lib : udma_ch.obj (.text.UdmaChTxPrms_init)
                  7000c478    0000004c     usbd_tusb_dfu_nortos.am64x.r5f.ti-arm-clang.release.lib : dcd.obj (.text.dcd_set_address)
                  7000c4c4    0000004a     drivers.am64x.r5f.ti-arm-clang.release.lib : csl_intaggr.obj (.text.CSL_intaggrClrIntr)
                  7000c50e    0000004a                                                : pinmux.obj (.text.Pinmux_unlockMMR)
                  7000c558    0000004a                                                : sciclient.obj (.text.Sciclient_triggerSecHandover)
                  7000c5a2    0000004a                                                : uart_v0_lld.obj (.text.UART_lld_deInit)
                  7000c5ec    0000004a                                                : udma_ch.obj (.text.UdmaChPrms_init)
                  7000c636    0000004a                                                : udma_rm.obj (.text.Udma_rmFreeMappedRxCh)
                  7000c680    0000004a                                                : udma_rm.obj (.text.Udma_rmFreeMappedTxCh)
                  7000c6ca    00000048                                                : csl_bcdma.obj (.text.CSL_bcdmaChanOpSetChanRT)
                  7000c712    00000048     usbd_cdn_nortos.am64x.r5f.ti-arm-clang.release.lib : cusbdma.obj (.text.CUSBDMA_ChannelFreeHeadTrbChain)
                  7000c75a    00000048                                                        : cusbd.obj (.text.CUSBD_ReqDequeue)
                  7000c7a2    00000048     usbd_tusb_dfu_nortos.am64x.r5f.ti-arm-clang.release.lib : dcd.obj (.text.dcd_edpt_clear_stall)
                  7000c7ea    00000048                                                             : dcd.obj (.text.dcd_edpt_stall)
                  7000c832    00000046     ti_dpl_config.obj (.text.Dpl_init)
                  7000c878    00000046     drivers.am64x.r5f.ti-arm-clang.release.lib : sciclient_pm.obj (.text.Sciclient_pmSetModuleRst_flags)
                  7000c8be    00000046                                                : sciclient_procboot.obj (.text.Sciclient_procBootGetProcessorState)
                  7000c904    00000046                                                : udma_ch.obj (.text.UdmaChRxPrms_init)
                  7000c94a    00000044                                                : bootloader.obj (.text.Bootloader_loadCpu)
                  7000c98e    00000044     usbd_cdn_nortos.am64x.r5f.ti-arm-clang.release.lib : cusbd.obj (.text.CUSBD_EpSetWedge)
                  7000c9d2    00000044     drivers.am64x.r5f.ti-arm-clang.release.lib : sciclient_pm.obj (.text.Sciclient_pmSetModuleRst)
                  7000ca16    00000044                                                : sciclient_procboot.obj (.text.Sciclient_procBootRequestProcessor)
                  7000ca5a    00000044                                                : sciclient_rm_irq.obj (.text.Sciclient_rmIrqUnmappedVintRouteDelete)
                  7000ca9e    00000044     usbd_tusb_dfu_nortos.am64x.r5f.ti-arm-clang.release.lib : dcd.obj (.text.outEpXferCmplCb)
                  7000cae2    00000044     main.obj (.text.tud_dfu_download_cb)
                  7000cb26    00000042     drivers.am64x.r5f.ti-arm-clang.release.lib : sciclient_procboot.obj (.text.Sciclient_procBootAuthAndStart)
                  7000cb68    00000042                                                : sciclient_rm.obj (.text.Sciclient_rmIrqReleaseRaw)
                  7000cbaa    00000042                                                : sciclient_rm.obj (.text.Sciclient_rmPsilPair)
                  7000cbec    00000042                                                : sciclient_rm.obj (.text.Sciclient_rmPsilUnpair)
                  7000cc2e    00000042     usbd_cdn_nortos.am64x.r5f.ti-arm-clang.release.lib : usb_init.obj (.text.usb_init)
                  7000cc70    00000040     drivers.am64x.r5f.ti-arm-clang.release.lib : bootloader_profile.obj (.text.Bootloader_profileReset)
                  7000ccb0    00000040                                                : csl_bcdma.obj (.text.CSL_bcdmaChanOpSetBurstSize)
                  7000ccf0    00000040     usbd_cdn_nortos.am64x.r5f.ti-arm-clang.release.lib : cusbdma.obj (.text.CUSBDMA_Destroy)
                  7000cd30    00000040     nortos.am64x.r5f.ti-arm-clang.release.lib : ClockP_nortos.obj (.text.ClockP_stop)
                  7000cd70    00000040     drivers.am64x.r5f.ti-arm-clang.release.lib : sciclient_firewall.obj (.text.Sciclient_firewallChangeOwnerInfo)
                  7000cdb0    00000040                                                : sciclient_firewall.obj (.text.Sciclient_firewallSetRegion)
                  7000cdf0    00000040                                                : sciclient_rm.obj (.text.Sciclient_rmIrqSetRaw)
                  7000ce30    00000040                                                : sciclient_rm.obj (.text.Sciclient_rmRingCfg)
                  7000ce70    00000040                                                : sciclient_rm.obj (.text.Sciclient_rmUdmapFlowCfg)
                  7000ceb0    00000040                                                : sciclient_rm.obj (.text.Sciclient_rmUdmapFlowSizeThreshCfg)
                  7000cef0    00000040                                                : sciclient_rm.obj (.text.Sciclient_rmUdmapRxChCfg)
                  7000cf30    00000040                                                : sciclient_rm.obj (.text.Sciclient_rmUdmapTxChCfg)
                  7000cf70    00000040     nortos.am64x.r5f.ti-arm-clang.release.lib : SemaphoreP_nortos.obj (.text.SemaphoreP_constructBinary)
                  7000cfb0    00000040     drivers.am64x.r5f.ti-arm-clang.release.lib : udma_rm.obj (.text.Udma_rmFreeBlkCopyCh)
                  7000cff0    00000040                                                : udma_rm.obj (.text.Udma_rmFreeBlkCopyHcCh)
                  7000d030    00000040                                                : udma_rm.obj (.text.Udma_rmFreeBlkCopyUhcCh)
                  7000d070    00000040                                                : udma_rm.obj (.text.Udma_rmFreeEvent)
                  7000d0b0    00000040                                                : udma_rm.obj (.text.Udma_rmFreeIrIntr)
                  7000d0f0    00000040                                                : udma_rm.obj (.text.Udma_rmFreeRxCh)
                  7000d130    00000040                                                : udma_rm.obj (.text.Udma_rmFreeRxHcCh)
                  7000d170    00000040                                                : udma_rm.obj (.text.Udma_rmFreeRxUhcCh)
                  7000d1b0    00000040                                                : udma_rm.obj (.text.Udma_rmFreeTxCh)
                  7000d1f0    00000040                                                : udma_rm.obj (.text.Udma_rmFreeTxHcCh)
                  7000d230    00000040                                                : udma_rm.obj (.text.Udma_rmFreeTxUhcCh)
                  7000d270    00000040                                                : udma_rm.obj (.text.Udma_rmFreeVintr)
                  7000d2b0    00000040     usbd_tusb_dfu_nortos.am64x.r5f.ti-arm-clang.release.lib : dcd.obj (.text.outEp0XferCmplCb)
                  7000d2f0    00000040                                                             : usb_wrapper.obj (.text.usbPhyOn)
                  7000d330    00000040                                                             : usbd.obj (.text.usbd_edpt_clear_stall)
                  7000d370    00000040                                                             : usbd.obj (.text.usbd_edpt_stall)
                  7000d3b0    0000003e     drivers.am64x.r5f.ti-arm-clang.release.lib : bootloader.obj (.text.Bootloader_open)
                  7000d3ee    0000003e     usbd_cdn_nortos.am64x.r5f.ti-arm-clang.release.lib : cusbdma.obj (.text.CUSBDMA_ChannelTrigger)
                  7000d42c    0000003e     drivers.am64x.r5f.ti-arm-clang.release.lib : soc.obj (.text.SOC_controlModuleUnlockMMR)
                  7000d46a    0000003e                                                : sciclient_procboot.obj (.text.Sciclient_procBootSetProcessorCfg)
                  7000d4a8    0000003e     nortos.am64x.r5f.ti-arm-clang.release.lib : SemaphoreP_nortos.obj (.text.SemaphoreP_constructMutex)
                  7000d4e6    0000003e     drivers.am64x.r5f.ti-arm-clang.release.lib : udma_flow.obj (.text.UdmaFlowPrms_init)
                  7000d524    0000003e                                                : udma_ring_common.obj (.text.Udma_ringFlushRaw)
                  7000d562    0000003c                                                : bootloader_soc.obj (.text.Bootloader_socTranslateSectionAddr)
                  7000d59e    0000003c                                                : csl_bcdma.obj (.text.CSL_bcdmaGetCfg)
                  7000d5da    0000003c     usbd_tusb_dfu_nortos.am64x.r5f.ti-arm-clang.release.lib : usb_wrapper.obj (.text.usbDeviceIntSetup)
                  7000d616    0000003a     nortos.am64x.r5f.ti-arm-clang.release.lib : ClockP_nortos.obj (.text.ClockP_destruct)
                  7000d650    0000003a                                               : DebugP_uartLogWriter.obj (.text.DebugP_uartLogWriterPutChar)
                  7000d68a    00000038     drivers.am64x.r5f.ti-arm-clang.release.lib : bootloader_soc.obj (.text.Bootloader_socEnableICSSCores)
                  7000d6c2    00000038                                                : sciclient.obj (.text.Sciclient_getCurrentContext)
                  7000d6fa    00000038     nortos.am64x.r5f.ti-arm-clang.release.lib : DebugP_nortos.obj (.text._DebugP_logZone)
                  7000d732    00000036     usbd_cdn_nortos.am64x.r5f.ti-arm-clang.release.lib : cusbd.obj (.text.CUSBD_EpFifoFlush)
                  7000d768    00000036     ti_power_clock_config.obj (.text.Module_clockSetFrequency)
                  7000d79e    00000036     usbd_tusb_dfu_nortos.am64x.r5f.ti-arm-clang.release.lib : dfu_device.obj (.text.tud_dfu_finish_flashing)
                  7000d7d4    00000034     nortos.am64x.r5f.ti-arm-clang.release.lib : ClockP_nortos.obj (.text.ClockP_start)
                  7000d808    00000034     usbd_cdn_nortos.am64x.r5f.ti-arm-clang.release.lib : cusbd.obj (.text.waitUntilBitCleared)
                  7000d83c    00000034                                                        : cusbd.obj (.text.waitUntilBitSet)
                  7000d870    00000032     drivers.am64x.r5f.ti-arm-clang.release.lib : bootloader.obj (.text.Bootloader_BootImageInfo_init)
                  7000d8a2    00000032     nortos.am64x.r5f.ti-arm-clang.release.lib : ClockP_nortos.obj (.text.ClockP_usleep)
                  7000d8d4    00000032                                               : SemaphoreP_nortos.obj (.text.SemaphoreP_post)
                  7000d906    00000032     drivers.am64x.r5f.ti-arm-clang.release.lib : udma_event.obj (.text.UdmaEventPrms_init)
                  7000d938    00000032     main.obj (.text.dfu_task)
                  7000d96a    00000032     usbd_cdn_nortos.am64x.r5f.ti-arm-clang.release.lib : cusbd.obj (.text.reqQueueRunHw)
                  7000d99c    00000030     nortos.am64x.r5f.ti-arm-clang.release.lib : PmuP_armv7r_asm.obj (.text.pmu)
                  7000d9cc    00000030     usbd_tusb_dfu_nortos.am64x.r5f.ti-arm-clang.release.lib : usbd_control.obj (.text.tud_control_status)
                  7000d9fc    00000030     usbd_cdn_nortos.am64x.r5f.ti-arm-clang.release.lib : cusbdma.obj (.text.waitForBitCleared)
                  7000da2c    0000002e                                                        : cusbdma.obj (.text.CUSBDMA_ChannelSetMaxPktSz)
                  7000da5a    0000002e     ti_power_clock_config.obj (.text.Module_clockDisable)
                  7000da88    0000002e     ti_power_clock_config.obj (.text.Module_clockEnable)
                  7000dab6    0000002e     drivers.am64x.r5f.ti-arm-clang.release.lib : uart_v0.obj (.text.UART_getHandle)
                  7000dae4    0000002e                                                : udma_ring_common.obj (.text.UdmaRingPrms_init)
                  7000db12    0000002e     usbd_tusb_dfu_nortos.am64x.r5f.ti-arm-clang.release.lib : dcd.obj (.text.ctrlInCmplCb)
                  7000db40    0000002c     drivers.am64x.r5f.ti-arm-clang.release.lib : bootloader_soc.obj (.text.Bootloader_socIsMCUResetIsoEnabled)
                  7000db6c    0000002c                                                : csl_pktdma.obj (.text.CSL_pktdmaGetRxRT)
                  7000db98    0000002c                                                : csl_pktdma.obj (.text.CSL_pktdmaGetTxRT)
                  7000dbc4    0000002c     usbd_tusb_dfu_nortos.am64x.r5f.ti-arm-clang.release.lib : dcd.obj (.text.inEpXferCmplCb)
                  7000dbf0    0000002a     drivers.am64x.r5f.ti-arm-clang.release.lib : soc.obj (.text.SOC_controlModuleLockMMR)
                  7000dc1a    0000002a                                                : uart_v0.obj (.text.UART_lld_writeCompleteCallback)
                  7000dc44    00000028                                                : bootloader_soc.obj (.text.Bootloader_socCpuPowerOnReset)
                  7000dc6c    00000028     usbd_cdn_nortos.am64x.r5f.ti-arm-clang.release.lib : cusbdma_sanity.obj (.text.CUSBDMA_SanityFunction7)
                  7000dc94    00000028     nortos.am64x.r5f.ti-arm-clang.release.lib : ClockP_nortos.obj (.text.ClockP_sleepTicks)
                  7000dcbc    00000028     drivers.am64x.r5f.ti-arm-clang.release.lib : bootloader_mem.obj (.text.Mem_imgRead)
                  7000dce4    00000028                                                : uart_v0.obj (.text.UART_lld_readCompleteCallback)
                  7000dd0c    00000028                                                : udma_ch.obj (.text.Udma_chGetCqRingHandle)
                  7000dd34    00000028                                                : udma_ch.obj (.text.Udma_chGetFqRingHandle)
                  7000dd5c    00000026                                                : bootloader_profile.obj (.text.Bootloader_profileAddProfilePoint)
                  7000dd82    00000026     usbd_cdn_nortos.am64x.r5f.ti-arm-clang.release.lib : cusbdma.obj (.text.CUSBDMA_ChannelUpdateState)
                  7000dda8    00000026     ti_drivers_config.obj (.text.System_init)
                  7000ddce    00000026     usbd_tusb_dfu_nortos.am64x.r5f.ti-arm-clang.release.lib : tusb.obj (.text.tu_edpt_bind_driver)
                  7000ddf4    00000026     usbd_cdn_nortos.am64x.r5f.ti-arm-clang.release.lib : usbss_functions.obj (.text.usb_instance_select)
                  7000de1a    00000024     drivers.am64x.r5f.ti-arm-clang.release.lib : csl_bcdma.obj (.text.CSL_bcdmaGetChanPeerReg)
                  7000de3e    00000002     usbd_tusb_dfu_nortos.am64x.r5f.ti-arm-clang.release.lib : usb_wrapper.obj (.text.resume)
                  7000de40    00000024     libclang_rt.builtins.a : aeabi_uldivmod.S.obj (.text.__aeabi_uldivmod)
                  7000de64    00000024     usbd_tusb_dfu_nortos.am64x.r5f.ti-arm-clang.release.lib : tusb_fifo.obj (.text.tu_fifo_read)
                  7000de88    00000024                                                             : usb_wrapper.obj (.text.usbGetDataXferRequestIndexOut)
                  7000deac    00000024     nortos.am64x.r5f.ti-arm-clang.release.lib : printf.obj (.text.vprintf_)
                  7000ded0    00000022     drivers.am64x.r5f.ti-arm-clang.release.lib : bootloader.obj (.text.Bootloader_runSelfCpu)
                  7000def2    00000022                                                : bootloader_soc.obj (.text.Bootloader_socIsR5FSSDual)
                  7000df14    00000022                                                : csl_bcdma.obj (.text.CSL_bcdmaSetChanPeerReg)
                  7000df36    00000022     ti_pinmux_config.obj (.text.Pinmux_init)
                  7000df58    00000022     drivers.am64x.r5f.ti-arm-clang.release.lib : uart_dma_udma.obj (.text.UART_lld_dmaDeInit)
                  7000df7a    00000022                                                : udma_utils.obj (.text.Udma_virtToPhyFxn)
                  7000df9c    00000022     usbd_cdn_nortos.am64x.r5f.ti-arm-clang.release.lib : cusbd.obj (.text.getActualSpeed)
                  7000dfbe    00000020     drivers.am64x.r5f.ti-arm-clang.release.lib : bootloader_soc.obj (.text.Bootloader_enableMCUPLL)
                  7000dfde    00000020                                                : bootloader_soc.obj (.text.Bootloader_socGetCoreName)
                  7000dffe    00000020                                                : bootloader_soc.obj (.text.Bootloader_socRprcToCslCoreId)
                  7000e01e    00000020                                                : csl_pktdma.obj (.text.CSL_pktdmaSetRxRT)
                  7000e03e    00000020                                                : csl_pktdma.obj (.text.CSL_pktdmaSetTxRT)
                  7000e05e    00000020     usbd_cdn_nortos.am64x.r5f.ti-arm-clang.release.lib : cusbd.obj (.text.CUSBD_DGetFrame)
                  7000e07e    00000020                                                        : cusbd_sanity.obj (.text.CUSBD_SanityFunction13)
                  7000e09e    00000020     nortos.am64x.r5f.ti-arm-clang.release.lib : DebugP_log.obj (.text.DebugP_logZoneEnable)
                  7000e0be    00000020     drivers.am64x.r5f.ti-arm-clang.release.lib : soc.obj (.text.SOC_getSelfCpuClk)
                  7000e0de    00000020     ti_drivers_config.obj (.text.System_deinit)
                  7000e0fe    00000020     nortos.am64x.r5f.ti-arm-clang.release.lib : TimerP.obj (.text.TimerP_Params_init)
                  7000e11e    00000020     usbd_tusb_dfu_nortos.am64x.r5f.ti-arm-clang.release.lib : usb_wrapper.obj (.text.setup)
                  7000e13e    0000001e     drivers.am64x.r5f.ti-arm-clang.release.lib : csl_bcdma.obj (.text.CSL_bcdmaTeardownRxChan)
                  7000e15c    0000001e                                                : csl_bcdma.obj (.text.CSL_bcdmaTeardownTxChan)
                  7000e17a    0000001e     usbd_cdn_nortos.am64x.r5f.ti-arm-clang.release.lib : cusbdma_sanity.obj (.text.CUSBDMA_SanityFunction5)
                  7000e198    0000001e                                                        : cusbd.obj (.text.CUSBD_Stop)
                  7000e1b6    0000001e     drivers.am64x.r5f.ti-arm-clang.release.lib : uart_v0_lld.obj (.text.UART_spaceAvail)
                  7000e1d4    0000001e     usbd_tusb_dfu_nortos.am64x.r5f.ti-arm-clang.release.lib : tusb_fifo.obj (.text.tu_fifo_clear)
                  7000e1f2    0000001e                                                             : usb_wrapper.obj (.text.usbPinmuxConfig)
                  7000e210    0000001c     drivers.am64x.r5f.ti-arm-clang.release.lib : bootloader_soc.obj (.text.Bootloader_socCpuGetClkDefault)
                  7000e22c    0000001c                                                : bootloader_soc.obj (.text.Bootloader_socIsAuthRequired)
                  7000e248    0000001c                                                : csl_pktdma.obj (.text.CSL_pktdmaGetChanPeerReg)
                  7000e264    0000001c                                                : csl_pktdma.obj (.text.CSL_pktdmaSetChanPeerReg)
                  7000e280    0000001c     usbd_cdn_nortos.am64x.r5f.ti-arm-clang.release.lib : cusbd_sanity.obj (.text.CUSBD_SanityFunction7)
                  7000e29c    0000001c     drivers.am64x.r5f.ti-arm-clang.release.lib : bootloader_mem.obj (.text.Mem_imgOpen)
                  7000e2b8    0000001c                                                : soc.obj (.text.SOC_getCoreName)
                  7000e2d4    0000001c                                                : udma_utils.obj (.text.UdmaUtils_getRingMemSize)
                  7000e2f0    0000001c                                                : udma_event.obj (.text.Udma_eventGetGlobalHandle)
                  7000e30c    0000001c     nortos.am64x.r5f.ti-arm-clang.release.lib : boot_armv7r.obj (.text._system_pre_init)
                  7000e328    0000001c     libc.a : memcpy32.S.obj (.text:TI_memcpy_small)
                  7000e344    0000001a     drivers.am64x.r5f.ti-arm-clang.release.lib : bootloader_profile.obj (.text.Bootloader_profileAddCore)
                  7000e35e    0000001a     usbd_cdn_nortos.am64x.r5f.ti-arm-clang.release.lib : cusbd.obj (.text.CUSBD_DGetConfigParams)
                  7000e378    0000001a     ti_drivers_open_close.obj (.text.Drivers_open)
                  7000e392    0000001a     drivers.am64x.r5f.ti-arm-clang.release.lib : uart_v0.obj (.text.UART_deinit)
                  7000e3ac    00000018                                                : bootloader_soc.obj (.text.Bootloader_socAuthImage)
                  7000e3c4    00000018     usbd_cdn_nortos.am64x.r5f.ti-arm-clang.release.lib : cusbdma.obj (.text.CUSBDMA_Probe)
                  7000e3dc    00000018                                                        : cusbd_sanity.obj (.text.CUSBD_SanityFunction2)
                  7000e3f4    00000018     ti_drivers_open_close.obj (.text.Drivers_close)
                  7000e40c    00000018     drivers.am64x.r5f.ti-arm-clang.release.lib : sciclient_soc_priv.obj (.text.Sciclient_getDevId)
                  7000e424    00000018     usbd_tusb_dfu_nortos.am64x.r5f.ti-arm-clang.release.lib : usb_wrapper.obj (.text.connect)
                  7000e43c    00000018                                                             : usbd_control.obj (.text.usbd_control_set_request)
                  7000e454    00000018     libc.a : memset32.S.obj (.text:TI_memset_small)
                  7000e46c    00000016     drivers.am64x.r5f.ti-arm-clang.release.lib : bootloader_soc.obj (.text.Bootloader_socNotifyFirewallOpen)
                  7000e482    00000016                                                : csl_bcdma.obj (.text.CSL_bcdmaGetRxRT)
                  7000e498    00000016                                                : csl_bcdma.obj (.text.CSL_bcdmaGetTxRT)
                  7000e4ae    00000016                                                : csl_bcdma.obj (.text.CSL_bcdmaSetRxRT)
                  7000e4c4    00000016                                                : csl_bcdma.obj (.text.CSL_bcdmaSetTxRT)
                  7000e4da    00000016     usbd_cdn_nortos.am64x.r5f.ti-arm-clang.release.lib : cusbdma_sanity.obj (.text.CUSBDMA_SanityFunction2)
                  7000e4f0    00000016                                                        : cusbd_sanity.obj (.text.CUSBD_SanityFunction8)
                  7000e506    00000016                                                        : cusbd.obj (.text.handleSwEpInReq)
                  7000e51c    00000016     usbd_tusb_dfu_nortos.am64x.r5f.ti-arm-clang.release.lib : usb_wrapper.obj (.text.usbClockCfg)
                  7000e532    00000016                                                             : usbd.obj (.text.usbd_int_set)
                  7000e548    00000014     usbd_cdn_nortos.am64x.r5f.ti-arm-clang.release.lib : cusbd_sanity.obj (.text.CUSBD_SanityFunction16)
                  7000e55c    00000014                                                        : cusbd_sanity.obj (.text.CUSBD_SanityFunction19)
                  7000e570    00000014                                                        : cusbd_sanity.obj (.text.CUSBD_SanityFunction1)
                  7000e584    00000014     nortos.am64x.r5f.ti-arm-clang.release.lib : ClockP_nortos.obj (.text.ClockP_usecToTicks)
                  7000e598    00000014     drivers.am64x.r5f.ti-arm-clang.release.lib : uart_v0.obj (.text.UART_Transaction_init)
                  7000e5ac    00000014     usbd_tusb_dfu_nortos.am64x.r5f.ti-arm-clang.release.lib : dfu_device.obj (.text.dfu_moded_init)
                  7000e5c0    00000014                                                             : dfu_device.obj (.text.dfu_moded_reset)
                  7000e5d4    00000012     usbd_cdn_nortos.am64x.r5f.ti-arm-clang.release.lib : cps.obj (.text.CPS_DelayNs)
                  7000e5e6    00000012                                                        : cusbdma_sanity.obj (.text.CUSBDMA_SanityFunction1)
                  7000e5f8    00000012     nortos.am64x.r5f.ti-arm-clang.release.lib : TimerP.obj (.text.TimerP_clearOverflowInt)
                  7000e60a    00000012     drivers.am64x.r5f.ti-arm-clang.release.lib : uart_v0_lld.obj (.text.UART_operatingModeSelect)
                  7000e61c    00000012     usbd_cdn_nortos.am64x.r5f.ti-arm-clang.release.lib : cusbd.obj (.text.handleSwEpReq)
                  7000e62e    00000012     main.obj (.text.tud_dfu_manifest_cb)
                  7000e640    00000012     usbd_tusb_dfu_nortos.am64x.r5f.ti-arm-clang.release.lib : usbd.obj (.text.tud_inited)
                  7000e652    00000012                                                             : usbd_control.obj (.text.usbd_control_reset)
                  7000e664    00000010     drivers.am64x.r5f.ti-arm-clang.release.lib : bootloader.obj (.text.Bootloader_close)
                  7000e674    00000010                                                : bootloader.obj (.text.Bootloader_getBootMedia)
                  7000e684    00000010                                                : bootloader.obj (.text.Bootloader_isCorePresent)
                  7000e694    00000010                                                : csl_lcdma_ringacc.obj (.text.CSL_lcdma_ringaccIsTeardownComplete)
                  7000e6a4    00000010                                                : sciclient_rm.obj (.text.Sciclient_rmIrqRelease)
                  7000e6b4    00000010                                                : uart_v0_lld.obj (.text.UART_intr2Disable)
                  7000e6c4    00000010                                                : udma_rm.obj (.text.Udma_rmTranslateCoreIntrInput)
                  7000e6d4    00000010                                                : udma_rm.obj (.text.Udma_rmTranslateIrOutput)
                  7000e6e4    00000010     libclang_rt.builtins.a : aeabi_memset.S.obj (.text.__aeabi_memset)
                  7000e6f4    0000000e     drivers.am64x.r5f.ti-arm-clang.release.lib : bootloader_profile.obj (.text.Bootloader_profileUpdateAppimageSize)
                  7000e702    0000000e                                                : bootloader_profile.obj (.text.Bootloader_profileUpdateMediaAndClk)
                  7000e710    0000000e                                                : bootloader_soc.obj (.text.Bootloader_socGetBootSeqOid)
                  7000e71e    0000000e     usbd_cdn_nortos.am64x.r5f.ti-arm-clang.release.lib : cusbdma_sanity.obj (.text.CUSBDMA_SanityFunction3)
                  7000e72c    0000000e                                                        : cusbd.obj (.text.CUSBD_DClearSelfpowered)
                  7000e73a    0000000e                                                        : cusbd.obj (.text.CUSBD_DSetSelfpowered)
                  7000e748    0000000e                                                        : cusbd_sanity.obj (.text.CUSBD_SanityFunction3)
                  7000e756    0000000e     ti_power_clock_config.obj (.text.PowerClock_init)
                  7000e764    0000000e     usbd_tusb_dfu_nortos.am64x.r5f.ti-arm-clang.release.lib : dcd.obj (.text.dcd_int_disable)
                  7000e772    0000000e                                                             : dcd.obj (.text.dcd_int_enable)
                  7000e780    0000000e                                                             : usb_wrapper.obj (.text.usb_irq6_isr)
                  7000e78e    0000000c     drivers.am64x.r5f.ti-arm-clang.release.lib : bootloader.obj (.text.Bootloader_Params_init)
                  7000e79a    0000000c     nortos.am64x.r5f.ti-arm-clang.release.lib : ClockP_nortos.obj (.text.ClockP_getTicks)
                  7000e7a6    0000000c                                               : DebugP_uartLogWriter.obj (.text.DebugP_uartSetDrvIndex)
                  7000e7b2    0000000c     drivers.am64x.r5f.ti-arm-clang.release.lib : sciclient.obj (.text.Sciclient_getSelfDevIdCore)
                  7000e7be    0000000c                                                : udma_ch.obj (.text.UdmaChPdmaPrms_init)
                  7000e7ca    00000002     usbd_tusb_dfu_nortos.am64x.r5f.ti-arm-clang.release.lib : usb_wrapper.obj (.text.suspend)
                  7000e7cc    0000000c     libclang_rt.builtins.a : aeabi_memset.S.obj (.text.__aeabi_memclr)
                  7000e7d8    0000000c     usbd_tusb_dfu_nortos.am64x.r5f.ti-arm-clang.release.lib : usbd_control.obj (.text.usbd_control_set_complete_callback)
                  7000e7e4    0000000c     usbd_cdn_nortos.am64x.r5f.ti-arm-clang.release.lib : usbss_functions.obj (.text.usbss_reset_assert)
                  7000e7f0    0000000a     drivers.am64x.r5f.ti-arm-clang.release.lib : bootloader.obj (.text.Bootloader_getMulticoreImageSize)
                  7000e7fa    0000000a                                                : bootloader_soc.obj (.text.Bootloader_socGetSBLMem)
                  7000e804    0000000a                                                : csl_sec_proxy.obj (.text.CSL_secProxyGetDataAddr)
                  7000e80e    0000000a     usbd_cdn_nortos.am64x.r5f.ti-arm-clang.release.lib : cusbdma_obj_if.obj (.text.CUSBDMA_GetInstance)
                  7000e818    0000000a                                                        : cusbd_obj_if.obj (.text.CUSBD_GetInstance)
                  7000e822    0000000a     nortos.am64x.r5f.ti-arm-clang.release.lib : ClockP_nortos.obj (.text.ClockP_Params_init)
                  7000e82c    0000000a                                               : ClockP_nortos.obj (.text.ClockP_isActive)
                  7000e836    0000000a                                               : TimerP.obj (.text.TimerP_start)
                  7000e840    0000000a     drivers.am64x.r5f.ti-arm-clang.release.lib : uart_v0_lld.obj (.text.UART_lld_Transaction_deInit)
                  7000e84a    0000000a     dfu_descriptors.obj (.text.tud_descriptor_configuration_cb)
                  7000e854    0000000a     dfu_descriptors.obj (.text.tud_descriptor_device_cb)
                  7000e85e    0000000a     main.obj (.text.tud_dfu_get_timeout_cb)
                  7000e868    00000008     usbd_cdn_nortos.am64x.r5f.ti-arm-clang.release.lib : cusbd.obj (.text.CUSBD_GetDevInstance)
                  7000e870    00000008     drivers.am64x.r5f.ti-arm-clang.release.lib : udma_ring_common.obj (.text.Udma_ringGetForwardRingOcc)
                  7000e878    00000008                                                : udma_ring_common.obj (.text.Udma_ringGetReverseRingOcc)
                  7000e880    00000008     nortos.am64x.r5f.ti-arm-clang.release.lib : printf.obj (.text._out_char)
                  7000e888    00000008     libc.a : exit.c.obj (.text:abort)
                  7000e890    00000006     drivers.am64x.r5f.ti-arm-clang.release.lib : csl_pktdma.obj (.text.CSL_pktdmaTeardownTxChan)
                  7000e896    00000006                                                : soc.obj (.text.SOC_getFlashDataBaseAddr)
                  7000e89c    00000006                                                : udma_rm.obj (.text.Udma_rmAllocFreeRing)
                  7000e8a2    00000006     usbd_tusb_dfu_nortos.am64x.r5f.ti-arm-clang.release.lib : dcd.obj (.text.dcd_init)
                  7000e8a8    00000006                                                             : tusb.obj (.text.tusb_init)
                  7000e8ae    00000004     ti_board_open_close.obj (.text.Board_driversOpen)
                  7000e8b2    00000004     drivers.am64x.r5f.ti-arm-clang.release.lib : bootloader_soc.obj (.text.Bootloader_socWaitForFWBoot)
                  7000e8b6    00000004                                                : lpddr4.obj (.text.CPS_UncachedRead32)
                  7000e8ba    00000004                                                : lpddr4.obj (.text.CPS_UncachedWrite32)
                  7000e8be    00000004     usbd_cdn_nortos.am64x.r5f.ti-arm-clang.release.lib : cusbd.obj (.text.CUSBD_Destroy)
                  7000e8c2    00000004                                                        : cusbd.obj (.text.CUSBD_EpFifoStatus)
                  7000e8c6    00000004     nortos.am64x.r5f.ti-arm-clang.release.lib : ClockP_nortos_r5.obj (.text.ClockP_getTimerCount)
                  7000e8ca    00000004                                               : ClockP_nortos_r5.obj (.text.ClockP_timerClearOverflowInt)
                  7000e8ce    00000004     drivers.am64x.r5f.ti-arm-clang.release.lib : bootloader_mem.obj (.text.Mem_imgGetCurOffset)
                  7000e8d2    00000004                                                : bootloader_mem.obj (.text.Mem_imgSeek)
                  7000e8d6    00000004     ti_power_clock_config.obj (.text.PowerClock_deinit)
                  7000e8da    00000004     drivers.am64x.r5f.ti-arm-clang.release.lib : sciclient.obj (.text.Sciclient_deinit)
                  7000e8de    00000004                                                : sciclient_rm.obj (.text.Sciclient_rmIrqSet)
                  7000e8e2    00000004     nortos.am64x.r5f.ti-arm-clang.release.lib : TimerP.obj (.text.TimerP_getCount)
                  7000e8e6    00000004                                               : TimerP.obj (.text.TimerP_getReloadCount)
                  7000e8ea    00000004     drivers.am64x.r5f.ti-arm-clang.release.lib : udma_utils.obj (.text.Udma_defaultVirtToPhyFxn)
                  7000e8ee    00000002     --HOLE-- [fill = 0]
                  7000e8f0    00000004     libclang_rt.builtins.a : aeabi_div0.c.obj (.text.__aeabi_ldiv0)
                  7000e8f4    00000004                            : aeabi_memcpy.S.obj (.text.__aeabi_memcpy)
                  7000e8f8    00000004     ti_dpl_config.obj (.text.putchar_)
                  7000e8fc    00000004     usbd_tusb_dfu_nortos.am64x.r5f.ti-arm-clang.release.lib : tusb.obj (.text.tusb_inited)
                  7000e900    00000008     libclang_rt.builtins.a : aeabi_memcpy.S.obj (.tramp.__aeabi_memcpy.1)
                  7000e908    00000008     nortos.am64x.r5f.ti-arm-clang.release.lib : HwiP_armv7r_asm.obj (.tramp.HwiP_restore.1)
                  7000e910    00000008                                               : HwiP_armv7r_asm.obj (.tramp.HwiP_enable.1)
                  7000e918    00000008                                               : PmuP_armv7r_asm.obj (.tramp.PmuP_enableCounters.1)
                  7000e920    00000008                                               : CacheP_armv7r_asm.obj (.tramp.CacheP_wb.1)
                  7000e928    00000008     --HOLE-- [fill = 0]

.text.hwi 
*          0    7000e930    00000760     
                  7000e930    00000408     nortos.am64x.r5f.ti-arm-clang.release.lib : HwiP_armv7r_vim.obj (.text.hwi)
                  7000ed38    00000220                                               : HwiP_armv7r_handlers_nortos.obj (.text.hwi)
                  7000ef58    000000c0                                               : HwiP_armv7r_handlers_nortos_asm.obj (.text.hwi)
                  7000f018    00000070                                               : HwiP_armv7r_asm.obj (.text.hwi)
                  7000f088    00000008                                               : HwiP_armv7r_asm.obj (.tramp.HwiP_enableFIQ.1)

.text.cache 
*          0    7000f090    00000430     
                  7000f090    00000340     nortos.am64x.r5f.ti-arm-clang.release.lib : CacheP_armv7r_asm.obj (.text.cache)
                  7000f3d0    000000d8                                               : CacheP_armv7r.obj (.text.cache)
                  7000f4a8    00000008                                               : CacheP_armv7r_asm.obj (.tramp.CacheP_invL1d.1)
                  7000f4b0    00000008                                               : CacheP_armv7r_asm.obj (.tramp.CacheP_enableL1p.1)
                  7000f4b8    00000008                                               : HwiP_armv7r_asm.obj (.tramp.HwiP_restore.2)

.text.mpu 
*          0    7000f4c0    00000218     
                  7000f4c0    0000018e     nortos.am64x.r5f.ti-arm-clang.release.lib : MpuP_armv7r.obj (.text.mpu)
                  7000f64e    00000002     --HOLE-- [fill = 0]
                  7000f650    00000078                                               : MpuP_armv7r_asm.obj (.text.mpu)
                  7000f6c8    00000008                                               : HwiP_armv7r_asm.obj (.tramp.HwiP_restore.3)
                  7000f6d0    00000008                                               : MpuP_armv7r_asm.obj (.tramp.MpuP_isEnableAsm.1)

.text.boot 
*          0    7000f6d8    00000128     
                  7000f6d8    000000fc     nortos.am64x.r5f.ti-arm-clang.release.lib : boot_armv7r_asm.obj (.text.boot)
                  7000f7d4    0000001e                                               : DebugP_log.obj (.text.boot)
                  7000f7f2    0000000e     ti_dpl_config.obj (.text.boot)

.data      0    7000f800    000006e0     
                  7000f800    000000e0     usbd_tusb_dfu_nortos.am64x.r5f.ti-arm-clang.release.lib : usb_wrapper.obj (.data.usbCfgCusbd)
                  7000f8e0    000000c4     drivers.am64x.r5f.ti-arm-clang.release.lib : bootloader_soc.obj (.data.gAddrTranslateInfo)
                  7000f9a4    000000b8                                                : sciclient_irq_rm.obj (.data.vint_usage_count_DMASS0_INTAGGR_0)
                  7000fa5c    000000a8                                                : bootloader_soc.obj (.data.gCoreBootInfo)
                  7000fb04    0000009c                                                : uart_v0.obj (.data.gUartDrvObj)
                  7000fba0    00000060                                                : sciclient_irq_rm.obj (.data.gRmIrInstances)
                  7000fc00    00000058     ti_drivers_open_close.obj (.data.gUartParams)
                  7000fc58    0000004c     usbd_cdn_nortos.am64x.r5f.ti-arm-clang.release.lib : cusbd_obj_if.obj (.data.CUSBD_GetInstance.driver)
                  7000fca4    00000030                                                        : cusbdma_obj_if.obj (.data.CUSBDMA_GetInstance.driver)
                  7000fcd4    00000028     ti_drivers_config.obj (.data.gBootloaderConfig)
                  7000fcfc    00000020     usbd_tusb_dfu_nortos.am64x.r5f.ti-arm-clang.release.lib : usb_wrapper.obj (.data.callback)
                  7000fd1c    00000020     ti_pinmux_config.obj (.data.gPinMuxMainDomainCfg)
                  7000fd3c    00000020     drivers.am64x.r5f.ti-arm-clang.release.lib : sciclient_irq_rm.obj (.data.gRmIaInstances)
                  7000fd5c    00000004     main.obj (.data.FileBufPtr)
                  7000fd60    00000020     drivers.am64x.r5f.ti-arm-clang.release.lib : sciclient_soc_priv.obj (.data.gSciclientSecProxyCfg)
                  7000fd80    0000001c     ti_drivers_open_close.obj (.data.gUsbInitParam)
                  7000fd9c    0000001c     usbd_cdn_nortos.am64x.r5f.ti-arm-clang.release.lib : usb_init.obj (.data.usbInitParam)
                  7000fdb8    00000018     usbd_tusb_dfu_nortos.am64x.r5f.ti-arm-clang.release.lib : usbd.obj (.data._usbd_qdef)
                  7000fdd0    00000018     ti_dpl_config.obj (.data.gClockConfig)
                  7000fde8    00000018     ti_power_clock_config.obj (.data.gSocModulesClockFrequency)
                  7000fe00    00000014     drivers.am64x.r5f.ti-arm-clang.release.lib : bootloader_mem.obj (.data.gBootloaderMemFxns)
                  7000fe14    00000014                                                : bootloader_soc.obj (.data.gResMemSection)
                  7000fe28    00000014                                                : sciclient_irq_rm.obj (.data.rom_usage_DMASS0_INTAGGR_0)
                  7000fe3c    00000014     dfu_descriptors.obj (.data.string_desc_arr)
                  7000fe50    0000000c     usbd_cdn_nortos.am64x.r5f.ti-arm-clang.release.lib : cusbd.obj (.data.cdns_dsr_qdef)
                  7000fe5c    00000004     usbd_tusb_dfu_nortos.am64x.r5f.ti-arm-clang.release.lib : usbd.obj (.data._app_driver)
                  7000fe60    0000000c     nortos.am64x.r5f.ti-arm-clang.release.lib : AddrTranslateP.obj (.data.gAddrTranslateConfig)
                  7000fe6c    0000000c     ti_power_clock_config.obj (.data.gSocModules)
                  7000fe78    00000008     ti_drivers_config.obj (.data.gBootloader0Args)
                  7000fe80    00000008     ti_pinmux_config.obj (.data.gPinMuxMcuDomainCfg)
                  7000fe88    00000008     ti_drivers_config.obj (.data.gUartAttrs)
                  7000fe90    00000008     ti_drivers_config.obj (.data.gUartConfig)
                  7000fe98    00000008     nortos.am64x.r5f.ti-arm-clang.release.lib : PmuP_armv7r.obj (.data.pmu)
                  7000fea0    00000004     main.obj (.data.dfu_ctx)
                  7000fea4    00000004     ti_drivers_config.obj (.data.gBootloaderConfigNum)
                  7000fea8    00000004     nortos.am64x.r5f.ti-arm-clang.release.lib : DebugP_log.obj (.data.gDebugLogZone)
                  7000feac    00000004                                               : DebugP_uartLogWriter.obj (.data.gDebugP_uartDrvIndex)
                  7000feb0    00000004     ti_dpl_config.obj (.data.gHwiConfig)
                  7000feb4    00000004     drivers.am64x.r5f.ti-arm-clang.release.lib : sciclient.obj (.data.gSciclientHandle.0)
                  7000feb8    00000004                                                : sciclient.obj (.data.gSciclientHandle.2)
                  7000febc    00000004                                                : sciclient.obj (.data.gSciclientHandle.3)
                  7000fec0    00000004                                                : sciclient.obj (.data.gSciclientHandle.4)
                  7000fec4    00000004                                                : sciclient.obj (.data.gSciclientHandle.5)
                  7000fec8    00000004     ti_drivers_config.obj (.data.gUartConfigNum)
                  7000fecc    00000004     ti_drivers_open_close.obj (.data.gUartDmaChConfig)
                  7000fed0    00000004     ti_drivers_config.obj (.data.operatingMode)
                  7000fed4    00000004     main.obj (.data.recvFileSize)
                  7000fed8    00000001     usbd_tusb_dfu_nortos.am64x.r5f.ti-arm-clang.release.lib : usbd.obj (.data._app_driver_count)
                  7000fed9    00000001                                                             : usbd.obj (.data._usbd_rhport)
                  7000feda    00000001     main.obj (.data.gManifestDone)
                  7000fedb    00000001     drivers.am64x.r5f.ti-arm-clang.release.lib : sciclient.obj (.data.gSecHeaderSizeWords)
                  7000fedc    00000004     --HOLE-- [fill = 0]

.rodata    0    7000fee0    00001868     
                  7000fee0    00000138     drivers.am64x.r5f.ti-arm-clang.release.lib : udma_soc.obj (.rodata.gUdmaTxMappedChRingAttributes)
                  70010018    0000012c                                                : sciclient_fmwSecureProxyMap.obj (.rodata.gSciclientMap)
                  70010144    0000009c                                                : udma_soc.obj (.rodata.gUdmaRxMappedChRingAttributes)
                  700101e0    00000074     ti_dpl_config.obj (.rodata.cfg)
                  70010254    00000068     drivers.am64x.r5f.ti-arm-clang.release.lib : sciclient_irq_rm.obj (.rodata.tisci_if_TIMESYNC_EVENT_INTROUTER0)
                  700102bc    00000061                                                : bootloader.obj (.rodata.str1.27692862334559552701)
                  7001031d    00000003                                                : bootloader_profile.obj (.rodata.str1.87690159525529920121)
                  70010320    00000058                                                : sciclient_irq_rm.obj (.rodata.gRmIrqTree)
                  70010378    00000050     nortos.am64x.r5f.ti-arm-clang.release.lib : printf.obj (.rodata._ftoa.pow10)
                  700103c8    00000048     drivers.am64x.r5f.ti-arm-clang.release.lib : bootloader_soc.obj (.rodata.gSOC_r5fVectors)
                  70010410    0000003e                                                : bootloader_profile.obj (.rodata.str1.10779536709706457681)
                  7001044e    0000003e     nortos.am64x.r5f.ti-arm-clang.release.lib : TimerP.obj (.rodata.str1.155618297627321921901)
                  7001048c    0000003b     drivers.am64x.r5f.ti-arm-clang.release.lib : bootloader_profile.obj (.rodata.str1.154236700963031936241)
                  700104c7    00000037     nortos.am64x.r5f.ti-arm-clang.release.lib : SemaphoreP_nortos.obj (.rodata.str1.77784356401422800491)
                  700104fe    00000036     drivers.am64x.r5f.ti-arm-clang.release.lib : bootloader_soc.obj (.rodata.str1.116160357178768892221)
                  70010534    00000035     ti_drivers_open_close.obj (.rodata.str1.135241915826326793361)
                  70010569    00000034     drivers.am64x.r5f.ti-arm-clang.release.lib : bootloader_soc.obj (.rodata.str1.157368025196999440281)
                  7001059d    00000034     nortos.am64x.r5f.ti-arm-clang.release.lib : TimerP.obj (.rodata.str1.164743418995849697991)
                  700105d1    00000002     dfu_descriptors.obj (.rodata..compoundliteral)
                  700105d3    00000001     --HOLE-- [fill = 0]
                  700105d4    00000034     drivers.am64x.r5f.ti-arm-clang.release.lib : sciclient_irq_rm.obj (.rodata.tisci_if_MAIN_GPIOMUX_INTROUTER0)
                  70010608    00000033                                                : bootloader_soc.obj (.rodata.str1.104852797084389476111)
                  7001063b    00000033                                                : bootloader_soc.obj (.rodata.str1.108560865512182149471)
                  7001066e    00000033     main.obj (.rodata.str1.55841430354152434161)
                  700106a1    00000032     drivers.am64x.r5f.ti-arm-clang.release.lib : bootloader.obj (.rodata.str1.49453207730052505781)
                  700106d3    00000031                                                : bootloader_profile.obj (.rodata.str1.72586947241727721351)
                  70010704    00000031                                                : bootloader_profile.obj (.rodata.str1.8367434985930082761)
                  70010735    00000031                                                : bootloader_soc.obj (.rodata.str1.94938212298975674041)
                  70010766    00000030                                                : bootloader_soc.obj (.rodata.str1.16279038217554379711)
                  70010796    00000002     --HOLE-- [fill = 0]
                  70010798    00000030                                                : sciclient_irq_rm.obj (.rodata.tisci_if_DMASS0_INTAGGR_0)
                  700107c8    0000002f                                                : bootloader_soc.obj (.rodata.str1.93991859983843582671)
                  700107f7    0000002e     nortos.am64x.r5f.ti-arm-clang.release.lib : ClockP_nortos.obj (.rodata.str1.60552435462749564001)
                  70010825    0000002e     drivers.am64x.r5f.ti-arm-clang.release.lib : bootloader_profile.obj (.rodata.str1.83904766851480127371)
                  70010853    0000002d                                                : bootloader_soc.obj (.rodata.str1.163381840298971697551)
                  70010880    0000002d                                                : bootloader_soc.obj (.rodata.str1.58199765499228280441)
                  700108ad    0000002c                                                : bootloader_soc.obj (.rodata.str1.126800844145081247951)
                  700108d9    0000002c                                                : bootloader_soc.obj (.rodata.str1.130439613777423019031)
                  70010905    0000002c                                                : soc.obj (.rodata.str1.30948883670846405281)
                  70010931    0000002c                                                : bootloader.obj (.rodata.str1.38543240124036597621)
                  7001095d    0000002c                                                : bootloader_soc.obj (.rodata.str1.67740237510159552421)
                  70010989    0000002b                                                : bootloader_soc.obj (.rodata.str1.103896507833577381681)
                  700109b4    0000002b                                                : bootloader_soc.obj (.rodata.str1.10816064445523340901)
                  700109df    0000002b                                                : bootloader_soc.obj (.rodata.str1.136315675252149246631)
                  70010a0a    0000002b                                                : bootloader_profile.obj (.rodata.str1.49020363832560342711)
                  70010a35    0000002a                                                : bootloader_soc.obj (.rodata.str1.108862625116848344691)
                  70010a5f    0000002a                                                : bootloader_soc.obj (.rodata.str1.38849067706911527761)
                  70010a89    0000002a     nortos.am64x.r5f.ti-arm-clang.release.lib : DebugP_log.obj (.rodata.str1.8568035916953519521)
                  70010ab3    00000027                                               : ClockP_nortos_r5.obj (.rodata.str1.124546920576200709321)
                  70010ada    00000025     drivers.am64x.r5f.ti-arm-clang.release.lib : uart_dma_udma.obj (.rodata.str1.114986527709633033881)
                  70010aff    00000001     --HOLE-- [fill = 0]
                  70010b00    00000024                                                : sciclient_irq_rm.obj (.rodata.tisci_if_MCU_MCU_GPIOMUX_INTROUTER0)
                  70010b24    00000023     nortos.am64x.r5f.ti-arm-clang.release.lib : ClockP_nortos_r5.obj (.rodata.str1.25776369892830718361)
                  70010b47    00000022     drivers.am64x.r5f.ti-arm-clang.release.lib : bootloader_soc.obj (.rodata.str1.77336568927910017741)
                  70010b69    00000021                                                : bootloader_soc.obj (.rodata.str1.139984562005889438511)
                  70010b8a    00000021     nortos.am64x.r5f.ti-arm-clang.release.lib : ClockP_nortos_r5.obj (.rodata.str1.167645692065458388701)
                  70010bab    00000021     drivers.am64x.r5f.ti-arm-clang.release.lib : bootloader_soc.obj (.rodata.str1.30913301665249982781)
                  70010bcc    00000021                                                : bootloader_soc.obj (.rodata.str1.86709688509864093381)
                  70010bed    00000003     --HOLE-- [fill = 0]
                  70010bf0    00000020                                                : soc.obj (.rodata.SOC_getCoreName.coreIdNames)
                  70010c10    00000020                                                : uart_v0_lld.obj (.rodata.cst32)
                  70010c30    00000020     usbd_cdn_nortos.am64x.r5f.ti-arm-clang.release.lib : cusbd.obj (.rodata.epOps)
                  70010c50    00000020     drivers.am64x.r5f.ti-arm-clang.release.lib : uart_v0.obj (.rodata.str1.169394063705023262141)
                  70010c70    00000020                                                : sciclient_irq_rm.obj (.rodata.tisci_if_CPTS0)
                  70010c90    0000001f                                                : bootloader_soc.obj (.rodata.str1.101965529428999861021)
                  70010caf    0000001f     nortos.am64x.r5f.ti-arm-clang.release.lib : TimerP.obj (.rodata.str1.170816537386891942861)
                  70010cce    0000001f     drivers.am64x.r5f.ti-arm-clang.release.lib : sciclient_boardcfg.obj (.rodata.str1.176112155955798027741)
                  70010ced    0000001f     nortos.am64x.r5f.ti-arm-clang.release.lib : ClockP_nortos_r5.obj (.rodata.str1.37049961317335892191)
                  70010d0c    0000001f                                               : SemaphoreP_nortos.obj (.rodata.str1.93106250239489445331)
                  70010d2b    0000001e     drivers.am64x.r5f.ti-arm-clang.release.lib : bootloader_soc.obj (.rodata.str1.135292914848480988261)
                  70010d49    0000001d                                                : uart_v0.obj (.rodata.str1.151873246111077803171)
                  70010d66    0000001d     nortos.am64x.r5f.ti-arm-clang.release.lib : TimerP.obj (.rodata.str1.154036655774719862071)
                  70010d83    00000001     --HOLE-- [fill = 0]
                  70010d84    0000001c     drivers.am64x.r5f.ti-arm-clang.release.lib : bootloader_soc.obj (.rodata..L__const.Bootloader_socRprcToCslCoreId.rprcCoreIds)
                  70010da0    0000001c                                                : sciclient_irq_rm.obj (.rodata.tisci_if_PRU_ICSSG0)
                  70010dbc    0000001c                                                : sciclient_irq_rm.obj (.rodata.tisci_if_PRU_ICSSG1)
                  70010dd8    0000001b     dfu_descriptors.obj (.rodata.desc_configuration)
                  70010df3    0000001b     nortos.am64x.r5f.ti-arm-clang.release.lib : ClockP_nortos.obj (.rodata.str1.25471646840808198631)
                  70010e0e    0000001b     drivers.am64x.r5f.ti-arm-clang.release.lib : uart_dma_udma.obj (.rodata.str1.67818304883869641861)
                  70010e29    0000001b     main.obj (.rodata.str1.79551435545072341851)
                  70010e44    0000001a     drivers.am64x.r5f.ti-arm-clang.release.lib : bootloader_soc.obj (.rodata.str1.133075567201283886171)
                  70010e5e    0000001a     nortos.am64x.r5f.ti-arm-clang.release.lib : TimerP.obj (.rodata.str1.160246686209138365701)
                  70010e78    0000001a                                               : ClockP_nortos_r5.obj (.rodata.str1.169616377957066558931)
                  70010e92    0000001a     drivers.am64x.r5f.ti-arm-clang.release.lib : bootloader_soc.obj (.rodata.str1.35896618803728278211)
                  70010eac    0000001a     main.obj (.rodata.str1.52501554851255701521)
                  70010ec6    00000019     nortos.am64x.r5f.ti-arm-clang.release.lib : TimerP.obj (.rodata.str1.170516325075394100231)
                  70010edf    00000019     drivers.am64x.r5f.ti-arm-clang.release.lib : bootloader_soc.obj (.rodata.str1.173612832747066941651)
                  70010ef8    00000019                                                : bootloader_soc.obj (.rodata.str1.181541439651868024511)
                  70010f11    00000019                                                : bootloader.obj (.rodata.str1.31402796831322128521)
                  70010f2a    00000002     --HOLE-- [fill = 0]
                  70010f2c    00000018                                                : bootloader_profile.obj (.rodata..Lswitch.table.Bootloader_profilePrintProfileLog)
                  70010f44    00000018                                                : sciclient_soc_priv.obj (.rodata..Lswitch.table.Sciclient_getDevId)
                  70010f5c    00000018     usbd_tusb_dfu_nortos.am64x.r5f.ti-arm-clang.release.lib : usbd.obj (.rodata._usbd_driver)
                  70010f74    00000018     dfu_descriptors.obj (.rodata.str1.129492348801253874111)
                  70010f8c    00000018     drivers.am64x.r5f.ti-arm-clang.release.lib : uart_v0.obj (.rodata.str1.144905129610797327471)
                  70010fa4    00000018                                                : sciclient_irq_rm.obj (.rodata.tisci_if_CMP_EVENT_INTROUTER0)
                  70010fbc    00000017                                                : bootloader.obj (.rodata.str1.89222897150519810611)
                  70010fd3    00000016                                                : soc.obj (.rodata.str1.142142527847712988791)
                  70010fe9    00000016                                                : uart_dma_udma.obj (.rodata.str1.58064152893147008181)
                  70010fff    00000016                                                : bootloader.obj (.rodata.str1.77590506196607141261)
                  70011015    00000015                                                : sciclient_boardcfg.obj (.rodata.str1.65453878383436959611)
                  7001102a    00000015     nortos.am64x.r5f.ti-arm-clang.release.lib : SemaphoreP_nortos.obj (.rodata.str1.67625122021398397081)
                  7001103f    00000015     drivers.am64x.r5f.ti-arm-clang.release.lib : bootloader_profile.obj (.rodata.str1.81203139757535820771)
                  70011054    00000014     nortos.am64x.r5f.ti-arm-clang.release.lib : TimerP.obj (.rodata.str1.88986405623045072391)
                  70011068    00000014     drivers.am64x.r5f.ti-arm-clang.release.lib : sciclient_irq_rm.obj (.rodata.tisci_if_PCIE0)
                  7001107c    00000013                                                : uart_dma_udma.obj (.rodata.str1.145558629777882325291)
                  7001108f    00000013                                                : uart_dma_udma.obj (.rodata.str1.58816005642906289831)
                  700110a2    00000013                                                : uart_v0.obj (.rodata.str1.60965199449619900431)
                  700110b5    00000001     --HOLE-- [fill = 0]
                  700110b6    00000012     dfu_descriptors.obj (.rodata.desc_device)
                  700110c8    00000012     drivers.am64x.r5f.ti-arm-clang.release.lib : uart_v0.obj (.rodata.str1.108170205221098943901)
                  700110da    00000012                                                : uart_dma_udma.obj (.rodata.str1.120400024971159958011)
                  700110ec    00000012                                                : uart_dma_udma.obj (.rodata.str1.143756269692443897091)
                  700110fe    00000012                                                : bootloader.obj (.rodata.str1.24728428003093102681)
                  70011110    00000012                                                : uart_v0.obj (.rodata.str1.62999113157451139141)
                  70011122    00000012                                                : uart_dma_udma.obj (.rodata.str1.92142058481998845101)
                  70011134    00000011     dfu_descriptors.obj (.rodata.str1.181533258369356199581)
                  70011145    00000011     ti_drivers_open_close.obj (.rodata.str1.47319419042038394831)
                  70011156    00000011     nortos.am64x.r5f.ti-arm-clang.release.lib : ClockP_nortos.obj (.rodata.str1.56392992661620616651)
                  70011167    00000011     drivers.am64x.r5f.ti-arm-clang.release.lib : uart_v0.obj (.rodata.str1.60774846955662521161)
                  70011178    00000010     usbd_cdn_nortos.am64x.r5f.ti-arm-clang.release.lib : cusbd.obj (.rodata.cst8)
                  70011188    00000010     drivers.am64x.r5f.ti-arm-clang.release.lib : sciclient_boardcfg.obj (.rodata.str1.50192617725484665461)
                  70011198    00000010                                                : sciclient_irq_rm.obj (.rodata.tisci_if_CPSW0)
                  700111a8    0000000e                                                : bootloader_profile.obj (.rodata.str1.73938047475404699101)
                  700111b6    0000000d     nortos.am64x.r5f.ti-arm-clang.release.lib : TimerP.obj (.rodata.str1.36936046049119147381)
                  700111c3    0000000d                                               : TimerP.obj (.rodata.str1.90798414294938570131)
                  700111d0    0000000c     usbd_tusb_dfu_nortos.am64x.r5f.ti-arm-clang.release.lib : usb_wrapper.obj (.rodata..L__const.disconnect.event)
                  700111dc    0000000c     dfu_descriptors.obj (.rodata.str1.112693500169584009511)
                  700111e8    0000000c     nortos.am64x.r5f.ti-arm-clang.release.lib : ClockP_nortos_r5.obj (.rodata.str1.43857604347425843821)
                  700111f4    00000004                                               : CacheP_armv7r.obj (.rodata.gCacheL1dCacheLineSize)
                  700111f8    0000000b     drivers.am64x.r5f.ti-arm-clang.release.lib : bootloader_soc.obj (.rodata..L__const.Bootloader_socGetBootSeqOid.boot_seq)
                  70011203    0000000b                                                : uart_v0.obj (.rodata.str1.147565038505633975661)
                  7001120e    0000000b                                                : uart_v0.obj (.rodata.str1.163246704051681974461)
                  70011219    0000000a                                                : bootloader_profile.obj (.rodata.str1.150419499726709475151)
                  70011223    0000000a     main.obj (.rodata.str1.176328792963337784071)
                  7001122d    0000000a     drivers.am64x.r5f.ti-arm-clang.release.lib : uart_v0.obj (.rodata.str1.181272059988846645511)
                  70011237    0000000a                                                : uart_v0.obj (.rodata.str1.27933745631974480251)
                  70011241    0000000a                                                : bootloader_profile.obj (.rodata.str1.35450365876429540601)
                  7001124b    00000009     main.obj (.rodata.str1.97993385775340092391)
                  70011254    00000008     drivers.am64x.r5f.ti-arm-clang.release.lib : sciclient_irq_rm.obj (.rodata.CMP_EVENT_INTROUTER0_outp_0_15_to_GICSS0_spi_48_63)
                  7001125c    00000008                                                : sciclient_irq_rm.obj (.rodata.CMP_EVENT_INTROUTER0_outp_16_23_to_R5FSS0_CORE0_intr_48_55)
                  70011264    00000008                                                : sciclient_irq_rm.obj (.rodata.CMP_EVENT_INTROUTER0_outp_16_23_to_R5FSS0_CORE1_intr_48_55)
                  7001126c    00000008                                                : sciclient_irq_rm.obj (.rodata.CMP_EVENT_INTROUTER0_outp_24_31_to_R5FSS1_CORE0_intr_48_55)
                  70011274    00000008                                                : sciclient_irq_rm.obj (.rodata.CMP_EVENT_INTROUTER0_outp_24_31_to_R5FSS1_CORE1_intr_48_55)
                  7001127c    00000008                                                : sciclient_irq_rm.obj (.rodata.CMP_EVENT_INTROUTER0_outp_32_39_to_DMASS0_INTAGGR_0_intaggr_levi_pend_0_7)
                  70011284    00000008                                                : sciclient_irq_rm.obj (.rodata.CPSW0_cpts_comp_0_0_to_CMP_EVENT_INTROUTER0_in_80_80)
                  7001128c    00000008                                                : sciclient_irq_rm.obj (.rodata.CPSW0_cpts_genf0_1_1_to_TIMESYNC_EVENT_INTROUTER0_in_21_21)
                  70011294    00000008                                                : sciclient_irq_rm.obj (.rodata.CPSW0_cpts_genf1_2_2_to_TIMESYNC_EVENT_INTROUTER0_in_22_22)
                  7001129c    00000008                                                : sciclient_irq_rm.obj (.rodata.CPSW0_cpts_sync_3_3_to_TIMESYNC_EVENT_INTROUTER0_in_34_34)
                  700112a4    00000008                                                : sciclient_irq_rm.obj (.rodata.CPTS0_cpts_comp_0_0_to_CMP_EVENT_INTROUTER0_in_82_82)
                  700112ac    00000008                                                : sciclient_irq_rm.obj (.rodata.CPTS0_cpts_genf0_1_1_to_TIMESYNC_EVENT_INTROUTER0_in_16_16)
                  700112b4    00000008                                                : sciclient_irq_rm.obj (.rodata.CPTS0_cpts_genf1_2_2_to_TIMESYNC_EVENT_INTROUTER0_in_17_17)
                  700112bc    00000008                                                : sciclient_irq_rm.obj (.rodata.CPTS0_cpts_genf2_3_3_to_TIMESYNC_EVENT_INTROUTER0_in_18_18)
                  700112c4    00000008                                                : sciclient_irq_rm.obj (.rodata.CPTS0_cpts_genf3_4_4_to_TIMESYNC_EVENT_INTROUTER0_in_19_19)
                  700112cc    00000008                                                : sciclient_irq_rm.obj (.rodata.CPTS0_cpts_genf4_5_5_to_TIMESYNC_EVENT_INTROUTER0_in_20_20)
                  700112d4    00000008                                                : sciclient_irq_rm.obj (.rodata.CPTS0_cpts_genf5_6_6_to_TIMESYNC_EVENT_INTROUTER0_in_24_24)
                  700112dc    00000008                                                : sciclient_irq_rm.obj (.rodata.CPTS0_cpts_sync_7_7_to_TIMESYNC_EVENT_INTROUTER0_in_35_35)
                  700112e4    00000008                                                : sciclient_irq_rm.obj (.rodata.DMASS0_INTAGGR_0_intaggr_vintr_pend_0_39_to_GICSS0_spi_64_103)
                  700112ec    00000008                                                : sciclient_irq_rm.obj (.rodata.DMASS0_INTAGGR_0_intaggr_vintr_pend_120_127_to_R5FSS1_CORE0_intr_8_15)
                  700112f4    00000008                                                : sciclient_irq_rm.obj (.rodata.DMASS0_INTAGGR_0_intaggr_vintr_pend_128_135_to_R5FSS1_CORE1_intr_8_15)
                  700112fc    00000008                                                : sciclient_irq_rm.obj (.rodata.DMASS0_INTAGGR_0_intaggr_vintr_pend_152_159_to_PRU_ICSSG0_pr1_slv_intr_16_23)
                  70011304    00000008                                                : sciclient_irq_rm.obj (.rodata.DMASS0_INTAGGR_0_intaggr_vintr_pend_160_167_to_PRU_ICSSG1_pr1_slv_intr_16_23)
                  7001130c    00000008                                                : sciclient_irq_rm.obj (.rodata.DMASS0_INTAGGR_0_intaggr_vintr_pend_168_183_to_MCU_M4FSS0_CORE0_nvic_32_47)
                  70011314    00000008                                                : sciclient_irq_rm.obj (.rodata.DMASS0_INTAGGR_0_intaggr_vintr_pend_40_71_to_R5FSS0_CORE0_intr_64_95)
                  7001131c    00000008                                                : sciclient_irq_rm.obj (.rodata.DMASS0_INTAGGR_0_intaggr_vintr_pend_40_71_to_R5FSS0_CORE1_intr_64_95)
                  70011324    00000008                                                : sciclient_irq_rm.obj (.rodata.DMASS0_INTAGGR_0_intaggr_vintr_pend_72_79_to_R5FSS0_CORE0_intr_8_15)
                  7001132c    00000008                                                : sciclient_irq_rm.obj (.rodata.DMASS0_INTAGGR_0_intaggr_vintr_pend_80_87_to_R5FSS0_CORE1_intr_8_15)
                  70011334    00000008                                                : sciclient_irq_rm.obj (.rodata.DMASS0_INTAGGR_0_intaggr_vintr_pend_88_119_to_R5FSS1_CORE0_intr_64_95)
                  7001133c    00000008                                                : sciclient_irq_rm.obj (.rodata.DMASS0_INTAGGR_0_intaggr_vintr_pend_88_119_to_R5FSS1_CORE1_intr_64_95)
                  70011344    00000008                                                : sciclient_irq_rm.obj (.rodata.EPWM0_epwm_synco_o_0_0_to_TIMESYNC_EVENT_INTROUTER0_in_39_39)
                  7001134c    00000008                                                : sciclient_irq_rm.obj (.rodata.EPWM3_epwm_synco_o_0_0_to_TIMESYNC_EVENT_INTROUTER0_in_40_40)
                  70011354    00000008                                                : sciclient_irq_rm.obj (.rodata.EPWM6_epwm_synco_o_0_0_to_TIMESYNC_EVENT_INTROUTER0_in_41_41)
                  7001135c    00000008                                                : sciclient_irq_rm.obj (.rodata.GPIO0_gpio_0_89_to_MAIN_GPIOMUX_INTROUTER0_in_0_89)
                  70011364    00000008                                                : sciclient_irq_rm.obj (.rodata.GPIO0_gpio_bank_90_98_to_MAIN_GPIOMUX_INTROUTER0_in_190_198)
                  7001136c    00000008                                                : sciclient_irq_rm.obj (.rodata.GPIO1_gpio_0_89_to_MAIN_GPIOMUX_INTROUTER0_in_90_179)
                  70011374    00000008                                                : sciclient_irq_rm.obj (.rodata.GPIO1_gpio_bank_90_98_to_MAIN_GPIOMUX_INTROUTER0_in_180_188)
                  7001137c    00000008                                                : sciclient_irq_rm.obj (.rodata.GPMC0_gpmc_sdmareq_0_0_to_DMASS0_INTAGGR_0_intaggr_levi_pend_29_29)
                  70011384    00000008                                                : sciclient_irq_rm.obj (.rodata.GTC0_gtc_push_event_0_0_to_TIMESYNC_EVENT_INTROUTER0_in_36_36)
                  7001138c    00000008                                                : sciclient_irq_rm.obj (.rodata.MAIN_GPIOMUX_INTROUTER0_outp_0_15_to_GICSS0_spi_32_47)
                  70011394    00000008                                                : sciclient_irq_rm.obj (.rodata.MAIN_GPIOMUX_INTROUTER0_outp_0_15_to_R5FSS0_CORE0_intr_32_47)
                  7001139c    00000008                                                : sciclient_irq_rm.obj (.rodata.MAIN_GPIOMUX_INTROUTER0_outp_0_15_to_R5FSS0_CORE1_intr_32_47)
                  700113a4    00000008                                                : sciclient_irq_rm.obj (.rodata.MAIN_GPIOMUX_INTROUTER0_outp_0_15_to_R5FSS1_CORE0_intr_32_47)
                  700113ac    00000008                                                : sciclient_irq_rm.obj (.rodata.MAIN_GPIOMUX_INTROUTER0_outp_0_15_to_R5FSS1_CORE1_intr_32_47)
                  700113b4    00000008                                                : sciclient_irq_rm.obj (.rodata.MAIN_GPIOMUX_INTROUTER0_outp_16_17_to_DMASS0_INTAGGR_0_intaggr_levi_pend_24_25)
                  700113bc    00000008                                                : sciclient_irq_rm.obj (.rodata.MAIN_GPIOMUX_INTROUTER0_outp_18_23_to_PRU_ICSSG0_pr1_iep0_cap_intr_req_4_9)
                  700113c4    00000008                                                : sciclient_irq_rm.obj (.rodata.MAIN_GPIOMUX_INTROUTER0_outp_18_23_to_PRU_ICSSG1_pr1_iep0_cap_intr_req_4_9)
                  700113cc    00000008                                                : sciclient_irq_rm.obj (.rodata.MAIN_GPIOMUX_INTROUTER0_outp_24_29_to_PRU_ICSSG0_pr1_iep1_cap_intr_req_10_15)
                  700113d4    00000008                                                : sciclient_irq_rm.obj (.rodata.MAIN_GPIOMUX_INTROUTER0_outp_24_29_to_PRU_ICSSG1_pr1_iep1_cap_intr_req_10_15)
                  700113dc    00000008                                                : sciclient_irq_rm.obj (.rodata.MAIN_GPIOMUX_INTROUTER0_outp_30_37_to_DMASS0_INTAGGR_0_intaggr_levi_pend_16_23)
                  700113e4    00000008                                                : sciclient_irq_rm.obj (.rodata.MAIN_GPIOMUX_INTROUTER0_outp_38_45_to_PRU_ICSSG0_pr1_slv_intr_46_53)
                  700113ec    00000008                                                : sciclient_irq_rm.obj (.rodata.MAIN_GPIOMUX_INTROUTER0_outp_46_53_to_PRU_ICSSG1_pr1_slv_intr_46_53)
                  700113f4    00000008                                                : sciclient_irq_rm.obj (.rodata.MCU_GPIO0_gpio_0_29_to_MCU_MCU_GPIOMUX_INTROUTER0_in_0_29)
                  700113fc    00000008                                                : sciclient_irq_rm.obj (.rodata.MCU_GPIO0_gpio_bank_30_31_to_MCU_MCU_GPIOMUX_INTROUTER0_in_30_31)
                  70011404    00000008                                                : sciclient_irq_rm.obj (.rodata.MCU_MCU_GPIOMUX_INTROUTER0_outp_0_3_to_GICSS0_spi_104_107)
                  7001140c    00000008                                                : sciclient_irq_rm.obj (.rodata.MCU_MCU_GPIOMUX_INTROUTER0_outp_0_3_to_R5FSS0_CORE0_intr_104_107)
                  70011414    00000008                                                : sciclient_irq_rm.obj (.rodata.MCU_MCU_GPIOMUX_INTROUTER0_outp_0_3_to_R5FSS0_CORE1_intr_104_107)
                  7001141c    00000008                                                : sciclient_irq_rm.obj (.rodata.MCU_MCU_GPIOMUX_INTROUTER0_outp_0_3_to_R5FSS1_CORE0_intr_104_107)
                  70011424    00000008                                                : sciclient_irq_rm.obj (.rodata.MCU_MCU_GPIOMUX_INTROUTER0_outp_0_3_to_R5FSS1_CORE1_intr_104_107)
                  7001142c    00000008                                                : sciclient_irq_rm.obj (.rodata.MCU_MCU_GPIOMUX_INTROUTER0_outp_4_7_to_MCU_M4FSS0_CORE0_nvic_0_3)
                  70011434    00000008                                                : sciclient_irq_rm.obj (.rodata.MCU_MCU_GPIOMUX_INTROUTER0_outp_8_11_to_MCU_ESM0_esm_pls_event0_88_91)
                  7001143c    00000008                                                : sciclient_irq_rm.obj (.rodata.MCU_MCU_GPIOMUX_INTROUTER0_outp_8_11_to_MCU_ESM0_esm_pls_event1_92_95)
                  70011444    00000008                                                : sciclient_irq_rm.obj (.rodata.MCU_MCU_GPIOMUX_INTROUTER0_outp_8_11_to_MCU_ESM0_esm_pls_event2_96_99)
                  7001144c    00000008                                                : sciclient_irq_rm.obj (.rodata.PCIE0_pcie_cpts_comp_0_0_to_CMP_EVENT_INTROUTER0_in_81_81)
                  70011454    00000008                                                : sciclient_irq_rm.obj (.rodata.PCIE0_pcie_cpts_genf0_1_1_to_TIMESYNC_EVENT_INTROUTER0_in_23_23)
                  7001145c    00000008                                                : sciclient_irq_rm.obj (.rodata.PCIE0_pcie_cpts_hw1_push_2_2_to_TIMESYNC_EVENT_INTROUTER0_in_37_37)
                  70011464    00000008                                                : sciclient_irq_rm.obj (.rodata.PCIE0_pcie_cpts_sync_3_3_to_TIMESYNC_EVENT_INTROUTER0_in_33_33)
                  7001146c    00000008                                                : sciclient_irq_rm.obj (.rodata.PCIE0_pcie_ptm_valid_pulse_4_4_to_TIMESYNC_EVENT_INTROUTER0_in_38_38)
                  70011474    00000008                                                : sciclient_irq_rm.obj (.rodata.PRU_ICSSG0_pr1_edc0_sync0_out_0_0_to_TIMESYNC_EVENT_INTROUTER0_in_25_25)
                  7001147c    00000008                                                : sciclient_irq_rm.obj (.rodata.PRU_ICSSG0_pr1_edc0_sync1_out_1_1_to_TIMESYNC_EVENT_INTROUTER0_in_26_26)
                  70011484    00000008                                                : sciclient_irq_rm.obj (.rodata.PRU_ICSSG0_pr1_edc1_sync0_out_2_2_to_TIMESYNC_EVENT_INTROUTER0_in_27_27)
                  7001148c    00000008                                                : sciclient_irq_rm.obj (.rodata.PRU_ICSSG0_pr1_edc1_sync1_out_3_3_to_TIMESYNC_EVENT_INTROUTER0_in_28_28)
                  70011494    00000008                                                : sciclient_irq_rm.obj (.rodata.PRU_ICSSG0_pr1_host_intr_req_4_11_to_CMP_EVENT_INTROUTER0_in_0_7)
                  7001149c    00000008                                                : sciclient_irq_rm.obj (.rodata.PRU_ICSSG0_pr1_iep0_cmp_intr_req_12_27_to_CMP_EVENT_INTROUTER0_in_16_31)
                  700114a4    00000008                                                : sciclient_irq_rm.obj (.rodata.PRU_ICSSG0_pr1_iep1_cmp_intr_req_28_43_to_CMP_EVENT_INTROUTER0_in_32_47)
                  700114ac    00000008                                                : sciclient_irq_rm.obj (.rodata.PRU_ICSSG1_pr1_edc0_sync0_out_0_0_to_TIMESYNC_EVENT_INTROUTER0_in_29_29)
                  700114b4    00000008                                                : sciclient_irq_rm.obj (.rodata.PRU_ICSSG1_pr1_edc0_sync1_out_1_1_to_TIMESYNC_EVENT_INTROUTER0_in_30_30)
                  700114bc    00000008                                                : sciclient_irq_rm.obj (.rodata.PRU_ICSSG1_pr1_edc1_sync0_out_2_2_to_TIMESYNC_EVENT_INTROUTER0_in_31_31)
                  700114c4    00000008                                                : sciclient_irq_rm.obj (.rodata.PRU_ICSSG1_pr1_edc1_sync1_out_3_3_to_TIMESYNC_EVENT_INTROUTER0_in_32_32)
                  700114cc    00000008                                                : sciclient_irq_rm.obj (.rodata.PRU_ICSSG1_pr1_host_intr_req_4_11_to_CMP_EVENT_INTROUTER0_in_8_15)
                  700114d4    00000008                                                : sciclient_irq_rm.obj (.rodata.PRU_ICSSG1_pr1_iep0_cmp_intr_req_12_27_to_CMP_EVENT_INTROUTER0_in_48_63)
                  700114dc    00000008                                                : sciclient_irq_rm.obj (.rodata.PRU_ICSSG1_pr1_iep1_cmp_intr_req_28_43_to_CMP_EVENT_INTROUTER0_in_64_79)
                  700114e4    00000008                                                : sciclient_irq_rm.obj (.rodata.TIMER0_timer_pwm_0_0_to_TIMESYNC_EVENT_INTROUTER0_in_0_0)
                  700114ec    00000008                                                : sciclient_irq_rm.obj (.rodata.TIMER1_timer_pwm_0_0_to_TIMESYNC_EVENT_INTROUTER0_in_1_1)
                  700114f4    00000008                                                : sciclient_irq_rm.obj (.rodata.TIMER2_timer_pwm_0_0_to_TIMESYNC_EVENT_INTROUTER0_in_2_2)
                  700114fc    00000008                                                : sciclient_irq_rm.obj (.rodata.TIMER3_timer_pwm_0_0_to_TIMESYNC_EVENT_INTROUTER0_in_3_3)
                  70011504    00000008                                                : sciclient_irq_rm.obj (.rodata.TIMESYNC_EVENT_INTROUTER0_outl_0_7_to_DMASS0_INTAGGR_0_intaggr_levi_pend_8_15)
                  7001150c    00000008                                                : sciclient_irq_rm.obj (.rodata.TIMESYNC_EVENT_INTROUTER0_outl_10_10_to_PRU_ICSSG0_pr1_edc1_latch0_in_2_2)
                  70011514    00000008                                                : sciclient_irq_rm.obj (.rodata.TIMESYNC_EVENT_INTROUTER0_outl_11_11_to_PRU_ICSSG0_pr1_edc1_latch1_in_3_3)
                  7001151c    00000008                                                : sciclient_irq_rm.obj (.rodata.TIMESYNC_EVENT_INTROUTER0_outl_12_12_to_PRU_ICSSG1_pr1_edc0_latch0_in_0_0)
                  70011524    00000008                                                : sciclient_irq_rm.obj (.rodata.TIMESYNC_EVENT_INTROUTER0_outl_13_13_to_PRU_ICSSG1_pr1_edc0_latch1_in_1_1)
                  7001152c    00000008                                                : sciclient_irq_rm.obj (.rodata.TIMESYNC_EVENT_INTROUTER0_outl_14_14_to_PRU_ICSSG1_pr1_edc1_latch0_in_2_2)
                  70011534    00000008                                                : sciclient_irq_rm.obj (.rodata.TIMESYNC_EVENT_INTROUTER0_outl_15_15_to_PRU_ICSSG1_pr1_edc1_latch1_in_3_3)
                  7001153c    00000008                                                : sciclient_irq_rm.obj (.rodata.TIMESYNC_EVENT_INTROUTER0_outl_16_16_to_CPTS0_cpts_hw1_push_0_0)
                  70011544    00000008                                                : sciclient_irq_rm.obj (.rodata.TIMESYNC_EVENT_INTROUTER0_outl_17_17_to_CPTS0_cpts_hw2_push_1_1)
                  7001154c    00000008                                                : sciclient_irq_rm.obj (.rodata.TIMESYNC_EVENT_INTROUTER0_outl_18_18_to_CPTS0_cpts_hw3_push_2_2)
                  70011554    00000008                                                : sciclient_irq_rm.obj (.rodata.TIMESYNC_EVENT_INTROUTER0_outl_19_19_to_CPTS0_cpts_hw4_push_3_3)
                  7001155c    00000008                                                : sciclient_irq_rm.obj (.rodata.TIMESYNC_EVENT_INTROUTER0_outl_20_20_to_CPTS0_cpts_hw5_push_4_4)
                  70011564    00000008                                                : sciclient_irq_rm.obj (.rodata.TIMESYNC_EVENT_INTROUTER0_outl_21_21_to_CPTS0_cpts_hw6_push_5_5)
                  7001156c    00000008                                                : sciclient_irq_rm.obj (.rodata.TIMESYNC_EVENT_INTROUTER0_outl_22_22_to_CPTS0_cpts_hw7_push_6_6)
                  70011574    00000008                                                : sciclient_irq_rm.obj (.rodata.TIMESYNC_EVENT_INTROUTER0_outl_23_23_to_CPTS0_cpts_hw8_push_7_7)
                  7001157c    00000008                                                : sciclient_irq_rm.obj (.rodata.TIMESYNC_EVENT_INTROUTER0_outl_29_29_to_PCIE0_pcie_cpts_hw2_push_0_0)
                  70011584    00000008                                                : sciclient_irq_rm.obj (.rodata.TIMESYNC_EVENT_INTROUTER0_outl_30_30_to_CPSW0_cpts_hw1_push_0_0)
                  7001158c    00000008                                                : sciclient_irq_rm.obj (.rodata.TIMESYNC_EVENT_INTROUTER0_outl_31_31_to_CPSW0_cpts_hw2_push_1_1)
                  70011594    00000008                                                : sciclient_irq_rm.obj (.rodata.TIMESYNC_EVENT_INTROUTER0_outl_32_32_to_CPSW0_cpts_hw3_push_2_2)
                  7001159c    00000008                                                : sciclient_irq_rm.obj (.rodata.TIMESYNC_EVENT_INTROUTER0_outl_33_33_to_CPSW0_cpts_hw4_push_3_3)
                  700115a4    00000008                                                : sciclient_irq_rm.obj (.rodata.TIMESYNC_EVENT_INTROUTER0_outl_34_34_to_CPSW0_cpts_hw5_push_4_4)
                  700115ac    00000008                                                : sciclient_irq_rm.obj (.rodata.TIMESYNC_EVENT_INTROUTER0_outl_35_35_to_CPSW0_cpts_hw6_push_5_5)
                  700115b4    00000008                                                : sciclient_irq_rm.obj (.rodata.TIMESYNC_EVENT_INTROUTER0_outl_36_36_to_CPSW0_cpts_hw7_push_6_6)
                  700115bc    00000008                                                : sciclient_irq_rm.obj (.rodata.TIMESYNC_EVENT_INTROUTER0_outl_37_37_to_CPSW0_cpts_hw8_push_7_7)
                  700115c4    00000008                                                : sciclient_irq_rm.obj (.rodata.TIMESYNC_EVENT_INTROUTER0_outl_8_8_to_PRU_ICSSG0_pr1_edc0_latch0_in_0_0)
                  700115cc    00000008                                                : sciclient_irq_rm.obj (.rodata.TIMESYNC_EVENT_INTROUTER0_outl_9_9_to_PRU_ICSSG0_pr1_edc0_latch1_in_1_1)
                  700115d4    00000008                                                : bootloader_profile.obj (.rodata.str1.106778703375402328231)
                  700115dc    00000008                                                : soc.obj (.rodata.str1.151300073707883173501)
                  700115e4    00000008     main.obj (.rodata.str1.42969106790848045441)
                  700115ec    00000008     drivers.am64x.r5f.ti-arm-clang.release.lib : bootloader_profile.obj (.rodata.str1.77606319027626426401)
                  700115f4    00000008                                                : sciclient_irq_rm.obj (.rodata.tisci_if_GPIO0)
                  700115fc    00000008                                                : sciclient_irq_rm.obj (.rodata.tisci_if_GPIO1)
                  70011604    00000008                                                : sciclient_irq_rm.obj (.rodata.tisci_if_MCU_GPIO0)
                  7001160c    00000008                                                : sciclient_irq_rm.obj (.rodata.tisci_irq_CMP_EVENT_INTROUTER0)
                  70011614    00000008                                                : sciclient_irq_rm.obj (.rodata.tisci_irq_CPSW0)
                  7001161c    00000008                                                : sciclient_irq_rm.obj (.rodata.tisci_irq_CPTS0)
                  70011624    00000008                                                : sciclient_irq_rm.obj (.rodata.tisci_irq_DMASS0_INTAGGR_0)
                  7001162c    00000008                                                : sciclient_irq_rm.obj (.rodata.tisci_irq_EPWM0)
                  70011634    00000008                                                : sciclient_irq_rm.obj (.rodata.tisci_irq_EPWM3)
                  7001163c    00000008                                                : sciclient_irq_rm.obj (.rodata.tisci_irq_EPWM6)
                  70011644    00000008                                                : sciclient_irq_rm.obj (.rodata.tisci_irq_GPIO0)
                  7001164c    00000008                                                : sciclient_irq_rm.obj (.rodata.tisci_irq_GPIO1)
                  70011654    00000008                                                : sciclient_irq_rm.obj (.rodata.tisci_irq_GPMC0)
                  7001165c    00000008                                                : sciclient_irq_rm.obj (.rodata.tisci_irq_GTC0)
                  70011664    00000008                                                : sciclient_irq_rm.obj (.rodata.tisci_irq_MAIN_GPIOMUX_INTROUTER0)
                  7001166c    00000008                                                : sciclient_irq_rm.obj (.rodata.tisci_irq_MCU_GPIO0)
                  70011674    00000008                                                : sciclient_irq_rm.obj (.rodata.tisci_irq_MCU_MCU_GPIOMUX_INTROUTER0)
                  7001167c    00000008                                                : sciclient_irq_rm.obj (.rodata.tisci_irq_PCIE0)
                  70011684    00000008                                                : sciclient_irq_rm.obj (.rodata.tisci_irq_PRU_ICSSG0)
                  7001168c    00000008                                                : sciclient_irq_rm.obj (.rodata.tisci_irq_PRU_ICSSG1)
                  70011694    00000008                                                : sciclient_irq_rm.obj (.rodata.tisci_irq_TIMER0)
                  7001169c    00000008                                                : sciclient_irq_rm.obj (.rodata.tisci_irq_TIMER1)
                  700116a4    00000008                                                : sciclient_irq_rm.obj (.rodata.tisci_irq_TIMER2)
                  700116ac    00000008                                                : sciclient_irq_rm.obj (.rodata.tisci_irq_TIMER3)
                  700116b4    00000008                                                : sciclient_irq_rm.obj (.rodata.tisci_irq_TIMESYNC_EVENT_INTROUTER0)
                  700116bc    00000007                                                : soc.obj (.rodata.str1.129767934033827004281)
                  700116c3    00000007                                                : soc.obj (.rodata.str1.138084936035417385701)
                  700116ca    00000007                                                : soc.obj (.rodata.str1.173614026293195413571)
                  700116d1    00000007                                                : soc.obj (.rodata.str1.3343999558335659791)
                  700116d8    00000007                                                : soc.obj (.rodata.str1.49904740890756480101)
                  700116df    00000007                                                : soc.obj (.rodata.str1.69992811825708899781)
                  700116e6    00000007                                                : soc.obj (.rodata.str1.9860660422802257791)
                  700116ed    00000006                                                : bootloader_soc.obj (.rodata..L__const.Bootloader_socOpenFirewalls.fwlIds)
                  700116f3    00000006     dfu_descriptors.obj (.rodata.str1.162151503693240653221)
                  700116f9    00000005     nortos.am64x.r5f.ti-arm-clang.release.lib : printf.obj (.rodata.str1.180255128143303278211)
                  700116fe    00000005     drivers.am64x.r5f.ti-arm-clang.release.lib : bootloader_profile.obj (.rodata.str1.35913918899629823491)
                  70011703    00000005                                                : bootloader_profile.obj (.rodata.str1.53977571147357041301)
                  70011708    00000005     main.obj (.rodata.str1.61711049162809177441)
                  7001170d    00000005     nortos.am64x.r5f.ti-arm-clang.release.lib : printf.obj (.rodata.str1.62992066646743021711)
                  70011712    00000002     --HOLE-- [fill = 0]
                  70011714    00000004                                               : CacheP_armv7r.obj (.rodata.gCacheL1pCacheLineSize)
                  70011718    00000004     drivers.am64x.r5f.ti-arm-clang.release.lib : sciclient_irq_rm.obj (.rodata.gRmIrqTreeCount)
                  7001171c    00000004     nortos.am64x.r5f.ti-arm-clang.release.lib : printf.obj (.rodata.str1.83442741595977738081)
                  70011720    00000004                                               : printf.obj (.rodata.str1.92767893489218153371)
                  70011724    00000004     drivers.am64x.r5f.ti-arm-clang.release.lib : sciclient_irq_rm.obj (.rodata.tisci_if_EPWM0)
                  70011728    00000004                                                : sciclient_irq_rm.obj (.rodata.tisci_if_EPWM3)
                  7001172c    00000004                                                : sciclient_irq_rm.obj (.rodata.tisci_if_EPWM6)
                  70011730    00000004                                                : sciclient_irq_rm.obj (.rodata.tisci_if_GPMC0)
                  70011734    00000004                                                : sciclient_irq_rm.obj (.rodata.tisci_if_GTC0)
                  70011738    00000004                                                : sciclient_irq_rm.obj (.rodata.tisci_if_TIMER0)
                  7001173c    00000004                                                : sciclient_irq_rm.obj (.rodata.tisci_if_TIMER1)
                  70011740    00000004                                                : sciclient_irq_rm.obj (.rodata.tisci_if_TIMER2)
                  70011744    00000004                                                : sciclient_irq_rm.obj (.rodata.tisci_if_TIMER3)

.bss.nocache 
*          0    70050000    00007590     NOLOAD SECTION
                  70050000    00007590     usbd_tusb_dfu_nortos.am64x.r5f.ti-arm-clang.release.lib : usb_wrapper.obj (.bss.nocache)

.bss       0    7005c000    00002020     UNINITIALIZED
                  7005c000    00001008     (.common:gHwiCtrl)
                  7005d008    00000900     (.common:cdns_dsr_qdef_buf)
                  7005d908    00000368     ti_drivers_config.obj (.bss.gUartObjects)
                  7005dc70    0000011c     (.common:gProfileObj)
                  7005dd8c    000000c0     (.common:_usbd_qdef_buf)
                  7005de4c    00000058     (.common:usb_handle)
                  7005dea4    00000004     usbd_tusb_dfu_nortos.am64x.r5f.ti-arm-clang.release.lib : usbd.obj (.bss._usbd_q)
                  7005dea8    00000053                                                             : usbd.obj (.bss._usbd_dev)
                  7005defb    00000001     --HOLE--
                  7005defc    00000040     dfu_descriptors.obj (.bss._desc_str)
                  7005df3c    00000004     nortos.am64x.r5f.ti-arm-clang.release.lib : HwiP_armv7r_vim.obj (.bss.gdummy)
                  7005df40    00000040     usbd_tusb_dfu_nortos.am64x.r5f.ti-arm-clang.release.lib : usbd_control.obj (.bss._usbd_ctrl_buf)
                  7005df80    00000038     (.common:gClockCtrl)
                  7005dfb8    00000028     drivers.am64x.r5f.ti-arm-clang.release.lib : sciclient_rm_irq.obj (.bss.gPstack)
                  7005dfe0    00000014     usbd_tusb_dfu_nortos.am64x.r5f.ti-arm-clang.release.lib : usbd_control.obj (.bss._ctrl_xfer)
                  7005dff4    00000014     (.common:cdns_dsr_qdef_queue)
                  7005e008    0000000c     (.common:sysReqCusbd)
                  7005e014    00000004     (.common:cdns_dsr_q)
                  7005e018    00000004     (.common:gUartHandle)
                  7005e01c    00000004     --HOLE--

.bss._dfu_ctx 
*          0    7005e020    0000020c     UNINITIALIZED
                  7005e020    0000020c     usbd_tusb_dfu_nortos.am64x.r5f.ti-arm-clang.release.lib : dfu_device.obj (.bss._dfu_ctx)

.stack     0    70058000    00004000     UNINITIALIZED
                  70058000    00000004     nortos.am64x.r5f.ti-arm-clang.release.lib : boot_armv7r_asm.obj (.stack)
                  70058004    00003ffc     --HOLE--

.irqstack 
*          0    7005e230    00001000     UNINITIALIZED
                  7005e230    00001000     --HOLE--

.fiqstack 
*          0    7005f230    00000100     UNINITIALIZED
                  7005f230    00000100     --HOLE--

.svcstack 
*          0    7005f330    00000100     UNINITIALIZED
                  7005f330    00000100     --HOLE--

.abortstack 
*          0    7005f430    00000100     UNINITIALIZED
                  7005f430    00000100     --HOLE--

.undefinedstack 
*          0    7005f530    00000100     UNINITIALIZED
                  7005f530    00000100     --HOLE--

.bss.filebuf 
*          0    70180000    00060000     NOLOAD SECTION
                  70180000    00060000     main.obj (.bss.filebuf)

__llvm_prf_cnts 
*          0    70058000    00000000     UNINITIALIZED

__llvm_prf_bits 
*          0    70058000    00000000     UNINITIALIZED

MODULE SUMMARY

       Module                                   code    ro data   rw data
       ------                                   ----    -------   -------
    obj/release/
       main.obj                                 870     136       393229 
       ti_drivers_config.obj                    70      0         948    
       dfu_descriptors.obj                      152     106       84     
       ti_drivers_open_close.obj                126     70        124    
       ti_dpl_config.obj                        90      116       28     
       ti_power_clock_config.obj                164     0         36     
       ti_pinmux_config.obj                     34      0         40     
       ti_board_open_close.obj                  4       0         0      
    +--+----------------------------------------+-------+---------+---------+
       Total:                                   1510    428       394489 
                                                                         
    /home/epswbld5/ti/ccs1270/ccs/tools/compiler/ti-cgt-armllvm_3.2.2.LTS/lib/armv7r-ti-none-eabihf/c/libc.a
       autoinit.c.obj                           88      0         0      
       memcpy32.S.obj                           28      0         0      
       memset32.S.obj                           24      0         0      
       exit.c.obj                               8       0         0      
    +--+----------------------------------------+-------+---------+---------+
       Total:                                   148     0         0      
                                                                         
    /home/epswbld5/ti/ccs1270/ccs/tools/compiler/ti-cgt-armllvm_3.2.2.LTS/lib/clang/15.0.7/lib/armv7r-ti-none-eabihf/libclang_rt.builtins.a
       udivmoddi4.S.obj                         280     0         0      
       aeabi_uldivmod.S.obj                     36      0         0      
       aeabi_memset.S.obj                       28      0         0      
       aeabi_memcpy.S.obj                       12      0         0      
       aeabi_div0.c.obj                         4       0         0      
    +--+----------------------------------------+-------+---------+---------+
       Total:                                   360     0         0      
                                                                         
    /nightlybuilds/mcupsdk_internal/jenkins/mcu_plus_sdk_am64x_09_02_01_05/source/drivers/lib/drivers.am64x.r5f.ti-arm-clang.release.lib
       bootloader_soc.obj                       3216    1200      384    
       sciclient_rm_irq.obj                     4442    0         40     
       udma_ch.obj                              3890    0         0      
       udma_rm.obj                              3518    0         0      
       uart_v0_lld.obj                          3396    32        0      
       uart_v0.obj                              1962    199       156    
       udma_event.obj                           2002    0         0      
       bootloader.obj                           1704    279       0      
       sciclient_irq_rm.obj                     0       1612      332    
       csl_bcdma.obj                            1838    0         0      
       sciclient.obj                            1444    0         21     
       uart_dma_udma.obj                        1216    178       0      
       sciclient_pm.obj                         1254    0         0      
       bootloader_profile.obj                   492     416       284    
       soc.obj                                  694     155       0      
       udma_ring_common.obj                     810     0         0      
       sciclient_rm.obj                         686     0         0      
       sciclient_procboot.obj                   560     0         0      
       udma_soc.obj                             78      468       0      
       csl_pktdma.obj                           476     0         0      
       udma_flow.obj                            312     0         0      
       sciclient_fmwSecureProxyMap.obj          0       300       0      
       pinmux.obj                               198     0         0      
       sciclient_boardcfg.obj                   128     68        0      
       sciclient_soc_priv.obj                   104     24        32     
       csl_intaggr.obj                          158     0         0      
       sciclient_firewall.obj                   128     0         0      
       bootloader_mem.obj                       78      0         20     
       udma_utils.obj                           66      0         0      
       csl_lcdma_ringacc.obj                    16      0         0      
       csl_sec_proxy.obj                        10      0         0      
       lpddr4.obj                               8       0         0      
    +--+----------------------------------------+-------+---------+---------+
       Total:                                   34884   4931      1269   
                                                                         
    /nightlybuilds/mcupsdk_internal/jenkins/mcu_plus_sdk_am64x_09_02_01_05/source/kernel/nortos/lib/nortos.am64x.r5f.ti-arm-clang.release.lib
       HwiP_armv7r_vim.obj                      1032    0         4108   
       printf.obj                               4002    98        0      
       CacheP_armv7r_asm.obj                    856     0         0      
       ClockP_nortos.obj                        656     90        56     
       TimerP.obj                               516     271       0      
       HwiP_armv7r_handlers_nortos.obj          544     0         0      
       ClockP_nortos_r5.obj                     266     176       0      
       SemaphoreP_nortos.obj                    328     107       0      
       MpuP_armv7r.obj                          398     0         0      
       boot_armv7r_asm.obj                      252     0         0      
       CacheP_armv7r.obj                        216     8         0      
       DebugP_log.obj                           154     42        4      
       HwiP_armv7r_handlers_nortos_asm.obj      192     0         0      
       HwiP_armv7r_asm.obj                      152     0         0      
       MpuP_armv7r_asm.obj                      128     0         0      
       AddrTranslateP.obj                       104     0         12     
       PmuP_armv7r.obj                          96      0         8      
       DebugP_uartLogWriter.obj                 70      0         4      
       HwiP_armv7r_vectors_nortos_sbl_asm.obj   64      0         0      
       DebugP_nortos.obj                        56      0         0      
       PmuP_armv7r_asm.obj                      56      0         0      
       boot_armv7r.obj                          28      0         0      
       TaskP_nortos.obj                         2       0         0      
    +--+----------------------------------------+-------+---------+---------+
       Total:                                   10168   792       4192   
                                                                         
    /nightlybuilds/mcupsdk_internal/jenkins/mcu_plus_sdk_am64x_09_02_01_05/source/usb/cdn/lib/usbd_cdn_nortos.am64x.r5f.ti-arm-clang.release.lib
       cusbd.obj                                6360    48        2340   
       cusbdma.obj                              2610    0         0      
       cusbd_sanity.obj                         328     0         0      
       cdn_osal_none.obj                        294     0         0      
       cusbdma_sanity.obj                       212     0         0      
       usbss_functions.obj                      148     0         0      
       usb_init.obj                             66      0         28     
       cusbd_obj_if.obj                         10      0         76     
       cusbdma_obj_if.obj                       10      0         48     
       cps.obj                                  18      0         0      
    +--+----------------------------------------+-------+---------+---------+
       Total:                                   10056   48        2492   
                                                                         
    /nightlybuilds/mcupsdk_internal/jenkins/mcu_plus_sdk_am64x_09_02_01_05/source/usb/tinyusb/lib/usbd_tusb_dfu_nortos.am64x.r5f.ti-arm-clang.release.lib
       usb_wrapper.obj                          786     12        30452  
       usbd.obj                                 2722    24        309    
       dfu_device.obj                           966     0         524    
       dcd.obj                                  920     0         0      
       usbd_control.obj                         486     0         84     
       tusb_fifo.obj                            230     0         0      
       tusb.obj                                 48      0         0      
    +--+----------------------------------------+-------+---------+---------+
       Total:                                   6158    36        31369  
                                                                         
       Stack:                                   0       0         16384  
    +--+----------------------------------------+-------+---------+---------+
       Grand Total:                             63284   6235      450195 

VENEERS

callee name               veneer name
   callee addr  veneer addr  call addr  call info
--------------  -----------  ---------  ----------------
__aeabi_memcpy            $Ven$TA$L$PI$$__aeabi_memcpy
   7000e8f4     7000e900     7000e71a   drivers.am64x.r5f.ti-arm-clang.release.lib : bootloader_soc.obj (.text.Bootloader_socGetBootSeqOid)
HwiP_restore              $Ven$TA$L$PI$$HwiP_restore
   7000f058     7000e908     7000cd6c   nortos.am64x.r5f.ti-arm-clang.release.lib : ClockP_nortos.obj (.text.ClockP_stop)
                             7000d64c                                             : ClockP_nortos.obj (.text.ClockP_destruct)
                             7000d804                                             : ClockP_nortos.obj (.text.ClockP_start)
                             7000d902                                             : SemaphoreP_nortos.obj (.text.SemaphoreP_post)
HwiP_enable               $Ven$TA$L$PI$$HwiP_enable
   7000f038     7000e910     7000c874   ti_dpl_config.obj (.text.Dpl_init)
PmuP_enableCounters       $Ven$TA$L$PI$$PmuP_enableCounters
   7000d9ac     7000e918     7000b58e   nortos.am64x.r5f.ti-arm-clang.release.lib : PmuP_armv7r.obj (.text.pmu)
CacheP_wb                 $Ven$TA$L$PI$$CacheP_wb
   7000f184     7000e920     7000af20   drivers.am64x.r5f.ti-arm-clang.release.lib : uart_dma_udma.obj (.text.UART_udmaHpdInit)
HwiP_enableFIQ            $Ven$TA$L$PI$$HwiP_enableFIQ
   7000f048     7000f088     7000ed22   nortos.am64x.r5f.ti-arm-clang.release.lib : HwiP_armv7r_vim.obj (.text.hwi)
CacheP_invL1d             $Ven$TA$L$PI$$CacheP_invL1d
   7000f100     7000f4a8     7000f4a4   nortos.am64x.r5f.ti-arm-clang.release.lib : CacheP_armv7r.obj (.text.cache)
CacheP_enableL1p          $Ven$TA$L$PI$$CacheP_enableL1p
   7000f0e8     7000f4b0     7000f47e   nortos.am64x.r5f.ti-arm-clang.release.lib : CacheP_armv7r.obj (.text.cache)
HwiP_restore              $Ven$TA$L$PI$$HwiP_restore
   7000f058     7000f4b8     7000f45e   nortos.am64x.r5f.ti-arm-clang.release.lib : CacheP_armv7r.obj (.text.cache)
HwiP_restore              $Ven$TA$L$PI$$HwiP_restore
   7000f058     7000f6c8     7000f5ac   nortos.am64x.r5f.ti-arm-clang.release.lib : MpuP_armv7r.obj (.text.mpu)
                             7000f5e6                                             : MpuP_armv7r.obj (.text.mpu)
MpuP_isEnableAsm          $Ven$TA$L$PI$$MpuP_isEnableAsm
   7000f6a0     7000f6d0     7000f57c   nortos.am64x.r5f.ti-arm-clang.release.lib : MpuP_armv7r.obj (.text.mpu)

[11 trampolines]
[15 trampoline calls]


GLOBAL SYMBOLS: SORTED ALPHABETICALLY BY Name 

address   name                                                                          
-------   ----                                                                          
7000af25  AddrTranslateP_getLocalAddr                                                   
7000e8af  Board_driversOpen                                                             
7000d871  Bootloader_BootImageInfo_init                                                 
7000e78f  Bootloader_Params_init                                                        
7000e665  Bootloader_close                                                              
7000dfbf  Bootloader_enableMCUPLL                                                       
7000c1c1  Bootloader_findSeq                                                            
7000e675  Bootloader_getBootMedia                                                       
70008f81  Bootloader_getMsgLen                                                          
7000e7f1  Bootloader_getMulticoreImageSize                                              
7000e685  Bootloader_isCorePresent                                                      
7000c94b  Bootloader_loadCpu                                                            
70008611  Bootloader_loadSelfCpu                                                        
7000d3b1  Bootloader_open                                                               
70008309  Bootloader_parseMultiCoreAppImage                                             
7000e345  Bootloader_profileAddCore                                                     
7000dd5d  Bootloader_profileAddProfilePoint                                             
700064f1  Bootloader_profilePrintProfileLog                                             
7000cc71  Bootloader_profileReset                                                       
7000e6f5  Bootloader_profileUpdateAppimageSize                                          
7000e703  Bootloader_profileUpdateMediaAndClk                                           
70007fcf  Bootloader_rprcImageLoad                                                      
7000b5bf  Bootloader_runCpu                                                             
7000ded1  Bootloader_runSelfCpu                                                         
7000e3ad  Bootloader_socAuthImage                                                       
7000e211  Bootloader_socCpuGetClkDefault                                                
7000b127  Bootloader_socCpuGetClock                                                     
7000dc45  Bootloader_socCpuPowerOnReset                                                 
7000aa63  Bootloader_socCpuPowerOnResetA53                                              
70007733  Bootloader_socCpuPowerOnResetM4f                                              
70004081  Bootloader_socCpuPowerOnResetR5f                                              
7000af8d  Bootloader_socCpuRelease                                                      
7000aff5  Bootloader_socCpuRequest                                                      
70003e61  Bootloader_socCpuResetRelease                                                 
700060bd  Bootloader_socCpuResetReleaseSelf                                             
7000a8fd  Bootloader_socCpuSetClock                                                     
70009ea7  Bootloader_socCpuSetEntryPoint                                                
7000d68b  Bootloader_socEnableICSSCores                                                 
7000e711  Bootloader_socGetBootSeqOid                                                   
7000dfdf  Bootloader_socGetCoreName                                                     
7000e7fb  Bootloader_socGetSBLMem                                                       
7000e22d  Bootloader_socIsAuthRequired                                                  
7000db41  Bootloader_socIsMCUResetIsoEnabled                                            
7000def3  Bootloader_socIsR5FSSDual                                                     
7000abb9  Bootloader_socMemInitCpu                                                      
7000e46d  Bootloader_socNotifyFirewallOpen                                              
7000a615  Bootloader_socOpenFirewalls                                                   
7000dfff  Bootloader_socRprcToCslCoreId                                                 
7000d563  Bootloader_socTranslateSectionAddr                                            
7000e8b3  Bootloader_socWaitForFWBoot                                                   
70004a9d  Bootloader_verifyMulticoreImage                                               
7000e888  C$$EXIT                                                                       
70011254  CMP_EVENT_INTROUTER0_outp_0_15_to_GICSS0_spi_48_63                            
7001125c  CMP_EVENT_INTROUTER0_outp_16_23_to_R5FSS0_CORE0_intr_48_55                    
70011264  CMP_EVENT_INTROUTER0_outp_16_23_to_R5FSS0_CORE1_intr_48_55                    
7001126c  CMP_EVENT_INTROUTER0_outp_24_31_to_R5FSS1_CORE0_intr_48_55                    
70011274  CMP_EVENT_INTROUTER0_outp_24_31_to_R5FSS1_CORE1_intr_48_55                    
7001127c  CMP_EVENT_INTROUTER0_outp_32_39_to_DMASS0_INTAGGR_0_intaggr_levi_pend_0_7     
70011284  CPSW0_cpts_comp_0_0_to_CMP_EVENT_INTROUTER0_in_80_80                          
7001128c  CPSW0_cpts_genf0_1_1_to_TIMESYNC_EVENT_INTROUTER0_in_21_21                    
70011294  CPSW0_cpts_genf1_2_2_to_TIMESYNC_EVENT_INTROUTER0_in_22_22                    
7001129c  CPSW0_cpts_sync_3_3_to_TIMESYNC_EVENT_INTROUTER0_in_34_34                     
7000e5d5  CPS_DelayNs                                                                   
7000e8b7  CPS_UncachedRead32                                                            
7000e8bb  CPS_UncachedWrite32                                                           
700112a4  CPTS0_cpts_comp_0_0_to_CMP_EVENT_INTROUTER0_in_82_82                          
700112ac  CPTS0_cpts_genf0_1_1_to_TIMESYNC_EVENT_INTROUTER0_in_16_16                    
700112b4  CPTS0_cpts_genf1_2_2_to_TIMESYNC_EVENT_INTROUTER0_in_17_17                    
700112bc  CPTS0_cpts_genf2_3_3_to_TIMESYNC_EVENT_INTROUTER0_in_18_18                    
700112c4  CPTS0_cpts_genf3_4_4_to_TIMESYNC_EVENT_INTROUTER0_in_19_19                    
700112cc  CPTS0_cpts_genf4_5_5_to_TIMESYNC_EVENT_INTROUTER0_in_20_20                    
700112d4  CPTS0_cpts_genf5_6_6_to_TIMESYNC_EVENT_INTROUTER0_in_24_24                    
700112dc  CPTS0_cpts_sync_7_7_to_TIMESYNC_EVENT_INTROUTER0_in_35_35                     
70005039  CSL_bcdmaChanOp                                                               
7000d59f  CSL_bcdmaGetCfg                                                               
7000de1b  CSL_bcdmaGetChanPeerReg                                                       
7000e483  CSL_bcdmaGetRxRT                                                              
7000e499  CSL_bcdmaGetTxRT                                                              
7000df15  CSL_bcdmaSetChanPeerReg                                                       
7000e4af  CSL_bcdmaSetRxRT                                                              
7000e4c5  CSL_bcdmaSetTxRT                                                              
7000e13f  CSL_bcdmaTeardownRxChan                                                       
7000e15d  CSL_bcdmaTeardownTxChan                                                       
7000c4c5  CSL_intaggrClrIntr                                                            
7000be8f  CSL_intaggrIsIntrPending                                                      
7000e695  CSL_lcdma_ringaccIsTeardownComplete                                           
7000e249  CSL_pktdmaGetChanPeerReg                                                      
7000db6d  CSL_pktdmaGetRxRT                                                             
7000db99  CSL_pktdmaGetTxRT                                                             
7000e265  CSL_pktdmaSetChanPeerReg                                                      
7000e01f  CSL_pktdmaSetRxRT                                                             
7000e03f  CSL_pktdmaSetTxRT                                                             
700025b3  CSL_pktdmaTeardownRxChan                                                      
7000e891  CSL_pktdmaTeardownTxChan                                                      
7000e805  CSL_secProxyGetDataAddr                                                       
700073d7  CUSBDMA_ChannelAlloc                                                          
7000c713  CUSBDMA_ChannelFreeHeadTrbChain                                               
7000979d  CUSBDMA_ChannelHandleStall                                                    
70007041  CUSBDMA_ChannelProgram                                                        
7000761d  CUSBDMA_ChannelRelease                                                        
70009fc5  CUSBDMA_ChannelReset                                                          
7000da2d  CUSBDMA_ChannelSetMaxPktSz                                                    
7000d3ef  CUSBDMA_ChannelTrigger                                                        
7000dd83  CUSBDMA_ChannelUpdateState                                                    
7000ccf1  CUSBDMA_Destroy                                                               
7000bb87  CUSBDMA_DmaControllerSF                                                       
7000e80f  CUSBDMA_GetInstance                                                           
70009837  CUSBDMA_Init                                                                  
7000e3c5  CUSBDMA_Probe                                                                 
7000e5e7  CUSBDMA_SanityFunction1                                                       
7000e4db  CUSBDMA_SanityFunction2                                                       
7000e71f  CUSBDMA_SanityFunction3                                                       
7000e17b  CUSBDMA_SanityFunction5                                                       
7000dc6d  CUSBDMA_SanityFunction7                                                       
7000e72d  CUSBD_DClearSelfpowered                                                       
7000e35f  CUSBD_DGetConfigParams                                                        
7000e05f  CUSBD_DGetFrame                                                               
7000e73b  CUSBD_DSetSelfpowered                                                         
7000e8bf  CUSBD_Destroy                                                                 
70009661  CUSBD_EpDisable                                                               
70004c87  CUSBD_EpEnable                                                                
7000d733  CUSBD_EpFifoFlush                                                             
7000e8c3  CUSBD_EpFifoStatus                                                            
70008c47  CUSBD_EpSetHalt                                                               
7000c98f  CUSBD_EpSetWedge                                                              
7000e869  CUSBD_GetDevInstance                                                          
7000e819  CUSBD_GetInstance                                                             
7000305d  CUSBD_Init                                                                    
70005f47  CUSBD_Isr                                                                     
70009b35  CUSBD_PrivateDataSF                                                           
7000c20f  CUSBD_Probe                                                                   
7000c75b  CUSBD_ReqDequeue                                                              
70006789  CUSBD_ReqQueue                                                                
7000e571  CUSBD_SanityFunction1                                                         
7000e07f  CUSBD_SanityFunction13                                                        
7000e549  CUSBD_SanityFunction16                                                        
7000e55d  CUSBD_SanityFunction19                                                        
7000e3dd  CUSBD_SanityFunction2                                                         
7000e749  CUSBD_SanityFunction3                                                         
7000e281  CUSBD_SanityFunction7                                                         
7000e4f1  CUSBD_SanityFunction8                                                         
7000bc39  CUSBD_Start                                                                   
7000e199  CUSBD_Stop                                                                    
7000f3a0  CacheP_configForceWrThru                                                      
7000f429  CacheP_disable                                                                
7000f090  CacheP_disableL1d                                                             
7000f0b8  CacheP_disableL1p                                                             
7000f463  CacheP_enable                                                                 
7000f0d0  CacheP_enableL1d                                                              
7000f0e8  CacheP_enableL1p                                                              
7000f394  CacheP_getCacheLevelInfo                                                      
7000f35c  CacheP_getEnabled                                                             
7000f3d1  CacheP_init                                                                   
7000f483  CacheP_inv                                                                    
7000f100  CacheP_invL1d                                                                 
7000f174  CacheP_invL1dAll                                                              
7000f138  CacheP_invL1p                                                                 
7000f17c  CacheP_invL1pAll                                                              
7000f3c0  CacheP_setDLFO                                                                
7000f184  CacheP_wb                                                                     
7000f1fc  CacheP_wbAll                                                                  
7000f1c0  CacheP_wbInv                                                                  
7000f2a4  CacheP_wbInvAll                                                               
7000f2bc  CacheP_wbInvAllAsm                                                            
7000e823  ClockP_Params_init                                                            
7000c0d1  ClockP_construct                                                              
7000d617  ClockP_destruct                                                               
7000e79b  ClockP_getTicks                                                               
7000bc8f  ClockP_getTimeUsec                                                            
7000e8c7  ClockP_getTimerCount                                                          
70007845  ClockP_init                                                                   
7000e82d  ClockP_isActive                                                               
7000d7d5  ClockP_start                                                                  
7000cd31  ClockP_stop                                                                   
7000e8cb  ClockP_timerClearOverflowInt                                                  
7000b61d  ClockP_timerTickIsr                                                           
7000e585  ClockP_usecToTicks                                                            
7000d8a3  ClockP_usleep                                                                 
7000d99c  CycleCounterP_getCount32                                                      
7000b55f  CycleCounterP_init                                                            
7000b593  CycleCounterP_nsToTicks                                                       
7000b56f  CycleCounterP_reset                                                           
700112e4  DMASS0_INTAGGR_0_intaggr_vintr_pend_0_39_to_GICSS0_spi_64_103                 
700112ec  DMASS0_INTAGGR_0_intaggr_vintr_pend_120_127_to_R5FSS1_CORE0_intr_8_15         
700112f4  DMASS0_INTAGGR_0_intaggr_vintr_pend_128_135_to_R5FSS1_CORE1_intr_8_15         
700112fc  DMASS0_INTAGGR_0_intaggr_vintr_pend_152_159_to_PRU_ICSSG0_pr1_slv_intr_16_23  
70011304  DMASS0_INTAGGR_0_intaggr_vintr_pend_160_167_to_PRU_ICSSG1_pr1_slv_intr_16_23  
7001130c  DMASS0_INTAGGR_0_intaggr_vintr_pend_168_183_to_MCU_M4FSS0_CORE0_nvic_32_47    
70011314  DMASS0_INTAGGR_0_intaggr_vintr_pend_40_71_to_R5FSS0_CORE0_intr_64_95          
7001131c  DMASS0_INTAGGR_0_intaggr_vintr_pend_40_71_to_R5FSS0_CORE1_intr_64_95          
70011324  DMASS0_INTAGGR_0_intaggr_vintr_pend_72_79_to_R5FSS0_CORE0_intr_8_15           
7001132c  DMASS0_INTAGGR_0_intaggr_vintr_pend_80_87_to_R5FSS0_CORE1_intr_8_15           
70011334  DMASS0_INTAGGR_0_intaggr_vintr_pend_88_119_to_R5FSS1_CORE0_intr_64_95         
7001133c  DMASS0_INTAGGR_0_intaggr_vintr_pend_88_119_to_R5FSS1_CORE1_intr_64_95         
70057400  DataXferRequestsIn                                                            
70050008  DataXferRequestsOut                                                           
7000e09f  DebugP_logZoneEnable                                                          
7000d651  DebugP_uartLogWriterPutChar                                                   
7000e7a7  DebugP_uartSetDrvIndex                                                        
70000e13  Dpl_deinit                                                                    
7000c833  Dpl_init                                                                      
7000e3f5  Drivers_close                                                                 
7000e379  Drivers_open                                                                  
7000c395  Drivers_uartOpen                                                              
70011344  EPWM0_epwm_synco_o_0_0_to_TIMESYNC_EVENT_INTROUTER0_in_39_39                  
7001134c  EPWM3_epwm_synco_o_0_0_to_TIMESYNC_EVENT_INTROUTER0_in_40_40                  
70011354  EPWM6_epwm_synco_o_0_0_to_TIMESYNC_EVENT_INTROUTER0_in_41_41                  
7000fd5c  FileBufPtr                                                                    
7001135c  GPIO0_gpio_0_89_to_MAIN_GPIOMUX_INTROUTER0_in_0_89                            
70011364  GPIO0_gpio_bank_90_98_to_MAIN_GPIOMUX_INTROUTER0_in_190_198                   
7001136c  GPIO1_gpio_0_89_to_MAIN_GPIOMUX_INTROUTER0_in_90_179                          
70011374  GPIO1_gpio_bank_90_98_to_MAIN_GPIOMUX_INTROUTER0_in_180_188                   
7001137c  GPMC0_gpmc_sdmareq_0_0_to_DMASS0_INTAGGR_0_intaggr_levi_pend_29_29            
70011384  GTC0_gtc_push_event_0_0_to_TIMESYNC_EVENT_INTROUTER0_in_36_36                 
7000ea29  HwiP_Params_init                                                              
7000e9e1  HwiP_clearInt                                                                 
7000ea3b  HwiP_construct                                                                
7000efcc  HwiP_data_abort_handler                                                       
7000ef2b  HwiP_data_abort_handler_c                                                     
7000eb85  HwiP_destruct                                                                 
7000f018  HwiP_disable                                                                  
7000f028  HwiP_disableFIQ                                                               
7000e959  HwiP_disableInt                                                               
7000f070  HwiP_disableVIC                                                               
7000f038  HwiP_enable                                                                   
7000f048  HwiP_enableFIQ                                                                
7000e931  HwiP_enableInt                                                                
7000f060  HwiP_enableVIC                                                                
7000edbf  HwiP_fiq_handler                                                              
7000f080  HwiP_getCPSR                                                                  
7000ed27  HwiP_inISR                                                                    
7000ec57  HwiP_init                                                                     
7000ef58  HwiP_irq_handler                                                              
7000ed39  HwiP_irq_handler_c                                                            
7000ea01  HwiP_post                                                                     
7000eefd  HwiP_prefetch_abort_handler                                                   
7000ee73  HwiP_reserved_handler                                                         
7000f058  HwiP_restore                                                                  
7000e98b  HwiP_restoreInt                                                               
7000eecf  HwiP_svc_handler                                                              
7000eea1  HwiP_undefined_handler                                                        
7001138c  MAIN_GPIOMUX_INTROUTER0_outp_0_15_to_GICSS0_spi_32_47                         
70011394  MAIN_GPIOMUX_INTROUTER0_outp_0_15_to_R5FSS0_CORE0_intr_32_47                  
7001139c  MAIN_GPIOMUX_INTROUTER0_outp_0_15_to_R5FSS0_CORE1_intr_32_47                  
700113a4  MAIN_GPIOMUX_INTROUTER0_outp_0_15_to_R5FSS1_CORE0_intr_32_47                  
700113ac  MAIN_GPIOMUX_INTROUTER0_outp_0_15_to_R5FSS1_CORE1_intr_32_47                  
700113b4  MAIN_GPIOMUX_INTROUTER0_outp_16_17_to_DMASS0_INTAGGR_0_intaggr_levi_pend_24_25
700113bc  MAIN_GPIOMUX_INTROUTER0_outp_18_23_to_PRU_ICSSG0_pr1_iep0_cap_intr_req_4_9    
700113c4  MAIN_GPIOMUX_INTROUTER0_outp_18_23_to_PRU_ICSSG1_pr1_iep0_cap_intr_req_4_9    
700113cc  MAIN_GPIOMUX_INTROUTER0_outp_24_29_to_PRU_ICSSG0_pr1_iep1_cap_intr_req_10_15  
700113d4  MAIN_GPIOMUX_INTROUTER0_outp_24_29_to_PRU_ICSSG1_pr1_iep1_cap_intr_req_10_15  
700113dc  MAIN_GPIOMUX_INTROUTER0_outp_30_37_to_DMASS0_INTAGGR_0_intaggr_levi_pend_16_23
700113e4  MAIN_GPIOMUX_INTROUTER0_outp_38_45_to_PRU_ICSSG0_pr1_slv_intr_46_53           
700113ec  MAIN_GPIOMUX_INTROUTER0_outp_46_53_to_PRU_ICSSG1_pr1_slv_intr_46_53           
700113f4  MCU_GPIO0_gpio_0_29_to_MCU_MCU_GPIOMUX_INTROUTER0_in_0_29                     
700113fc  MCU_GPIO0_gpio_bank_30_31_to_MCU_MCU_GPIOMUX_INTROUTER0_in_30_31              
70011404  MCU_MCU_GPIOMUX_INTROUTER0_outp_0_3_to_GICSS0_spi_104_107                     
7001140c  MCU_MCU_GPIOMUX_INTROUTER0_outp_0_3_to_R5FSS0_CORE0_intr_104_107              
70011414  MCU_MCU_GPIOMUX_INTROUTER0_outp_0_3_to_R5FSS0_CORE1_intr_104_107              
7001141c  MCU_MCU_GPIOMUX_INTROUTER0_outp_0_3_to_R5FSS1_CORE0_intr_104_107              
70011424  MCU_MCU_GPIOMUX_INTROUTER0_outp_0_3_to_R5FSS1_CORE1_intr_104_107              
7001142c  MCU_MCU_GPIOMUX_INTROUTER0_outp_4_7_to_MCU_M4FSS0_CORE0_nvic_0_3              
70011434  MCU_MCU_GPIOMUX_INTROUTER0_outp_8_11_to_MCU_ESM0_esm_pls_event0_88_91         
7001143c  MCU_MCU_GPIOMUX_INTROUTER0_outp_8_11_to_MCU_ESM0_esm_pls_event1_92_95         
70011444  MCU_MCU_GPIOMUX_INTROUTER0_outp_8_11_to_MCU_ESM0_esm_pls_event2_96_99         
7000da5b  Module_clockDisable                                                           
7000da89  Module_clockEnable                                                            
7000d769  Module_clockSetFrequency                                                      
7000f4c1  MpuP_RegionAttrs_init                                                         
7000f581  MpuP_disable                                                                  
7000f650  MpuP_disableAsm                                                               
7000f668  MpuP_disableBRAsm                                                             
7000f5b3  MpuP_enable                                                                   
7000f678  MpuP_enableAsm                                                                
7000f690  MpuP_enableBRAsm                                                              
7000f5eb  MpuP_init                                                                     
7000f57d  MpuP_isEnable                                                                 
7000f6a0  MpuP_isEnableAsm                                                              
7000f4cf  MpuP_setRegion                                                                
7000f6b4  MpuP_setRegionAsm                                                             
7000ade3  OsalNoRtosQueue_dequeue                                                       
7000ac99  OsalNoRtosQueue_enqueue                                                       
7000c3e1  OsalNoRtosQueue_init                                                          
7001144c  PCIE0_pcie_cpts_comp_0_0_to_CMP_EVENT_INTROUTER0_in_81_81                     
70011454  PCIE0_pcie_cpts_genf0_1_1_to_TIMESYNC_EVENT_INTROUTER0_in_23_23               
7001145c  PCIE0_pcie_cpts_hw1_push_2_2_to_TIMESYNC_EVENT_INTROUTER0_in_37_37            
70011464  PCIE0_pcie_cpts_sync_3_3_to_TIMESYNC_EVENT_INTROUTER0_in_33_33                
7001146c  PCIE0_pcie_ptm_valid_pulse_4_4_to_TIMESYNC_EVENT_INTROUTER0_in_38_38          
70011474  PRU_ICSSG0_pr1_edc0_sync0_out_0_0_to_TIMESYNC_EVENT_INTROUTER0_in_25_25       
7001147c  PRU_ICSSG0_pr1_edc0_sync1_out_1_1_to_TIMESYNC_EVENT_INTROUTER0_in_26_26       
70011484  PRU_ICSSG0_pr1_edc1_sync0_out_2_2_to_TIMESYNC_EVENT_INTROUTER0_in_27_27       
7001148c  PRU_ICSSG0_pr1_edc1_sync1_out_3_3_to_TIMESYNC_EVENT_INTROUTER0_in_28_28       
70011494  PRU_ICSSG0_pr1_host_intr_req_4_11_to_CMP_EVENT_INTROUTER0_in_0_7              
7001149c  PRU_ICSSG0_pr1_iep0_cmp_intr_req_12_27_to_CMP_EVENT_INTROUTER0_in_16_31       
700114a4  PRU_ICSSG0_pr1_iep1_cmp_intr_req_28_43_to_CMP_EVENT_INTROUTER0_in_32_47       
700114ac  PRU_ICSSG1_pr1_edc0_sync0_out_0_0_to_TIMESYNC_EVENT_INTROUTER0_in_29_29       
700114b4  PRU_ICSSG1_pr1_edc0_sync1_out_1_1_to_TIMESYNC_EVENT_INTROUTER0_in_30_30       
700114bc  PRU_ICSSG1_pr1_edc1_sync0_out_2_2_to_TIMESYNC_EVENT_INTROUTER0_in_31_31       
700114c4  PRU_ICSSG1_pr1_edc1_sync1_out_3_3_to_TIMESYNC_EVENT_INTROUTER0_in_32_32       
700114cc  PRU_ICSSG1_pr1_host_intr_req_4_11_to_CMP_EVENT_INTROUTER0_in_8_15             
700114d4  PRU_ICSSG1_pr1_iep0_cmp_intr_req_12_27_to_CMP_EVENT_INTROUTER0_in_48_63       
700114dc  PRU_ICSSG1_pr1_iep1_cmp_intr_req_28_43_to_CMP_EVENT_INTROUTER0_in_64_79       
7000a693  Pinmux_config                                                                 
7000df37  Pinmux_init                                                                   
7000c50f  Pinmux_unlockMMR                                                              
7000d9c4  PmuP_clearOverflowStatus                                                      
7000d9b4  PmuP_disableCounters                                                          
7000d9ac  PmuP_enableCounters                                                           
7000d9bc  PmuP_getOverflowStatus                                                        
7000d9a4  PmuP_setup                                                                    
7000e8d7  PowerClock_deinit                                                             
7000e757  PowerClock_init                                                               
7000dbf1  SOC_controlModuleLockMMR                                                      
7000d42d  SOC_controlModuleUnlockMMR                                                    
7000e2b9  SOC_getCoreName                                                               
7000e897  SOC_getFlashDataBaseAddr                                                      
7000e0bf  SOC_getSelfCpuClk                                                             
7000ae4f  SOC_isR5FDualCoreMode                                                         
7000ad07  SOC_moduleClockEnable                                                         
70007173  SOC_moduleSetClockFrequency                                                   
7000a515  Sciclient_boardCfgPm                                                          
7000e8db  Sciclient_deinit                                                              
7000cd71  Sciclient_firewallChangeOwnerInfo                                             
7000cdb1  Sciclient_firewallSetRegion                                                   
7000c121  Sciclient_getContext                                                          
7000d6c3  Sciclient_getCurrentContext                                                   
7000e40d  Sciclient_getDevId                                                            
7000e7b3  Sciclient_getSelfDevIdCore                                                    
700098d1  Sciclient_init                                                                
7000b05b  Sciclient_pmGetModuleClkFreq                                                  
7000a883  Sciclient_pmGetModuleClkNumParent                                             
7000b0c1  Sciclient_pmGetModuleClkParent                                                
7000ad75  Sciclient_pmGetModuleState                                                    
7000b67b  Sciclient_pmModuleClkRequest                                                  
7000b1ef  Sciclient_pmModuleGetClkStatus                                                
70008e3b  Sciclient_pmQueryModuleClkFreq                                                
70009cf1  Sciclient_pmSetModuleClkFreq                                                  
7000b6d9  Sciclient_pmSetModuleClkParent                                                
7000c9d3  Sciclient_pmSetModuleRst                                                      
7000c879  Sciclient_pmSetModuleRst_flags                                                
7000bf8b  Sciclient_pmSetModuleState                                                    
7000cb27  Sciclient_procBootAuthAndStart                                                
7000c8bf  Sciclient_procBootGetProcessorState                                           
7000c25d  Sciclient_procBootReleaseProcessor                                            
7000ca17  Sciclient_procBootRequestProcessor                                            
7000d46b  Sciclient_procBootSetProcessorCfg                                             
7000b8ab  Sciclient_procBootSetSequenceCtrl                                             
7000a70f  Sciclient_procBootWaitProcessorState                                          
70005741  Sciclient_rmClearInterruptRoute                                               
7000bee3  Sciclient_rmGetResourceRange                                                  
7000a78b  Sciclient_rmIrOutpIsFree                                                      
7000e6a5  Sciclient_rmIrqRelease                                                        
7000cb69  Sciclient_rmIrqReleaseRaw                                                     
7000e8df  Sciclient_rmIrqSet                                                            
7000cdf1  Sciclient_rmIrqSetRaw                                                         
700046a1  Sciclient_rmProgramInterruptRoute                                             
7000cbab  Sciclient_rmPsilPair                                                          
7000cbed  Sciclient_rmPsilUnpair                                                        
7000ce31  Sciclient_rmRingCfg                                                           
7000ce71  Sciclient_rmUdmapFlowCfg                                                      
7000ceb1  Sciclient_rmUdmapFlowSizeThreshCfg                                            
7000cef1  Sciclient_rmUdmapRxChCfg                                                      
7000cf31  Sciclient_rmUdmapTxChCfg                                                      
70002ce1  Sciclient_service                                                             
7000c559  Sciclient_triggerSecHandover                                                  
7000b2b7  Sciclient_waitForBootNotification                                             
7000cf71  SemaphoreP_constructBinary                                                    
7000d4a9  SemaphoreP_constructMutex                                                     
7000428f  SemaphoreP_destruct                                                           
70009a9f  SemaphoreP_pend                                                               
7000d8d5  SemaphoreP_post                                                               
7000e0df  System_deinit                                                                 
7000dda9  System_init                                                                   
700114e4  TIMER0_timer_pwm_0_0_to_TIMESYNC_EVENT_INTROUTER0_in_0_0                      
700114ec  TIMER1_timer_pwm_0_0_to_TIMESYNC_EVENT_INTROUTER0_in_1_1                      
700114f4  TIMER2_timer_pwm_0_0_to_TIMESYNC_EVENT_INTROUTER0_in_2_2                      
700114fc  TIMER3_timer_pwm_0_0_to_TIMESYNC_EVENT_INTROUTER0_in_3_3                      
70011504  TIMESYNC_EVENT_INTROUTER0_outl_0_7_to_DMASS0_INTAGGR_0_intaggr_levi_pend_8_15 
7001150c  TIMESYNC_EVENT_INTROUTER0_outl_10_10_to_PRU_ICSSG0_pr1_edc1_latch0_in_2_2     
70011514  TIMESYNC_EVENT_INTROUTER0_outl_11_11_to_PRU_ICSSG0_pr1_edc1_latch1_in_3_3     
7001151c  TIMESYNC_EVENT_INTROUTER0_outl_12_12_to_PRU_ICSSG1_pr1_edc0_latch0_in_0_0     
70011524  TIMESYNC_EVENT_INTROUTER0_outl_13_13_to_PRU_ICSSG1_pr1_edc0_latch1_in_1_1     
7001152c  TIMESYNC_EVENT_INTROUTER0_outl_14_14_to_PRU_ICSSG1_pr1_edc1_latch0_in_2_2     
70011534  TIMESYNC_EVENT_INTROUTER0_outl_15_15_to_PRU_ICSSG1_pr1_edc1_latch1_in_3_3     
7001153c  TIMESYNC_EVENT_INTROUTER0_outl_16_16_to_CPTS0_cpts_hw1_push_0_0               
70011544  TIMESYNC_EVENT_INTROUTER0_outl_17_17_to_CPTS0_cpts_hw2_push_1_1               
7001154c  TIMESYNC_EVENT_INTROUTER0_outl_18_18_to_CPTS0_cpts_hw3_push_2_2               
70011554  TIMESYNC_EVENT_INTROUTER0_outl_19_19_to_CPTS0_cpts_hw4_push_3_3               
7001155c  TIMESYNC_EVENT_INTROUTER0_outl_20_20_to_CPTS0_cpts_hw5_push_4_4               
70011564  TIMESYNC_EVENT_INTROUTER0_outl_21_21_to_CPTS0_cpts_hw6_push_5_5               
7001156c  TIMESYNC_EVENT_INTROUTER0_outl_22_22_to_CPTS0_cpts_hw7_push_6_6               
70011574  TIMESYNC_EVENT_INTROUTER0_outl_23_23_to_CPTS0_cpts_hw8_push_7_7               
7001157c  TIMESYNC_EVENT_INTROUTER0_outl_29_29_to_PCIE0_pcie_cpts_hw2_push_0_0          
70011584  TIMESYNC_EVENT_INTROUTER0_outl_30_30_to_CPSW0_cpts_hw1_push_0_0               
7001158c  TIMESYNC_EVENT_INTROUTER0_outl_31_31_to_CPSW0_cpts_hw2_push_1_1               
70011594  TIMESYNC_EVENT_INTROUTER0_outl_32_32_to_CPSW0_cpts_hw3_push_2_2               
7001159c  TIMESYNC_EVENT_INTROUTER0_outl_33_33_to_CPSW0_cpts_hw4_push_3_3               
700115a4  TIMESYNC_EVENT_INTROUTER0_outl_34_34_to_CPSW0_cpts_hw5_push_4_4               
700115ac  TIMESYNC_EVENT_INTROUTER0_outl_35_35_to_CPSW0_cpts_hw6_push_5_5               
700115b4  TIMESYNC_EVENT_INTROUTER0_outl_36_36_to_CPSW0_cpts_hw7_push_6_6               
700115bc  TIMESYNC_EVENT_INTROUTER0_outl_37_37_to_CPSW0_cpts_hw8_push_7_7               
700115c4  TIMESYNC_EVENT_INTROUTER0_outl_8_8_to_PRU_ICSSG0_pr1_edc0_latch0_in_0_0       
700115cc  TIMESYNC_EVENT_INTROUTER0_outl_9_9_to_PRU_ICSSG0_pr1_edc0_latch1_in_1_1       
7000e328  TI_memcpy_small                                                               
7000e454  TI_memset_small                                                               
700048a3  TaskP_yield                                                                   
7000e0ff  TimerP_Params_init                                                            
7000e5f9  TimerP_clearOverflowInt                                                       
7000e8e3  TimerP_getCount                                                               
7000e8e7  TimerP_getReloadCount                                                         
700053c7  TimerP_setup                                                                  
7000e837  TimerP_start                                                                  
7000e599  UART_Transaction_init                                                         
700068cf  UART_close                                                                    
7000e393  UART_deinit                                                                   
700096ff  UART_flushTxFifo                                                              
7000dab7  UART_getHandle                                                                
70009bc9  UART_init                                                                     
7000e6b5  UART_intr2Disable                                                             
7000b43f  UART_intrDisable                                                              
7000e841  UART_lld_Transaction_deInit                                                   
7000449b  UART_lld_controllerIsr                                                        
7000c5a3  UART_lld_deInit                                                               
7000bfdd  UART_lld_deInitDma                                                            
7000df59  UART_lld_dmaDeInit                                                            
7000b737  UART_lld_dmaDisableChannel                                                    
70005203  UART_lld_dmaInit                                                              
70008493  UART_lld_dmaWrite                                                             
7000bad3  UART_lld_flushTxFifo                                                          
70005dc5  UART_lld_init                                                                 
70005a9d  UART_lld_initDma                                                              
70006a13  UART_lld_write                                                                
7000a9ed  UART_lld_writeDma                                                             
7000a27d  UART_lld_writeIntr                                                            
70002951  UART_open                                                                     
7000e60b  UART_operatingModeSelect                                                      
70008a49  UART_procLineStatusErr                                                        
7000e1b7  UART_spaceAvail                                                               
70007c33  UART_write                                                                    
7000b253  UART_writeCancelNoCB                                                          
7000e7bf  UdmaChPdmaPrms_init                                                           
7000c5ed  UdmaChPrms_init                                                               
7000c905  UdmaChRxPrms_init                                                             
7000c42d  UdmaChTxPrms_init                                                             
7000d907  UdmaEventPrms_init                                                            
7000d4e7  UdmaFlowPrms_init                                                             
7000dae5  UdmaRingPrms_init                                                             
7000e2d5  UdmaUtils_getRingMemSize                                                      
70009d83  Udma_chClose                                                                  
70008cef  Udma_chConfigPdma                                                             
70006c95  Udma_chConfigRx                                                               
70007ef5  Udma_chConfigTx                                                               
700013ad  Udma_chDisable                                                                
70007b3d  Udma_chEnable                                                                 
7000dd0d  Udma_chGetCqRingHandle                                                        
7000dd35  Udma_chGetFqRingHandle                                                        
7000220f  Udma_chOpen                                                                   
7000e8eb  Udma_defaultVirtToPhyFxn                                                      
7000e2f1  Udma_eventGetGlobalHandle                                                     
70001db1  Udma_eventRegister                                                            
70004291  Udma_eventUnRegister                                                          
70007a43  Udma_flowConfig                                                               
7000c2ab  Udma_getMappedChRingAttributes                                                
70005c35  Udma_ringAlloc                                                                
7000bb2d  Udma_ringDequeueRaw                                                           
7000d525  Udma_ringFlushRaw                                                             
7000b319  Udma_ringFree                                                                 
7000e871  Udma_ringGetForwardRingOcc                                                    
7000e879  Udma_ringGetReverseRingOcc                                                    
7000b37b  Udma_ringQueueRaw                                                             
70009021  Udma_rmAllocBlkCopyCh                                                         
700090c1  Udma_rmAllocBlkCopyHcCh                                                       
70009161  Udma_rmAllocBlkCopyUhcCh                                                      
7000b9bf  Udma_rmAllocEvent                                                             
7000e89d  Udma_rmAllocFreeRing                                                          
70009201  Udma_rmAllocIrIntr                                                            
70009c5d  Udma_rmAllocMappedRing                                                        
70008af3  Udma_rmAllocMappedRxCh                                                        
70008b9d  Udma_rmAllocMappedTxCh                                                        
700092a1  Udma_rmAllocRxCh                                                              
70009341  Udma_rmAllocRxHcCh                                                            
700093e1  Udma_rmAllocRxUhcCh                                                           
70009481  Udma_rmAllocTxCh                                                              
70009521  Udma_rmAllocTxHcCh                                                            
700095c1  Udma_rmAllocTxUhcCh                                                           
7000ba1b  Udma_rmAllocVintr                                                             
7000ab47  Udma_rmAllocVintrBit                                                          
7000cfb1  Udma_rmFreeBlkCopyCh                                                          
7000cff1  Udma_rmFreeBlkCopyHcCh                                                        
7000d031  Udma_rmFreeBlkCopyUhcCh                                                       
7000d071  Udma_rmFreeEvent                                                              
70005037  Udma_rmFreeFreeRing                                                           
7000d0b1  Udma_rmFreeIrIntr                                                             
7000b49f  Udma_rmFreeMappedRing                                                         
7000c637  Udma_rmFreeMappedRxCh                                                         
7000c681  Udma_rmFreeMappedTxCh                                                         
7000d0f1  Udma_rmFreeRxCh                                                               
7000d131  Udma_rmFreeRxHcCh                                                             
7000d171  Udma_rmFreeRxUhcCh                                                            
7000d1b1  Udma_rmFreeTxCh                                                               
7000d1f1  Udma_rmFreeTxHcCh                                                             
7000d231  Udma_rmFreeTxUhcCh                                                            
7000d271  Udma_rmFreeVintr                                                              
7000c171  Udma_rmFreeVintrBit                                                           
7000e6c5  Udma_rmTranslateCoreIntrInput                                                 
7000e6d5  Udma_rmTranslateIrOutput                                                      
7000df7b  Udma_virtToPhyFxn                                                             
7000ba77  _DebugP_assert                                                                
7000f7d5  _DebugP_assertNoLog                                                           
7000d6fb  _DebugP_logZone                                                               
7005f530  __ABORT_STACK_END                                                             
00000100  __ABORT_STACK_SIZE                                                            
7005f430  __ABORT_STACK_START                                                           
7005e020  __BSS_END                                                                     
7005c000  __BSS_START                                                                   
7005e22c  __DFU_CTX_END                                                                 
7005e020  __DFU_CTX_START                                                               
7005f330  __FIQ_STACK_END                                                               
00000100  __FIQ_STACK_SIZE                                                              
7005f230  __FIQ_STACK_START                                                             
7005f230  __IRQ_STACK_END                                                               
00001000  __IRQ_STACK_SIZE                                                              
7005e230  __IRQ_STACK_START                                                             
7005c000  __STACK_END                                                                   
00004000  __STACK_SIZE                                                                  
7005f430  __SVC_STACK_END                                                               
00000100  __SVC_STACK_SIZE                                                              
7005f330  __SVC_STACK_START                                                             
00000000  __TI_ATRegion0_region_sz                                                      
00000000  __TI_ATRegion0_src_addr                                                       
00000000  __TI_ATRegion0_trg_addr                                                       
00000000  __TI_ATRegion1_region_sz                                                      
00000000  __TI_ATRegion1_src_addr                                                       
00000000  __TI_ATRegion1_trg_addr                                                       
00000000  __TI_ATRegion2_region_sz                                                      
00000000  __TI_ATRegion2_src_addr                                                       
00000000  __TI_ATRegion2_trg_addr                                                       
UNDEFED   __TI_CINIT_Base                                                               
UNDEFED   __TI_CINIT_Limit                                                              
UNDEFED   __TI_Handler_Table_Base                                                       
UNDEFED   __TI_Handler_Table_Limit                                                      
7000bbe0  __TI_auto_init_nobinit_nopinit                                                
ffffffff  __TI_pprof_out_hndl                                                           
ffffffff  __TI_prof_data_size                                                           
ffffffff  __TI_prof_data_start                                                          
70000000  __TI_static_base__                                                            
7005f630  __UNDEFINED_STACK_END                                                         
00000100  __UNDEFINED_STACK_SIZE                                                        
7005f530  __UNDEFINED_STACK_START                                                       
7000e8f0  __aeabi_ldiv0                                                                 
7000e7cc  __aeabi_memclr                                                                
7000e7cc  __aeabi_memclr4                                                               
7000e7cc  __aeabi_memclr8                                                               
7000e8f4  __aeabi_memcpy                                                                
7000e8f4  __aeabi_memcpy4                                                               
7000e8f4  __aeabi_memcpy8                                                               
7000e6e4  __aeabi_memset                                                                
7000e6e4  __aeabi_memset4                                                               
7000e6e4  __aeabi_memset8                                                               
7000de40  __aeabi_uldivmod                                                              
ffffffff  __binit__                                                                     
7000f7f3  __mpu_init                                                                    
70058000  __stack                                                                       
70058000  __start___llvm_prf_bits                                                       
70058000  __start___llvm_prf_cnts                                                       
70058000  __stop___llvm_prf_bits                                                        
70058000  __stop___llvm_prf_cnts                                                        
70007504  __udivmoddi4                                                                  
7000f6fc  _c_int00                                                                      
7000f6d8  _c_int00_sbl                                                                  
UNDEFED   _system_post_cinit                                                            
7000e30d  _system_pre_init                                                              
7000fdb8  _usbd_qdef                                                                    
7005dd8c  _usbd_qdef_buf                                                                
70000000  _vectors_sbl                                                                  
7000e888  abort                                                                         
70053000  alignedBufCusbd                                                               
ffffffff  binit                                                                         
70052108  buff                                                                          
70057518  buffEp0                                                                       
700510f8  buffEpIn                                                                      
700500e8  buffEpOut                                                                     
7005e014  cdns_dsr_q                                                                    
7000fe50  cdns_dsr_qdef                                                                 
7005d008  cdns_dsr_qdef_buf                                                             
7005dff4  cdns_dsr_qdef_queue                                                           
7000db13  ctrlInCmplCb                                                                  
700018cf  cusbd_dsr                                                                     
700520f8  dataXferBufferIn                                                              
700510e8  dataXferBufferOut                                                             
UNDEFED   dcd_edpt0_status_complete                                                     
7000c7a3  dcd_edpt_clear_stall                                                          
7000bbdf  dcd_edpt_close_all                                                            
7000c7eb  dcd_edpt_stall                                                                
70005587  dcd_edpt_xfer                                                                 
70006231  dcd_event_handler                                                             
7000e8a3  dcd_init                                                                      
7000e765  dcd_int_disable                                                               
7000e773  dcd_int_enable                                                                
7000c479  dcd_set_address                                                               
70010dd8  desc_configuration                                                            
700110b6  desc_device                                                                   
7000fea0  dfu_ctx                                                                       
700048a5  dfu_moded_control_xfer_cb                                                     
7000e5ad  dfu_moded_init                                                                
7000b4ff  dfu_moded_open                                                                
7000e5c1  dfu_moded_reset                                                               
7000d939  dfu_task                                                                      
70057000  ep0Buff                                                                       
70057558  ep0DataXferRequest                                                            
700574e0  ep0Req                                                                        
70052d08  epMemRes                                                                      
7000fe60  gAddrTranslateConfig                                                          
7000f8e0  gAddrTranslateInfo                                                            
70180000  gAppImageBuf                                                                  
7000fe78  gBootloader0Args                                                              
7000fcd4  gBootloaderConfig                                                             
7000fea4  gBootloaderConfigNum                                                          
7000fe00  gBootloaderMemFxns                                                            
700101e0  gCacheConfig                                                                  
700111f4  gCacheL1dCacheLineSize                                                        
70011714  gCacheL1pCacheLineSize                                                        
7000fdd0  gClockConfig                                                                  
7005df80  gClockCtrl                                                                    
7000fa5c  gCoreBootInfo                                                                 
7000fea8  gDebugLogZone                                                                 
7000feac  gDebugP_uartDrvIndex                                                          
7000feb0  gHwiConfig                                                                    
7005c000  gHwiCtrl                                                                      
7000feda  gManifestDone                                                                 
700101e8  gMpuConfig                                                                    
700101f4  gMpuRegionConfig                                                              
7005dc70  gProfileObj                                                                   
7000fe14  gResMemSection                                                                
7000fd3c  gRmIaInstances                                                                
7000fba0  gRmIrInstances                                                                
70010320  gRmIrqTree                                                                    
70011718  gRmIrqTreeCount                                                               
700103c8  gSOC_r5fVectors                                                               
70010018  gSciclientMap                                                                 
7000fd60  gSciclientSecProxyCfg                                                         
7000fe6c  gSocModules                                                                   
7000fde8  gSocModulesClockFrequency                                                     
7000fe90  gUartConfig                                                                   
7000fec8  gUartConfigNum                                                                
7000fecc  gUartDmaChConfig                                                              
7000f800  gUartDmaHandle                                                                
7005e018  gUartHandle                                                                   
7000fc00  gUartParams                                                                   
70010144  gUdmaRxMappedChRingAttributes                                                 
7000fee0  gUdmaTxMappedChRingAttributes                                                 
7000dbc5  inEpXferCmplCb                                                                
70003681  main                                                                          
7000fed0  operatingMode                                                                 
7000d2b1  outEp0XferCmplCb                                                              
7000ca9f  outEpXferCmplCb                                                               
7000e8f9  putchar_                                                                      
7000fed4  recvFileSize                                                                  
70050000  setupReqPacket                                                                
7000fe3c  string_desc_arr                                                               
7005e008  sysReqCusbd                                                                   
70010fa4  tisci_if_CMP_EVENT_INTROUTER0                                                 
70011198  tisci_if_CPSW0                                                                
70010c70  tisci_if_CPTS0                                                                
70010798  tisci_if_DMASS0_INTAGGR_0                                                     
70011724  tisci_if_EPWM0                                                                
70011728  tisci_if_EPWM3                                                                
7001172c  tisci_if_EPWM6                                                                
700115f4  tisci_if_GPIO0                                                                
700115fc  tisci_if_GPIO1                                                                
70011730  tisci_if_GPMC0                                                                
70011734  tisci_if_GTC0                                                                 
700105d4  tisci_if_MAIN_GPIOMUX_INTROUTER0                                              
70011604  tisci_if_MCU_GPIO0                                                            
70010b00  tisci_if_MCU_MCU_GPIOMUX_INTROUTER0                                           
70011068  tisci_if_PCIE0                                                                
70010da0  tisci_if_PRU_ICSSG0                                                           
70010dbc  tisci_if_PRU_ICSSG1                                                           
70011738  tisci_if_TIMER0                                                               
7001173c  tisci_if_TIMER1                                                               
70011740  tisci_if_TIMER2                                                               
70011744  tisci_if_TIMER3                                                               
70010254  tisci_if_TIMESYNC_EVENT_INTROUTER0                                            
7000ddcf  tu_edpt_bind_driver                                                           
7000e1d5  tu_fifo_clear                                                                 
7000de65  tu_fifo_read                                                                  
7000c347  tu_fifo_write                                                                 
7000d9cd  tud_control_status                                                            
7000b795  tud_control_xfer                                                              
UNDEFED   tud_descriptor_bos_cb                                                         
7000e84b  tud_descriptor_configuration_cb                                               
7000e855  tud_descriptor_device_cb                                                      
UNDEFED   tud_descriptor_device_qualifier_cb                                            
UNDEFED   tud_descriptor_other_speed_configuration_cb                                   
7000a40f  tud_descriptor_string_cb                                                      
UNDEFED   tud_dfu_abort_cb                                                              
UNDEFED   tud_dfu_detach_cb                                                             
7000cae3  tud_dfu_download_cb                                                           
7000d79f  tud_dfu_finish_flashing                                                       
7000e85f  tud_dfu_get_timeout_cb                                                        
7000e62f  tud_dfu_manifest_cb                                                           
UNDEFED   tud_dfu_upload_cb                                                             
700083d1  tud_init                                                                      
7000e641  tud_inited                                                                    
UNDEFED   tud_mount_cb                                                                  
UNDEFED   tud_resume_cb                                                                 
UNDEFED   tud_suspend_cb                                                                
70000101  tud_task_ext                                                                  
UNDEFED   tud_umount_cb                                                                 
UNDEFED   tud_vendor_control_xfer_cb                                                    
7000e8a9  tusb_init                                                                     
7000e8fd  tusb_inited                                                                   
7000f800  usbCfgCusbd                                                                   
7000e51d  usbClockCfg                                                                   
700072a5  usbDeviceInit                                                                 
7000d5db  usbDeviceIntSetup                                                             
7000de89  usbGetDataXferRequestIndexOut                                                 
7000fd9c  usbInitParam                                                                  
7000d2f1  usbPhyOn                                                                      
7000e1f3  usbPinmuxConfig                                                               
7000ac29  usbSetupDeviceMode                                                            
7005de4c  usb_handle                                                                    
7000cc2f  usb_init                                                                      
7000ddf5  usb_instance_select                                                           
7000e781  usb_irq6_isr                                                                  
UNDEFED   usbd_app_driver_get_cb                                                        
7000e653  usbd_control_reset                                                            
7000e7d9  usbd_control_set_complete_callback                                            
7000e43d  usbd_control_set_request                                                      
7000823d  usbd_control_xfer_cb                                                          
7000d331  usbd_edpt_clear_stall                                                         
7000d371  usbd_edpt_stall                                                               
7000bd91  usbd_edpt_xfer                                                                
7000e533  usbd_int_set                                                                  
7000e7e5  usbss_reset_assert                                                            
7000b3dd  usbss_reset_release                                                           
7000f9a4  vint_usage_count_DMASS0_INTAGGR_0                                             
7000dead  vprintf_                                                                      


GLOBAL SYMBOLS: SORTED BY Symbol Address 

address   name                                                                          
-------   ----                                                                          
00000000  __TI_ATRegion0_region_sz                                                      
00000000  __TI_ATRegion0_src_addr                                                       
00000000  __TI_ATRegion0_trg_addr                                                       
00000000  __TI_ATRegion1_region_sz                                                      
00000000  __TI_ATRegion1_src_addr                                                       
00000000  __TI_ATRegion1_trg_addr                                                       
00000000  __TI_ATRegion2_region_sz                                                      
00000000  __TI_ATRegion2_src_addr                                                       
00000000  __TI_ATRegion2_trg_addr                                                       
00000100  __ABORT_STACK_SIZE                                                            
00000100  __FIQ_STACK_SIZE                                                              
00000100  __SVC_STACK_SIZE                                                              
00000100  __UNDEFINED_STACK_SIZE                                                        
00001000  __IRQ_STACK_SIZE                                                              
00004000  __STACK_SIZE                                                                  
70000000  __TI_static_base__                                                            
70000000  _vectors_sbl                                                                  
70000101  tud_task_ext                                                                  
70000e13  Dpl_deinit                                                                    
700013ad  Udma_chDisable                                                                
700018cf  cusbd_dsr                                                                     
70001db1  Udma_eventRegister                                                            
7000220f  Udma_chOpen                                                                   
700025b3  CSL_pktdmaTeardownRxChan                                                      
70002951  UART_open                                                                     
70002ce1  Sciclient_service                                                             
7000305d  CUSBD_Init                                                                    
70003681  main                                                                          
70003e61  Bootloader_socCpuResetRelease                                                 
70004081  Bootloader_socCpuPowerOnResetR5f                                              
7000428f  SemaphoreP_destruct                                                           
70004291  Udma_eventUnRegister                                                          
7000449b  UART_lld_controllerIsr                                                        
700046a1  Sciclient_rmProgramInterruptRoute                                             
700048a3  TaskP_yield                                                                   
700048a5  dfu_moded_control_xfer_cb                                                     
70004a9d  Bootloader_verifyMulticoreImage                                               
70004c87  CUSBD_EpEnable                                                                
70005037  Udma_rmFreeFreeRing                                                           
70005039  CSL_bcdmaChanOp                                                               
70005203  UART_lld_dmaInit                                                              
700053c7  TimerP_setup                                                                  
70005587  dcd_edpt_xfer                                                                 
70005741  Sciclient_rmClearInterruptRoute                                               
70005a9d  UART_lld_initDma                                                              
70005c35  Udma_ringAlloc                                                                
70005dc5  UART_lld_init                                                                 
70005f47  CUSBD_Isr                                                                     
700060bd  Bootloader_socCpuResetReleaseSelf                                             
70006231  dcd_event_handler                                                             
700064f1  Bootloader_profilePrintProfileLog                                             
70006789  CUSBD_ReqQueue                                                                
700068cf  UART_close                                                                    
70006a13  UART_lld_write                                                                
70006c95  Udma_chConfigRx                                                               
70007041  CUSBDMA_ChannelProgram                                                        
70007173  SOC_moduleSetClockFrequency                                                   
700072a5  usbDeviceInit                                                                 
700073d7  CUSBDMA_ChannelAlloc                                                          
70007504  __udivmoddi4                                                                  
7000761d  CUSBDMA_ChannelRelease                                                        
70007733  Bootloader_socCpuPowerOnResetM4f                                              
70007845  ClockP_init                                                                   
70007a43  Udma_flowConfig                                                               
70007b3d  Udma_chEnable                                                                 
70007c33  UART_write                                                                    
70007ef5  Udma_chConfigTx                                                               
70007fcf  Bootloader_rprcImageLoad                                                      
7000823d  usbd_control_xfer_cb                                                          
70008309  Bootloader_parseMultiCoreAppImage                                             
700083d1  tud_init                                                                      
70008493  UART_lld_dmaWrite                                                             
70008611  Bootloader_loadSelfCpu                                                        
70008a49  UART_procLineStatusErr                                                        
70008af3  Udma_rmAllocMappedRxCh                                                        
70008b9d  Udma_rmAllocMappedTxCh                                                        
70008c47  CUSBD_EpSetHalt                                                               
70008cef  Udma_chConfigPdma                                                             
70008e3b  Sciclient_pmQueryModuleClkFreq                                                
70008f81  Bootloader_getMsgLen                                                          
70009021  Udma_rmAllocBlkCopyCh                                                         
700090c1  Udma_rmAllocBlkCopyHcCh                                                       
70009161  Udma_rmAllocBlkCopyUhcCh                                                      
70009201  Udma_rmAllocIrIntr                                                            
700092a1  Udma_rmAllocRxCh                                                              
70009341  Udma_rmAllocRxHcCh                                                            
700093e1  Udma_rmAllocRxUhcCh                                                           
70009481  Udma_rmAllocTxCh                                                              
70009521  Udma_rmAllocTxHcCh                                                            
700095c1  Udma_rmAllocTxUhcCh                                                           
70009661  CUSBD_EpDisable                                                               
700096ff  UART_flushTxFifo                                                              
7000979d  CUSBDMA_ChannelHandleStall                                                    
70009837  CUSBDMA_Init                                                                  
700098d1  Sciclient_init                                                                
70009a9f  SemaphoreP_pend                                                               
70009b35  CUSBD_PrivateDataSF                                                           
70009bc9  UART_init                                                                     
70009c5d  Udma_rmAllocMappedRing                                                        
70009cf1  Sciclient_pmSetModuleClkFreq                                                  
70009d83  Udma_chClose                                                                  
70009ea7  Bootloader_socCpuSetEntryPoint                                                
70009fc5  CUSBDMA_ChannelReset                                                          
7000a27d  UART_lld_writeIntr                                                            
7000a40f  tud_descriptor_string_cb                                                      
7000a515  Sciclient_boardCfgPm                                                          
7000a615  Bootloader_socOpenFirewalls                                                   
7000a693  Pinmux_config                                                                 
7000a70f  Sciclient_procBootWaitProcessorState                                          
7000a78b  Sciclient_rmIrOutpIsFree                                                      
7000a883  Sciclient_pmGetModuleClkNumParent                                             
7000a8fd  Bootloader_socCpuSetClock                                                     
7000a9ed  UART_lld_writeDma                                                             
7000aa63  Bootloader_socCpuPowerOnResetA53                                              
7000ab47  Udma_rmAllocVintrBit                                                          
7000abb9  Bootloader_socMemInitCpu                                                      
7000ac29  usbSetupDeviceMode                                                            
7000ac99  OsalNoRtosQueue_enqueue                                                       
7000ad07  SOC_moduleClockEnable                                                         
7000ad75  Sciclient_pmGetModuleState                                                    
7000ade3  OsalNoRtosQueue_dequeue                                                       
7000ae4f  SOC_isR5FDualCoreMode                                                         
7000af25  AddrTranslateP_getLocalAddr                                                   
7000af8d  Bootloader_socCpuRelease                                                      
7000aff5  Bootloader_socCpuRequest                                                      
7000b05b  Sciclient_pmGetModuleClkFreq                                                  
7000b0c1  Sciclient_pmGetModuleClkParent                                                
7000b127  Bootloader_socCpuGetClock                                                     
7000b1ef  Sciclient_pmModuleGetClkStatus                                                
7000b253  UART_writeCancelNoCB                                                          
7000b2b7  Sciclient_waitForBootNotification                                             
7000b319  Udma_ringFree                                                                 
7000b37b  Udma_ringQueueRaw                                                             
7000b3dd  usbss_reset_release                                                           
7000b43f  UART_intrDisable                                                              
7000b49f  Udma_rmFreeMappedRing                                                         
7000b4ff  dfu_moded_open                                                                
7000b55f  CycleCounterP_init                                                            
7000b56f  CycleCounterP_reset                                                           
7000b593  CycleCounterP_nsToTicks                                                       
7000b5bf  Bootloader_runCpu                                                             
7000b61d  ClockP_timerTickIsr                                                           
7000b67b  Sciclient_pmModuleClkRequest                                                  
7000b6d9  Sciclient_pmSetModuleClkParent                                                
7000b737  UART_lld_dmaDisableChannel                                                    
7000b795  tud_control_xfer                                                              
7000b8ab  Sciclient_procBootSetSequenceCtrl                                             
7000b9bf  Udma_rmAllocEvent                                                             
7000ba1b  Udma_rmAllocVintr                                                             
7000ba77  _DebugP_assert                                                                
7000bad3  UART_lld_flushTxFifo                                                          
7000bb2d  Udma_ringDequeueRaw                                                           
7000bb87  CUSBDMA_DmaControllerSF                                                       
7000bbdf  dcd_edpt_close_all                                                            
7000bbe0  __TI_auto_init_nobinit_nopinit                                                
7000bc39  CUSBD_Start                                                                   
7000bc8f  ClockP_getTimeUsec                                                            
7000bd91  usbd_edpt_xfer                                                                
7000be8f  CSL_intaggrIsIntrPending                                                      
7000bee3  Sciclient_rmGetResourceRange                                                  
7000bf8b  Sciclient_pmSetModuleState                                                    
7000bfdd  UART_lld_deInitDma                                                            
7000c0d1  ClockP_construct                                                              
7000c121  Sciclient_getContext                                                          
7000c171  Udma_rmFreeVintrBit                                                           
7000c1c1  Bootloader_findSeq                                                            
7000c20f  CUSBD_Probe                                                                   
7000c25d  Sciclient_procBootReleaseProcessor                                            
7000c2ab  Udma_getMappedChRingAttributes                                                
7000c347  tu_fifo_write                                                                 
7000c395  Drivers_uartOpen                                                              
7000c3e1  OsalNoRtosQueue_init                                                          
7000c42d  UdmaChTxPrms_init                                                             
7000c479  dcd_set_address                                                               
7000c4c5  CSL_intaggrClrIntr                                                            
7000c50f  Pinmux_unlockMMR                                                              
7000c559  Sciclient_triggerSecHandover                                                  
7000c5a3  UART_lld_deInit                                                               
7000c5ed  UdmaChPrms_init                                                               
7000c637  Udma_rmFreeMappedRxCh                                                         
7000c681  Udma_rmFreeMappedTxCh                                                         
7000c713  CUSBDMA_ChannelFreeHeadTrbChain                                               
7000c75b  CUSBD_ReqDequeue                                                              
7000c7a3  dcd_edpt_clear_stall                                                          
7000c7eb  dcd_edpt_stall                                                                
7000c833  Dpl_init                                                                      
7000c879  Sciclient_pmSetModuleRst_flags                                                
7000c8bf  Sciclient_procBootGetProcessorState                                           
7000c905  UdmaChRxPrms_init                                                             
7000c94b  Bootloader_loadCpu                                                            
7000c98f  CUSBD_EpSetWedge                                                              
7000c9d3  Sciclient_pmSetModuleRst                                                      
7000ca17  Sciclient_procBootRequestProcessor                                            
7000ca9f  outEpXferCmplCb                                                               
7000cae3  tud_dfu_download_cb                                                           
7000cb27  Sciclient_procBootAuthAndStart                                                
7000cb69  Sciclient_rmIrqReleaseRaw                                                     
7000cbab  Sciclient_rmPsilPair                                                          
7000cbed  Sciclient_rmPsilUnpair                                                        
7000cc2f  usb_init                                                                      
7000cc71  Bootloader_profileReset                                                       
7000ccf1  CUSBDMA_Destroy                                                               
7000cd31  ClockP_stop                                                                   
7000cd71  Sciclient_firewallChangeOwnerInfo                                             
7000cdb1  Sciclient_firewallSetRegion                                                   
7000cdf1  Sciclient_rmIrqSetRaw                                                         
7000ce31  Sciclient_rmRingCfg                                                           
7000ce71  Sciclient_rmUdmapFlowCfg                                                      
7000ceb1  Sciclient_rmUdmapFlowSizeThreshCfg                                            
7000cef1  Sciclient_rmUdmapRxChCfg                                                      
7000cf31  Sciclient_rmUdmapTxChCfg                                                      
7000cf71  SemaphoreP_constructBinary                                                    
7000cfb1  Udma_rmFreeBlkCopyCh                                                          
7000cff1  Udma_rmFreeBlkCopyHcCh                                                        
7000d031  Udma_rmFreeBlkCopyUhcCh                                                       
7000d071  Udma_rmFreeEvent                                                              
7000d0b1  Udma_rmFreeIrIntr                                                             
7000d0f1  Udma_rmFreeRxCh                                                               
7000d131  Udma_rmFreeRxHcCh                                                             
7000d171  Udma_rmFreeRxUhcCh                                                            
7000d1b1  Udma_rmFreeTxCh                                                               
7000d1f1  Udma_rmFreeTxHcCh                                                             
7000d231  Udma_rmFreeTxUhcCh                                                            
7000d271  Udma_rmFreeVintr                                                              
7000d2b1  outEp0XferCmplCb                                                              
7000d2f1  usbPhyOn                                                                      
7000d331  usbd_edpt_clear_stall                                                         
7000d371  usbd_edpt_stall                                                               
7000d3b1  Bootloader_open                                                               
7000d3ef  CUSBDMA_ChannelTrigger                                                        
7000d42d  SOC_controlModuleUnlockMMR                                                    
7000d46b  Sciclient_procBootSetProcessorCfg                                             
7000d4a9  SemaphoreP_constructMutex                                                     
7000d4e7  UdmaFlowPrms_init                                                             
7000d525  Udma_ringFlushRaw                                                             
7000d563  Bootloader_socTranslateSectionAddr                                            
7000d59f  CSL_bcdmaGetCfg                                                               
7000d5db  usbDeviceIntSetup                                                             
7000d617  ClockP_destruct                                                               
7000d651  DebugP_uartLogWriterPutChar                                                   
7000d68b  Bootloader_socEnableICSSCores                                                 
7000d6c3  Sciclient_getCurrentContext                                                   
7000d6fb  _DebugP_logZone                                                               
7000d733  CUSBD_EpFifoFlush                                                             
7000d769  Module_clockSetFrequency                                                      
7000d79f  tud_dfu_finish_flashing                                                       
7000d7d5  ClockP_start                                                                  
7000d871  Bootloader_BootImageInfo_init                                                 
7000d8a3  ClockP_usleep                                                                 
7000d8d5  SemaphoreP_post                                                               
7000d907  UdmaEventPrms_init                                                            
7000d939  dfu_task                                                                      
7000d99c  CycleCounterP_getCount32                                                      
7000d9a4  PmuP_setup                                                                    
7000d9ac  PmuP_enableCounters                                                           
7000d9b4  PmuP_disableCounters                                                          
7000d9bc  PmuP_getOverflowStatus                                                        
7000d9c4  PmuP_clearOverflowStatus                                                      
7000d9cd  tud_control_status                                                            
7000da2d  CUSBDMA_ChannelSetMaxPktSz                                                    
7000da5b  Module_clockDisable                                                           
7000da89  Module_clockEnable                                                            
7000dab7  UART_getHandle                                                                
7000dae5  UdmaRingPrms_init                                                             
7000db13  ctrlInCmplCb                                                                  
7000db41  Bootloader_socIsMCUResetIsoEnabled                                            
7000db6d  CSL_pktdmaGetRxRT                                                             
7000db99  CSL_pktdmaGetTxRT                                                             
7000dbc5  inEpXferCmplCb                                                                
7000dbf1  SOC_controlModuleLockMMR                                                      
7000dc45  Bootloader_socCpuPowerOnReset                                                 
7000dc6d  CUSBDMA_SanityFunction7                                                       
7000dd0d  Udma_chGetCqRingHandle                                                        
7000dd35  Udma_chGetFqRingHandle                                                        
7000dd5d  Bootloader_profileAddProfilePoint                                             
7000dd83  CUSBDMA_ChannelUpdateState                                                    
7000dda9  System_init                                                                   
7000ddcf  tu_edpt_bind_driver                                                           
7000ddf5  usb_instance_select                                                           
7000de1b  CSL_bcdmaGetChanPeerReg                                                       
7000de40  __aeabi_uldivmod                                                              
7000de65  tu_fifo_read                                                                  
7000de89  usbGetDataXferRequestIndexOut                                                 
7000dead  vprintf_                                                                      
7000ded1  Bootloader_runSelfCpu                                                         
7000def3  Bootloader_socIsR5FSSDual                                                     
7000df15  CSL_bcdmaSetChanPeerReg                                                       
7000df37  Pinmux_init                                                                   
7000df59  UART_lld_dmaDeInit                                                            
7000df7b  Udma_virtToPhyFxn                                                             
7000dfbf  Bootloader_enableMCUPLL                                                       
7000dfdf  Bootloader_socGetCoreName                                                     
7000dfff  Bootloader_socRprcToCslCoreId                                                 
7000e01f  CSL_pktdmaSetRxRT                                                             
7000e03f  CSL_pktdmaSetTxRT                                                             
7000e05f  CUSBD_DGetFrame                                                               
7000e07f  CUSBD_SanityFunction13                                                        
7000e09f  DebugP_logZoneEnable                                                          
7000e0bf  SOC_getSelfCpuClk                                                             
7000e0df  System_deinit                                                                 
7000e0ff  TimerP_Params_init                                                            
7000e13f  CSL_bcdmaTeardownRxChan                                                       
7000e15d  CSL_bcdmaTeardownTxChan                                                       
7000e17b  CUSBDMA_SanityFunction5                                                       
7000e199  CUSBD_Stop                                                                    
7000e1b7  UART_spaceAvail                                                               
7000e1d5  tu_fifo_clear                                                                 
7000e1f3  usbPinmuxConfig                                                               
7000e211  Bootloader_socCpuGetClkDefault                                                
7000e22d  Bootloader_socIsAuthRequired                                                  
7000e249  CSL_pktdmaGetChanPeerReg                                                      
7000e265  CSL_pktdmaSetChanPeerReg                                                      
7000e281  CUSBD_SanityFunction7                                                         
7000e2b9  SOC_getCoreName                                                               
7000e2d5  UdmaUtils_getRingMemSize                                                      
7000e2f1  Udma_eventGetGlobalHandle                                                     
7000e30d  _system_pre_init                                                              
7000e328  TI_memcpy_small                                                               
7000e345  Bootloader_profileAddCore                                                     
7000e35f  CUSBD_DGetConfigParams                                                        
7000e379  Drivers_open                                                                  
7000e393  UART_deinit                                                                   
7000e3ad  Bootloader_socAuthImage                                                       
7000e3c5  CUSBDMA_Probe                                                                 
7000e3dd  CUSBD_SanityFunction2                                                         
7000e3f5  Drivers_close                                                                 
7000e40d  Sciclient_getDevId                                                            
7000e43d  usbd_control_set_request                                                      
7000e454  TI_memset_small                                                               
7000e46d  Bootloader_socNotifyFirewallOpen                                              
7000e483  CSL_bcdmaGetRxRT                                                              
7000e499  CSL_bcdmaGetTxRT                                                              
7000e4af  CSL_bcdmaSetRxRT                                                              
7000e4c5  CSL_bcdmaSetTxRT                                                              
7000e4db  CUSBDMA_SanityFunction2                                                       
7000e4f1  CUSBD_SanityFunction8                                                         
7000e51d  usbClockCfg                                                                   
7000e533  usbd_int_set                                                                  
7000e549  CUSBD_SanityFunction16                                                        
7000e55d  CUSBD_SanityFunction19                                                        
7000e571  CUSBD_SanityFunction1                                                         
7000e585  ClockP_usecToTicks                                                            
7000e599  UART_Transaction_init                                                         
7000e5ad  dfu_moded_init                                                                
7000e5c1  dfu_moded_reset                                                               
7000e5d5  CPS_DelayNs                                                                   
7000e5e7  CUSBDMA_SanityFunction1                                                       
7000e5f9  TimerP_clearOverflowInt                                                       
7000e60b  UART_operatingModeSelect                                                      
7000e62f  tud_dfu_manifest_cb                                                           
7000e641  tud_inited                                                                    
7000e653  usbd_control_reset                                                            
7000e665  Bootloader_close                                                              
7000e675  Bootloader_getBootMedia                                                       
7000e685  Bootloader_isCorePresent                                                      
7000e695  CSL_lcdma_ringaccIsTeardownComplete                                           
7000e6a5  Sciclient_rmIrqRelease                                                        
7000e6b5  UART_intr2Disable                                                             
7000e6c5  Udma_rmTranslateCoreIntrInput                                                 
7000e6d5  Udma_rmTranslateIrOutput                                                      
7000e6e4  __aeabi_memset                                                                
7000e6e4  __aeabi_memset4                                                               
7000e6e4  __aeabi_memset8                                                               
7000e6f5  Bootloader_profileUpdateAppimageSize                                          
7000e703  Bootloader_profileUpdateMediaAndClk                                           
7000e711  Bootloader_socGetBootSeqOid                                                   
7000e71f  CUSBDMA_SanityFunction3                                                       
7000e72d  CUSBD_DClearSelfpowered                                                       
7000e73b  CUSBD_DSetSelfpowered                                                         
7000e749  CUSBD_SanityFunction3                                                         
7000e757  PowerClock_init                                                               
7000e765  dcd_int_disable                                                               
7000e773  dcd_int_enable                                                                
7000e781  usb_irq6_isr                                                                  
7000e78f  Bootloader_Params_init                                                        
7000e79b  ClockP_getTicks                                                               
7000e7a7  DebugP_uartSetDrvIndex                                                        
7000e7b3  Sciclient_getSelfDevIdCore                                                    
7000e7bf  UdmaChPdmaPrms_init                                                           
7000e7cc  __aeabi_memclr                                                                
7000e7cc  __aeabi_memclr4                                                               
7000e7cc  __aeabi_memclr8                                                               
7000e7d9  usbd_control_set_complete_callback                                            
7000e7e5  usbss_reset_assert                                                            
7000e7f1  Bootloader_getMulticoreImageSize                                              
7000e7fb  Bootloader_socGetSBLMem                                                       
7000e805  CSL_secProxyGetDataAddr                                                       
7000e80f  CUSBDMA_GetInstance                                                           
7000e819  CUSBD_GetInstance                                                             
7000e823  ClockP_Params_init                                                            
7000e82d  ClockP_isActive                                                               
7000e837  TimerP_start                                                                  
7000e841  UART_lld_Transaction_deInit                                                   
7000e84b  tud_descriptor_configuration_cb                                               
7000e855  tud_descriptor_device_cb                                                      
7000e85f  tud_dfu_get_timeout_cb                                                        
7000e869  CUSBD_GetDevInstance                                                          
7000e871  Udma_ringGetForwardRingOcc                                                    
7000e879  Udma_ringGetReverseRingOcc                                                    
7000e888  C$$EXIT                                                                       
7000e888  abort                                                                         
7000e891  CSL_pktdmaTeardownTxChan                                                      
7000e897  SOC_getFlashDataBaseAddr                                                      
7000e89d  Udma_rmAllocFreeRing                                                          
7000e8a3  dcd_init                                                                      
7000e8a9  tusb_init                                                                     
7000e8af  Board_driversOpen                                                             
7000e8b3  Bootloader_socWaitForFWBoot                                                   
7000e8b7  CPS_UncachedRead32                                                            
7000e8bb  CPS_UncachedWrite32                                                           
7000e8bf  CUSBD_Destroy                                                                 
7000e8c3  CUSBD_EpFifoStatus                                                            
7000e8c7  ClockP_getTimerCount                                                          
7000e8cb  ClockP_timerClearOverflowInt                                                  
7000e8d7  PowerClock_deinit                                                             
7000e8db  Sciclient_deinit                                                              
7000e8df  Sciclient_rmIrqSet                                                            
7000e8e3  TimerP_getCount                                                               
7000e8e7  TimerP_getReloadCount                                                         
7000e8eb  Udma_defaultVirtToPhyFxn                                                      
7000e8f0  __aeabi_ldiv0                                                                 
7000e8f4  __aeabi_memcpy                                                                
7000e8f4  __aeabi_memcpy4                                                               
7000e8f4  __aeabi_memcpy8                                                               
7000e8f9  putchar_                                                                      
7000e8fd  tusb_inited                                                                   
7000e931  HwiP_enableInt                                                                
7000e959  HwiP_disableInt                                                               
7000e98b  HwiP_restoreInt                                                               
7000e9e1  HwiP_clearInt                                                                 
7000ea01  HwiP_post                                                                     
7000ea29  HwiP_Params_init                                                              
7000ea3b  HwiP_construct                                                                
7000eb85  HwiP_destruct                                                                 
7000ec57  HwiP_init                                                                     
7000ed27  HwiP_inISR                                                                    
7000ed39  HwiP_irq_handler_c                                                            
7000edbf  HwiP_fiq_handler                                                              
7000ee73  HwiP_reserved_handler                                                         
7000eea1  HwiP_undefined_handler                                                        
7000eecf  HwiP_svc_handler                                                              
7000eefd  HwiP_prefetch_abort_handler                                                   
7000ef2b  HwiP_data_abort_handler_c                                                     
7000ef58  HwiP_irq_handler                                                              
7000efcc  HwiP_data_abort_handler                                                       
7000f018  HwiP_disable                                                                  
7000f028  HwiP_disableFIQ                                                               
7000f038  HwiP_enable                                                                   
7000f048  HwiP_enableFIQ                                                                
7000f058  HwiP_restore                                                                  
7000f060  HwiP_enableVIC                                                                
7000f070  HwiP_disableVIC                                                               
7000f080  HwiP_getCPSR                                                                  
7000f090  CacheP_disableL1d                                                             
7000f0b8  CacheP_disableL1p                                                             
7000f0d0  CacheP_enableL1d                                                              
7000f0e8  CacheP_enableL1p                                                              
7000f100  CacheP_invL1d                                                                 
7000f138  CacheP_invL1p                                                                 
7000f174  CacheP_invL1dAll                                                              
7000f17c  CacheP_invL1pAll                                                              
7000f184  CacheP_wb                                                                     
7000f1c0  CacheP_wbInv                                                                  
7000f1fc  CacheP_wbAll                                                                  
7000f2a4  CacheP_wbInvAll                                                               
7000f2bc  CacheP_wbInvAllAsm                                                            
7000f35c  CacheP_getEnabled                                                             
7000f394  CacheP_getCacheLevelInfo                                                      
7000f3a0  CacheP_configForceWrThru                                                      
7000f3c0  CacheP_setDLFO                                                                
7000f3d1  CacheP_init                                                                   
7000f429  CacheP_disable                                                                
7000f463  CacheP_enable                                                                 
7000f483  CacheP_inv                                                                    
7000f4c1  MpuP_RegionAttrs_init                                                         
7000f4cf  MpuP_setRegion                                                                
7000f57d  MpuP_isEnable                                                                 
7000f581  MpuP_disable                                                                  
7000f5b3  MpuP_enable                                                                   
7000f5eb  MpuP_init                                                                     
7000f650  MpuP_disableAsm                                                               
7000f668  MpuP_disableBRAsm                                                             
7000f678  MpuP_enableAsm                                                                
7000f690  MpuP_enableBRAsm                                                              
7000f6a0  MpuP_isEnableAsm                                                              
7000f6b4  MpuP_setRegionAsm                                                             
7000f6d8  _c_int00_sbl                                                                  
7000f6fc  _c_int00                                                                      
7000f7d5  _DebugP_assertNoLog                                                           
7000f7f3  __mpu_init                                                                    
7000f800  gUartDmaHandle                                                                
7000f800  usbCfgCusbd                                                                   
7000f8e0  gAddrTranslateInfo                                                            
7000f9a4  vint_usage_count_DMASS0_INTAGGR_0                                             
7000fa5c  gCoreBootInfo                                                                 
7000fba0  gRmIrInstances                                                                
7000fc00  gUartParams                                                                   
7000fcd4  gBootloaderConfig                                                             
7000fd3c  gRmIaInstances                                                                
7000fd5c  FileBufPtr                                                                    
7000fd60  gSciclientSecProxyCfg                                                         
7000fd9c  usbInitParam                                                                  
7000fdb8  _usbd_qdef                                                                    
7000fdd0  gClockConfig                                                                  
7000fde8  gSocModulesClockFrequency                                                     
7000fe00  gBootloaderMemFxns                                                            
7000fe14  gResMemSection                                                                
7000fe3c  string_desc_arr                                                               
7000fe50  cdns_dsr_qdef                                                                 
7000fe60  gAddrTranslateConfig                                                          
7000fe6c  gSocModules                                                                   
7000fe78  gBootloader0Args                                                              
7000fe90  gUartConfig                                                                   
7000fea0  dfu_ctx                                                                       
7000fea4  gBootloaderConfigNum                                                          
7000fea8  gDebugLogZone                                                                 
7000feac  gDebugP_uartDrvIndex                                                          
7000feb0  gHwiConfig                                                                    
7000fec8  gUartConfigNum                                                                
7000fecc  gUartDmaChConfig                                                              
7000fed0  operatingMode                                                                 
7000fed4  recvFileSize                                                                  
7000feda  gManifestDone                                                                 
7000fee0  gUdmaTxMappedChRingAttributes                                                 
70010018  gSciclientMap                                                                 
70010144  gUdmaRxMappedChRingAttributes                                                 
700101e0  gCacheConfig                                                                  
700101e8  gMpuConfig                                                                    
700101f4  gMpuRegionConfig                                                              
70010254  tisci_if_TIMESYNC_EVENT_INTROUTER0                                            
70010320  gRmIrqTree                                                                    
700103c8  gSOC_r5fVectors                                                               
700105d4  tisci_if_MAIN_GPIOMUX_INTROUTER0                                              
70010798  tisci_if_DMASS0_INTAGGR_0                                                     
70010b00  tisci_if_MCU_MCU_GPIOMUX_INTROUTER0                                           
70010c70  tisci_if_CPTS0                                                                
70010da0  tisci_if_PRU_ICSSG0                                                           
70010dbc  tisci_if_PRU_ICSSG1                                                           
70010dd8  desc_configuration                                                            
70010fa4  tisci_if_CMP_EVENT_INTROUTER0                                                 
70011068  tisci_if_PCIE0                                                                
700110b6  desc_device                                                                   
70011198  tisci_if_CPSW0                                                                
700111f4  gCacheL1dCacheLineSize                                                        
70011254  CMP_EVENT_INTROUTER0_outp_0_15_to_GICSS0_spi_48_63                            
7001125c  CMP_EVENT_INTROUTER0_outp_16_23_to_R5FSS0_CORE0_intr_48_55                    
70011264  CMP_EVENT_INTROUTER0_outp_16_23_to_R5FSS0_CORE1_intr_48_55                    
7001126c  CMP_EVENT_INTROUTER0_outp_24_31_to_R5FSS1_CORE0_intr_48_55                    
70011274  CMP_EVENT_INTROUTER0_outp_24_31_to_R5FSS1_CORE1_intr_48_55                    
7001127c  CMP_EVENT_INTROUTER0_outp_32_39_to_DMASS0_INTAGGR_0_intaggr_levi_pend_0_7     
70011284  CPSW0_cpts_comp_0_0_to_CMP_EVENT_INTROUTER0_in_80_80                          
7001128c  CPSW0_cpts_genf0_1_1_to_TIMESYNC_EVENT_INTROUTER0_in_21_21                    
70011294  CPSW0_cpts_genf1_2_2_to_TIMESYNC_EVENT_INTROUTER0_in_22_22                    
7001129c  CPSW0_cpts_sync_3_3_to_TIMESYNC_EVENT_INTROUTER0_in_34_34                     
700112a4  CPTS0_cpts_comp_0_0_to_CMP_EVENT_INTROUTER0_in_82_82                          
700112ac  CPTS0_cpts_genf0_1_1_to_TIMESYNC_EVENT_INTROUTER0_in_16_16                    
700112b4  CPTS0_cpts_genf1_2_2_to_TIMESYNC_EVENT_INTROUTER0_in_17_17                    
700112bc  CPTS0_cpts_genf2_3_3_to_TIMESYNC_EVENT_INTROUTER0_in_18_18                    
700112c4  CPTS0_cpts_genf3_4_4_to_TIMESYNC_EVENT_INTROUTER0_in_19_19                    
700112cc  CPTS0_cpts_genf4_5_5_to_TIMESYNC_EVENT_INTROUTER0_in_20_20                    
700112d4  CPTS0_cpts_genf5_6_6_to_TIMESYNC_EVENT_INTROUTER0_in_24_24                    
700112dc  CPTS0_cpts_sync_7_7_to_TIMESYNC_EVENT_INTROUTER0_in_35_35                     
700112e4  DMASS0_INTAGGR_0_intaggr_vintr_pend_0_39_to_GICSS0_spi_64_103                 
700112ec  DMASS0_INTAGGR_0_intaggr_vintr_pend_120_127_to_R5FSS1_CORE0_intr_8_15         
700112f4  DMASS0_INTAGGR_0_intaggr_vintr_pend_128_135_to_R5FSS1_CORE1_intr_8_15         
700112fc  DMASS0_INTAGGR_0_intaggr_vintr_pend_152_159_to_PRU_ICSSG0_pr1_slv_intr_16_23  
70011304  DMASS0_INTAGGR_0_intaggr_vintr_pend_160_167_to_PRU_ICSSG1_pr1_slv_intr_16_23  
7001130c  DMASS0_INTAGGR_0_intaggr_vintr_pend_168_183_to_MCU_M4FSS0_CORE0_nvic_32_47    
70011314  DMASS0_INTAGGR_0_intaggr_vintr_pend_40_71_to_R5FSS0_CORE0_intr_64_95          
7001131c  DMASS0_INTAGGR_0_intaggr_vintr_pend_40_71_to_R5FSS0_CORE1_intr_64_95          
70011324  DMASS0_INTAGGR_0_intaggr_vintr_pend_72_79_to_R5FSS0_CORE0_intr_8_15           
7001132c  DMASS0_INTAGGR_0_intaggr_vintr_pend_80_87_to_R5FSS0_CORE1_intr_8_15           
70011334  DMASS0_INTAGGR_0_intaggr_vintr_pend_88_119_to_R5FSS1_CORE0_intr_64_95         
7001133c  DMASS0_INTAGGR_0_intaggr_vintr_pend_88_119_to_R5FSS1_CORE1_intr_64_95         
70011344  EPWM0_epwm_synco_o_0_0_to_TIMESYNC_EVENT_INTROUTER0_in_39_39                  
7001134c  EPWM3_epwm_synco_o_0_0_to_TIMESYNC_EVENT_INTROUTER0_in_40_40                  
70011354  EPWM6_epwm_synco_o_0_0_to_TIMESYNC_EVENT_INTROUTER0_in_41_41                  
7001135c  GPIO0_gpio_0_89_to_MAIN_GPIOMUX_INTROUTER0_in_0_89                            
70011364  GPIO0_gpio_bank_90_98_to_MAIN_GPIOMUX_INTROUTER0_in_190_198                   
7001136c  GPIO1_gpio_0_89_to_MAIN_GPIOMUX_INTROUTER0_in_90_179                          
70011374  GPIO1_gpio_bank_90_98_to_MAIN_GPIOMUX_INTROUTER0_in_180_188                   
7001137c  GPMC0_gpmc_sdmareq_0_0_to_DMASS0_INTAGGR_0_intaggr_levi_pend_29_29            
70011384  GTC0_gtc_push_event_0_0_to_TIMESYNC_EVENT_INTROUTER0_in_36_36                 
7001138c  MAIN_GPIOMUX_INTROUTER0_outp_0_15_to_GICSS0_spi_32_47                         
70011394  MAIN_GPIOMUX_INTROUTER0_outp_0_15_to_R5FSS0_CORE0_intr_32_47                  
7001139c  MAIN_GPIOMUX_INTROUTER0_outp_0_15_to_R5FSS0_CORE1_intr_32_47                  
700113a4  MAIN_GPIOMUX_INTROUTER0_outp_0_15_to_R5FSS1_CORE0_intr_32_47                  
700113ac  MAIN_GPIOMUX_INTROUTER0_outp_0_15_to_R5FSS1_CORE1_intr_32_47                  
700113b4  MAIN_GPIOMUX_INTROUTER0_outp_16_17_to_DMASS0_INTAGGR_0_intaggr_levi_pend_24_25
700113bc  MAIN_GPIOMUX_INTROUTER0_outp_18_23_to_PRU_ICSSG0_pr1_iep0_cap_intr_req_4_9    
700113c4  MAIN_GPIOMUX_INTROUTER0_outp_18_23_to_PRU_ICSSG1_pr1_iep0_cap_intr_req_4_9    
700113cc  MAIN_GPIOMUX_INTROUTER0_outp_24_29_to_PRU_ICSSG0_pr1_iep1_cap_intr_req_10_15  
700113d4  MAIN_GPIOMUX_INTROUTER0_outp_24_29_to_PRU_ICSSG1_pr1_iep1_cap_intr_req_10_15  
700113dc  MAIN_GPIOMUX_INTROUTER0_outp_30_37_to_DMASS0_INTAGGR_0_intaggr_levi_pend_16_23
700113e4  MAIN_GPIOMUX_INTROUTER0_outp_38_45_to_PRU_ICSSG0_pr1_slv_intr_46_53           
700113ec  MAIN_GPIOMUX_INTROUTER0_outp_46_53_to_PRU_ICSSG1_pr1_slv_intr_46_53           
700113f4  MCU_GPIO0_gpio_0_29_to_MCU_MCU_GPIOMUX_INTROUTER0_in_0_29                     
700113fc  MCU_GPIO0_gpio_bank_30_31_to_MCU_MCU_GPIOMUX_INTROUTER0_in_30_31              
70011404  MCU_MCU_GPIOMUX_INTROUTER0_outp_0_3_to_GICSS0_spi_104_107                     
7001140c  MCU_MCU_GPIOMUX_INTROUTER0_outp_0_3_to_R5FSS0_CORE0_intr_104_107              
70011414  MCU_MCU_GPIOMUX_INTROUTER0_outp_0_3_to_R5FSS0_CORE1_intr_104_107              
7001141c  MCU_MCU_GPIOMUX_INTROUTER0_outp_0_3_to_R5FSS1_CORE0_intr_104_107              
70011424  MCU_MCU_GPIOMUX_INTROUTER0_outp_0_3_to_R5FSS1_CORE1_intr_104_107              
7001142c  MCU_MCU_GPIOMUX_INTROUTER0_outp_4_7_to_MCU_M4FSS0_CORE0_nvic_0_3              
70011434  MCU_MCU_GPIOMUX_INTROUTER0_outp_8_11_to_MCU_ESM0_esm_pls_event0_88_91         
7001143c  MCU_MCU_GPIOMUX_INTROUTER0_outp_8_11_to_MCU_ESM0_esm_pls_event1_92_95         
70011444  MCU_MCU_GPIOMUX_INTROUTER0_outp_8_11_to_MCU_ESM0_esm_pls_event2_96_99         
7001144c  PCIE0_pcie_cpts_comp_0_0_to_CMP_EVENT_INTROUTER0_in_81_81                     
70011454  PCIE0_pcie_cpts_genf0_1_1_to_TIMESYNC_EVENT_INTROUTER0_in_23_23               
7001145c  PCIE0_pcie_cpts_hw1_push_2_2_to_TIMESYNC_EVENT_INTROUTER0_in_37_37            
70011464  PCIE0_pcie_cpts_sync_3_3_to_TIMESYNC_EVENT_INTROUTER0_in_33_33                
7001146c  PCIE0_pcie_ptm_valid_pulse_4_4_to_TIMESYNC_EVENT_INTROUTER0_in_38_38          
70011474  PRU_ICSSG0_pr1_edc0_sync0_out_0_0_to_TIMESYNC_EVENT_INTROUTER0_in_25_25       
7001147c  PRU_ICSSG0_pr1_edc0_sync1_out_1_1_to_TIMESYNC_EVENT_INTROUTER0_in_26_26       
70011484  PRU_ICSSG0_pr1_edc1_sync0_out_2_2_to_TIMESYNC_EVENT_INTROUTER0_in_27_27       
7001148c  PRU_ICSSG0_pr1_edc1_sync1_out_3_3_to_TIMESYNC_EVENT_INTROUTER0_in_28_28       
70011494  PRU_ICSSG0_pr1_host_intr_req_4_11_to_CMP_EVENT_INTROUTER0_in_0_7              
7001149c  PRU_ICSSG0_pr1_iep0_cmp_intr_req_12_27_to_CMP_EVENT_INTROUTER0_in_16_31       
700114a4  PRU_ICSSG0_pr1_iep1_cmp_intr_req_28_43_to_CMP_EVENT_INTROUTER0_in_32_47       
700114ac  PRU_ICSSG1_pr1_edc0_sync0_out_0_0_to_TIMESYNC_EVENT_INTROUTER0_in_29_29       
700114b4  PRU_ICSSG1_pr1_edc0_sync1_out_1_1_to_TIMESYNC_EVENT_INTROUTER0_in_30_30       
700114bc  PRU_ICSSG1_pr1_edc1_sync0_out_2_2_to_TIMESYNC_EVENT_INTROUTER0_in_31_31       
700114c4  PRU_ICSSG1_pr1_edc1_sync1_out_3_3_to_TIMESYNC_EVENT_INTROUTER0_in_32_32       
700114cc  PRU_ICSSG1_pr1_host_intr_req_4_11_to_CMP_EVENT_INTROUTER0_in_8_15             
700114d4  PRU_ICSSG1_pr1_iep0_cmp_intr_req_12_27_to_CMP_EVENT_INTROUTER0_in_48_63       
700114dc  PRU_ICSSG1_pr1_iep1_cmp_intr_req_28_43_to_CMP_EVENT_INTROUTER0_in_64_79       
700114e4  TIMER0_timer_pwm_0_0_to_TIMESYNC_EVENT_INTROUTER0_in_0_0                      
700114ec  TIMER1_timer_pwm_0_0_to_TIMESYNC_EVENT_INTROUTER0_in_1_1                      
700114f4  TIMER2_timer_pwm_0_0_to_TIMESYNC_EVENT_INTROUTER0_in_2_2                      
700114fc  TIMER3_timer_pwm_0_0_to_TIMESYNC_EVENT_INTROUTER0_in_3_3                      
70011504  TIMESYNC_EVENT_INTROUTER0_outl_0_7_to_DMASS0_INTAGGR_0_intaggr_levi_pend_8_15 
7001150c  TIMESYNC_EVENT_INTROUTER0_outl_10_10_to_PRU_ICSSG0_pr1_edc1_latch0_in_2_2     
70011514  TIMESYNC_EVENT_INTROUTER0_outl_11_11_to_PRU_ICSSG0_pr1_edc1_latch1_in_3_3     
7001151c  TIMESYNC_EVENT_INTROUTER0_outl_12_12_to_PRU_ICSSG1_pr1_edc0_latch0_in_0_0     
70011524  TIMESYNC_EVENT_INTROUTER0_outl_13_13_to_PRU_ICSSG1_pr1_edc0_latch1_in_1_1     
7001152c  TIMESYNC_EVENT_INTROUTER0_outl_14_14_to_PRU_ICSSG1_pr1_edc1_latch0_in_2_2     
70011534  TIMESYNC_EVENT_INTROUTER0_outl_15_15_to_PRU_ICSSG1_pr1_edc1_latch1_in_3_3     
7001153c  TIMESYNC_EVENT_INTROUTER0_outl_16_16_to_CPTS0_cpts_hw1_push_0_0               
70011544  TIMESYNC_EVENT_INTROUTER0_outl_17_17_to_CPTS0_cpts_hw2_push_1_1               
7001154c  TIMESYNC_EVENT_INTROUTER0_outl_18_18_to_CPTS0_cpts_hw3_push_2_2               
70011554  TIMESYNC_EVENT_INTROUTER0_outl_19_19_to_CPTS0_cpts_hw4_push_3_3               
7001155c  TIMESYNC_EVENT_INTROUTER0_outl_20_20_to_CPTS0_cpts_hw5_push_4_4               
70011564  TIMESYNC_EVENT_INTROUTER0_outl_21_21_to_CPTS0_cpts_hw6_push_5_5               
7001156c  TIMESYNC_EVENT_INTROUTER0_outl_22_22_to_CPTS0_cpts_hw7_push_6_6               
70011574  TIMESYNC_EVENT_INTROUTER0_outl_23_23_to_CPTS0_cpts_hw8_push_7_7               
7001157c  TIMESYNC_EVENT_INTROUTER0_outl_29_29_to_PCIE0_pcie_cpts_hw2_push_0_0          
70011584  TIMESYNC_EVENT_INTROUTER0_outl_30_30_to_CPSW0_cpts_hw1_push_0_0               
7001158c  TIMESYNC_EVENT_INTROUTER0_outl_31_31_to_CPSW0_cpts_hw2_push_1_1               
70011594  TIMESYNC_EVENT_INTROUTER0_outl_32_32_to_CPSW0_cpts_hw3_push_2_2               
7001159c  TIMESYNC_EVENT_INTROUTER0_outl_33_33_to_CPSW0_cpts_hw4_push_3_3               
700115a4  TIMESYNC_EVENT_INTROUTER0_outl_34_34_to_CPSW0_cpts_hw5_push_4_4               
700115ac  TIMESYNC_EVENT_INTROUTER0_outl_35_35_to_CPSW0_cpts_hw6_push_5_5               
700115b4  TIMESYNC_EVENT_INTROUTER0_outl_36_36_to_CPSW0_cpts_hw7_push_6_6               
700115bc  TIMESYNC_EVENT_INTROUTER0_outl_37_37_to_CPSW0_cpts_hw8_push_7_7               
700115c4  TIMESYNC_EVENT_INTROUTER0_outl_8_8_to_PRU_ICSSG0_pr1_edc0_latch0_in_0_0       
700115cc  TIMESYNC_EVENT_INTROUTER0_outl_9_9_to_PRU_ICSSG0_pr1_edc0_latch1_in_1_1       
700115f4  tisci_if_GPIO0                                                                
700115fc  tisci_if_GPIO1                                                                
70011604  tisci_if_MCU_GPIO0                                                            
70011714  gCacheL1pCacheLineSize                                                        
70011718  gRmIrqTreeCount                                                               
70011724  tisci_if_EPWM0                                                                
70011728  tisci_if_EPWM3                                                                
7001172c  tisci_if_EPWM6                                                                
70011730  tisci_if_GPMC0                                                                
70011734  tisci_if_GTC0                                                                 
70011738  tisci_if_TIMER0                                                               
7001173c  tisci_if_TIMER1                                                               
70011740  tisci_if_TIMER2                                                               
70011744  tisci_if_TIMER3                                                               
70050000  setupReqPacket                                                                
70050008  DataXferRequestsOut                                                           
700500e8  buffEpOut                                                                     
700510e8  dataXferBufferOut                                                             
700510f8  buffEpIn                                                                      
700520f8  dataXferBufferIn                                                              
70052108  buff                                                                          
70052d08  epMemRes                                                                      
70053000  alignedBufCusbd                                                               
70057000  ep0Buff                                                                       
70057400  DataXferRequestsIn                                                            
700574e0  ep0Req                                                                        
70057518  buffEp0                                                                       
70057558  ep0DataXferRequest                                                            
70058000  __stack                                                                       
70058000  __start___llvm_prf_bits                                                       
70058000  __start___llvm_prf_cnts                                                       
70058000  __stop___llvm_prf_bits                                                        
70058000  __stop___llvm_prf_cnts                                                        
7005c000  __BSS_START                                                                   
7005c000  __STACK_END                                                                   
7005c000  gHwiCtrl                                                                      
7005d008  cdns_dsr_qdef_buf                                                             
7005dc70  gProfileObj                                                                   
7005dd8c  _usbd_qdef_buf                                                                
7005de4c  usb_handle                                                                    
7005df80  gClockCtrl                                                                    
7005dff4  cdns_dsr_qdef_queue                                                           
7005e008  sysReqCusbd                                                                   
7005e014  cdns_dsr_q                                                                    
7005e018  gUartHandle                                                                   
7005e020  __BSS_END                                                                     
7005e020  __DFU_CTX_START                                                               
7005e22c  __DFU_CTX_END                                                                 
7005e230  __IRQ_STACK_START                                                             
7005f230  __FIQ_STACK_START                                                             
7005f230  __IRQ_STACK_END                                                               
7005f330  __FIQ_STACK_END                                                               
7005f330  __SVC_STACK_START                                                             
7005f430  __ABORT_STACK_START                                                           
7005f430  __SVC_STACK_END                                                               
7005f530  __ABORT_STACK_END                                                             
7005f530  __UNDEFINED_STACK_START                                                       
7005f630  __UNDEFINED_STACK_END                                                         
70180000  gAppImageBuf                                                                  
ffffffff  __TI_pprof_out_hndl                                                           
ffffffff  __TI_prof_data_size                                                           
ffffffff  __TI_prof_data_start                                                          
ffffffff  __binit__                                                                     
ffffffff  binit                                                                         
UNDEFED   __TI_CINIT_Base                                                               
UNDEFED   __TI_CINIT_Limit                                                              
UNDEFED   __TI_Handler_Table_Base                                                       
UNDEFED   __TI_Handler_Table_Limit                                                      
UNDEFED   _system_post_cinit                                                            
UNDEFED   dcd_edpt0_status_complete                                                     
UNDEFED   tud_descriptor_bos_cb                                                         
UNDEFED   tud_descriptor_device_qualifier_cb                                            
UNDEFED   tud_descriptor_other_speed_configuration_cb                                   
UNDEFED   tud_dfu_abort_cb                                                              
UNDEFED   tud_dfu_detach_cb                                                             
UNDEFED   tud_dfu_upload_cb                                                             
UNDEFED   tud_mount_cb                                                                  
UNDEFED   tud_resume_cb                                                                 
UNDEFED   tud_suspend_cb                                                                
UNDEFED   tud_umount_cb                                                                 
UNDEFED   tud_vendor_control_xfer_cb                                                    
UNDEFED   usbd_app_driver_get_cb                                                        

[738 symbols]
