******************************************************************************
            TI ARM Clang Linker Unix v3.2.0                    
******************************************************************************
>> Linked Wed Dec 13 09:23:11 2023

OUTPUT FILE NAME:   <sbl_uart.release.out>
ENTRY POINT SYMBOL: "_vectors_sbl"  address: 43c00040


MEMORY CONFIGURATION

         name            origin    length      used     unused   attr    fill
----------------------  --------  ---------  --------  --------  ----  --------
  HSM_RAM_VECS          43c00000   00000100  00000080  00000080  RWIX
  HSM_RAM               43c00100   0003c700  00022090  0001a670  RWIX
  DDR                   84000000   40000000  40000000  00000000  RWIX


SEGMENT ALLOCATION MAP

run origin  load origin   length   init length attrs members
----------  ----------- ---------- ----------- ----- -------
43c00000    43c00000    00000080   00000080    r-x
  43c00000    43c00000    00000080   00000080    r-x .vectors
43c00100    43c00100    00012ca8   00012ca8    r-x
  43c00100    43c00100    000106c0   000106c0    r-x .text
  43c107c0    43c107c0    00001730   00001730    r-- .const
  43c11ef0    43c11ef0    00000718   00000718    r-x .text.hwi
  43c12608    43c12608    00000430   00000430    r-x .text.cache
  43c12a38    43c12a38    00000248   00000248    r-x .text.mpu
  43c12c80    43c12c80    00000128   00000128    r-x .text.boot
43c12da8    43c12da8    00003380   00003380    rw-
  43c12da8    43c12da8    00003380   00003380    rw- .data
43c16128    43c16128    00003b48   00003b48    r--
  43c16128    43c16128    00003b48   00003b48    r-- .rodata
43c19c80    43c19c80    00000800   00000800    r--
  43c19c80    43c19c80    00000800   00000800    r-- .boardcfg_data
43c1a480    43c1a480    00006910   00000000    rw-
  43c1a480    43c1a480    00004000   00000000    rw- .stack
  43c1e480    43c1e480    00002910   00000000    rw- .bss
43c20d90    43c20d90    00001400   00000000    r--
  43c20d90    43c20d90    00001000   00000000    r-- .irqstack
  43c21d90    43c21d90    00000100   00000000    r-- .fiqstack
  43c21e90    43c21e90    00000100   00000000    r-- .svcstack
  43c21f90    43c21f90    00000100   00000000    r-- .abortstack
  43c22090    43c22090    00000100   00000000    r-- .undefinedstack


SECTION ALLOCATION MAP

 output                                  attributes/
section   page    origin      length       input sections
--------  ----  ----------  ----------   ----------------
.vectors   0    43c00000    00000080     
                  43c00000    00000040     nortos.am62x.r5f.ti-arm-clang.release.lib : HwiP_armv7r_vectors_nortos_asm.obj (.vectors)
                  43c00040    00000040                                               : HwiP_armv7r_vectors_nortos_sbl_asm.obj (.vectors)

.text      0    43c00100    000106c0     
                  43c00100    00000740     rm_pm_hal_sbl.am62x.r5f.ti-arm-clang.release.lib : pll.obj (.text.pll_calc)
                  43c00840    0000062c                                                      : rm_udmap.obj (.text.rm_udmap_tx_ch_cfg)
                  43c00e6c    000005c4                                                      : rm_udmap.obj (.text.rm_udmap_rx_ch_cfg)
                  43c01430    00000598     nortos.am62x.r5f.ti-arm-clang.release.lib : printf.obj (.text._vsnprintf)
                  43c019c8    000004f2     drivers.am62x.r5f.ti-arm-clang.release.lib : uart_v0.obj (.text.UART_open)
                  43c01eba    00000002     ti_board_config.obj (.text.Board_deinit)
                  43c01ebc    0000043c     rm_pm_hal_sbl.am62x.r5f.ti-arm-clang.release.lib : rm_ra.obj (.text.rm_ra_cfg)
                  43c022f8    00000420     drivers.am62x.r5f.ti-arm-clang.release.lib : ddr.obj (.text.DDR_init)
                  43c02718    00000398     nortos.am62x.r5f.ti-arm-clang.release.lib : printf.obj (.text._ftoa)
                  43c02ab0    00000388     rm_pm_hal_sbl.am62x.r5f.ti-arm-clang.release.lib : psc.obj (.text.lpsc_module_sync_state)
                  43c02e38    0000031c     sciclient_direct_sbl.am62x.r5f.ti-arm-clang.release.lib : sciclient.obj (.text.Sciclient_serviceSecureProxy)
                  43c03154    00000004     ti_board_open_close.obj (.text.Board_driversOpen)
                  43c03158    00000310     nortos.am62x.r5f.ti-arm-clang.release.lib : printf.obj (.text._etoa)
                  43c03468    000002e8     rm_pm_hal_sbl.am62x.r5f.ti-arm-clang.release.lib : rm_udmap.obj (.text.rm_udmap_flow_cfg)
                  43c03750    00000292                                                      : pll.obj (.text.pll_consider)
                  43c039e2    00000290     drivers.am62x.r5f.ti-arm-clang.release.lib : uart_v0.obj (.text.UART_read)
                  43c03c72    00000002     ti_board_config.obj (.text.Board_init)
                  43c03c74    00000280     rm_pm_hal_sbl.am62x.r5f.ti-arm-clang.release.lib : clk_div.obj (.text.clk_div_set_freq)
                  43c03ef4    0000027c                                                      : clk_pll_16fft.obj (.text.clk_pll_16fft_hsdiv_set_freq)
                  43c04170    00000260                                                      : clk_pll_16fft.obj (.text.clk_pll_16fft_init)
                  43c043d0    0000024a     drivers.am62x.r5f.ti-arm-clang.release.lib : bootloader.obj (.text.Bootloader_verifyMulticoreImage)
                  43c0461a    00000002                                                : ddr_soc.obj (.text.DDR_socEnableVttRegulator)
                  43c0461c    00000248     rm_pm_hal_sbl.am62x.r5f.ti-arm-clang.release.lib : device_clk.obj (.text.dev_clk_set_freq)
                  43c04864    00000224                                                      : rm_irq.obj (.text.rm_irq_release)
                  43c04a88    00000220     drivers.am62x.r5f.ti-arm-clang.release.lib : uart_v0.obj (.text.UART_masterIsr)
                  43c04ca8    00000206                                                : xmodem.obj (.text.xmodemReceive)
                  43c04eae    00000002                                                : bootloader_mem.obj (.text.Mem_imgClose)
                  43c04eb0    00000200     rm_pm_hal_sbl.am62x.r5f.ti-arm-clang.release.lib : device.obj (.text.devices_init)
                  43c050b0    000001fe     drivers.am62x.r5f.ti-arm-clang.release.lib : uart_v0.obj (.text.UART_write)
                  43c052ae    00000002     nortos.am62x.r5f.ti-arm-clang.release.lib : SemaphoreP_nortos.obj (.text.SemaphoreP_destruct)
                  43c052b0    000001fc     rm_pm_hal_sbl.am62x.r5f.ti-arm-clang.release.lib : rm_irq.obj (.text.rm_irq_set)
                  43c054ac    000001f0     drivers.am62x.r5f.ti-arm-clang.release.lib : xmodem.obj (.text.xmodemTransmit)
                  43c0569c    000001e0     rm_pm_hal_sbl.am62x.r5f.ti-arm-clang.release.lib : clk_pll_16fft.obj (.text.clk_pll_16fft_program_freq)
                  43c0587c    000001d4     sciclient_direct_sbl.am62x.r5f.ti-arm-clang.release.lib : sciclient_direct.obj (.text.Sciclient_service)
                  43c05a50    000001d0                                                             : sciclient.obj (.text.Sciclient_init)
                  43c05c20    000001c0     nortos.am62x.r5f.ti-arm-clang.release.lib : TimerP.obj (.text.TimerP_setup)
                  43c05de0    000001b0     rm_pm_hal_sbl.am62x.r5f.ti-arm-clang.release.lib : psc.obj (.text.psc_pre_init)
                  43c05f90    000001ae     drivers.am62x.r5f.ti-arm-clang.release.lib : bootloader_soc.obj (.text.Bootloader_socCpuResetRelease)
                  43c0613e    000001a2                                                : ddr_soc.obj (.text.DDR_programPLL)
                  43c062e0    00000164     rm_pm_hal_sbl.am62x.r5f.ti-arm-clang.release.lib : rm_udmap.obj (.text.rm_udmap_gcfg_cfg)
                  43c06444    0000015c                                                      : device_process.obj (.text.set_device_handler)
                  43c065a0    00000158                                                      : rm_ir.obj (.text.rm_ir_configure)
                  43c066f8    00000152     nortos.am62x.r5f.ti-arm-clang.release.lib : printf.obj (.text._ntoa_format)
                  43c0684a    00000002                                               : TaskP_nortos.obj (.text.TaskP_yield)
                  43c0684c    0000014c     sciclient_direct_sbl.am62x.r5f.ti-arm-clang.release.lib : uart_print.obj (.text.UART_printf)
                  43c06998    0000014a     drivers.am62x.r5f.ti-arm-clang.release.lib : soc.obj (.text.SOC_moduleSetClockFrequency)
                  43c06ae2    00000002     nortos.am62x.r5f.ti-arm-clang.release.lib : printf.obj (.text._out_null)
                  43c06ae4    00000148     rm_pm_hal_sbl.am62x.r5f.ti-arm-clang.release.lib : clk.obj (.text.clk_init)
                  43c06c2c    00000146     sciclient_direct_sbl.am62x.r5f.ti-arm-clang.release.lib : sciclient_direct.obj (.text.Sciclient_ProcessPmMessage)
                  43c06d72    00000146     drivers.am62x.r5f.ti-arm-clang.release.lib : uart_v0.obj (.text.UART_close)
                  43c06eb8    00000134                                                : bootloader.obj (.text.Bootloader_parseMultiCoreAppImage)
                  43c06fec    00000134     rm_pm_hal_sbl.am62x.r5f.ti-arm-clang.release.lib : rm_ra.obj (.text.ra_get_ring_evt)
                  43c07120    00000134                                                      : rm_ra.obj (.text.ra_set_ring_evt)
                  43c07254    0000012c                                                      : psc.obj (.text.psc_uninit)
                  43c07380    00000124                                                      : clk_pll_16fft.obj (.text.clk_pll_16fft_get_freq)
                  43c074a4    00000122                                                      : rm_udmap.obj (.text.udmap_oes_index_validate)
                  43c075c6    00000120     drivers.am62x.r5f.ti-arm-clang.release.lib : lpddr4_am6x.obj (.text.LPDDR4_CheckCtlInterrupt)
                  43c076e6    00000002     rm_pm_hal_sbl.am62x.r5f.ti-arm-clang.release.lib : ioremap.obj (.text.ioremap_internal)
                  43c076e8    00000120                                                      : rm_udmap.obj (.text.udmap_get_ch_evt)
                  43c07808    0000011e     drivers.am62x.r5f.ti-arm-clang.release.lib : bootloader_dma.obj (.text.BootloaderDma_submitTR)
                  43c07926    00000002     rm_pm_hal_sbl.am62x.r5f.ti-arm-clang.release.lib : mmr_lock.obj (.text.mmr_lock_all)
                  43c07928    0000011c                                                      : clk_pll_16fft.obj (.text.clk_pll_16fft_internal_set_freq)
                  43c07a44    00000118     libclang_rt.builtins.a : udivmoddi4.S.obj (.text)
                  43c07b5c    00000116     drivers.am62x.r5f.ti-arm-clang.release.lib : bootloader_soc.obj (.text.Bootloader_socCpuPowerOnResetHSMM4f)
                  43c07c72    00000112                                                : bootloader.obj (.text.Bootloader_rprcImageLoad)
                  43c07d84    00000112                                                : bootloader_soc.obj (.text.Bootloader_socCpuPowerOnResetM4f)
                  43c07e96    00000112                                                : lpddr4_am6x.obj (.text.LPDDR4_AckCtlInterrupt)
                  43c07fa8    0000010c     main.obj (.text.main)
                  43c080b4    0000010c     rm_pm_hal_sbl.am62x.r5f.ti-arm-clang.release.lib : rm_core.obj (.text.rm_core_get_resource_range)
                  43c081c0    0000010c                                                      : rm_ia.obj (.text.rm_ia_vint_map)
                  43c082cc    00000104                                                      : device_clk.obj (.text.device_clk_get_parent)
                  43c083d0    00000100     sciclient_direct_sbl.am62x.r5f.ti-arm-clang.release.lib : sciclient_direct.obj (.text.Sciclient_ProcessRmMessage)
                  43c084d0    000000fc     nortos.am62x.r5f.ti-arm-clang.release.lib : ClockP_nortos_r5.obj (.text.ClockP_init)
                  43c085cc    000000f8     rm_pm_hal_sbl.am62x.r5f.ti-arm-clang.release.lib : rm_udmap.obj (.text.udmap_set_ch_evt)
                  43c086c4    000000f2                                                      : rm_ia.obj (.text.rm_ia_vint_unmap)
                  43c087b6    000000f0     drivers.am62x.r5f.ti-arm-clang.release.lib : bootloader_dma.obj (.text.Bootloader_dmaCopy)
                  43c088a6    00000002     rm_pm_hal_sbl.am62x.r5f.ti-arm-clang.release.lib : map.obj (.text.u32_get_bytes)
                  43c088a8    000000ec                                                      : clk_div.obj (.text.clk_div_notify_freq)
                  43c08994    000000ec                                                      : psc.obj (.text.psc_pd_get)
                  43c08a80    000000e8                                                      : rm_udmap.obj (.text.rm_udmap_is_managed_resasg_utype)
                  43c08b68    000000e6                                                      : rm_ia.obj (.text.ia_validate_evt)
                  43c08c4e    00000002     --HOLE-- [fill = 0]
                  43c08c50    000000e0                                                      : clk.obj (.text.clk_set_freq)
                  43c08d30    000000e0                                                      : device_clk.obj (.text.device_clk_set_gated)
                  43c08e10    000000e0                                                      : psc.obj (.text.lpsc_module_wait)
                  43c08ef0    000000dc                                                      : rm_ra.obj (.text.rm_ra_mon_cfg)
                  43c08fcc    000000d2     main.obj (.text.App_loadImages)
                  43c0909e    00000002     --HOLE-- [fill = 0]
                  43c090a0    000000d0     rm_pm_hal_sbl.am62x.r5f.ti-arm-clang.release.lib : rm_ia.obj (.text.ia_set_oes_evt)
                  43c09170    000000d0                                                      : psc.obj (.text.lpsc_module_put_internal)
                  43c09240    000000d0                                                      : psc.obj (.text.psc_pd_put)
                  43c09310    000000d0                                                      : rm_udmap.obj (.text.rm_udmap_flow_delegate)
                  43c093e0    000000ca                                                      : rm_ia.obj (.text.ia_get_oes_evt)
                  43c094aa    00000002     --HOLE-- [fill = 0]
                  43c094ac    000000c8                                                      : rm_ia.obj (.text.rm_ia_init)
                  43c09574    000000c4                                                      : clk_div.obj (.text.clk_div_set_freq_static_parent)
                  43c09638    000000c4                                                      : device_clk.obj (.text.device_clk_set_parent)
                  43c096fc    000000c0                                                      : clk_pll_16fft.obj (.text.clk_pll_16fft_wait_for_lock)
                  43c097bc    000000c0                                                      : clk_mux.obj (.text.clk_set_parent)
                  43c0987c    000000c0                                                      : clock.obj (.text.get_clock_handler)
                  43c0993c    000000c0                                                      : psc.obj (.text.psc_post_init)
                  43c099fc    000000c0                                                      : clock.obj (.text.set_clock_handler)
                  43c09abc    000000bc     sciclient_direct_sbl.am62x.r5f.ti-arm-clang.release.lib : sciclient_pm.obj (.text.Sciclient_pmQueryModuleClkFreq)
                  43c09b78    000000bc     rm_pm_hal_sbl.am62x.r5f.ti-arm-clang.release.lib : rm_core.obj (.text.rm_core_resasg_validate_resource)
                  43c09c34    000000bc                                                      : clock.obj (.text.set_freq_handler)
                  43c09cf0    000000bc                                                      : device_psc.obj (.text.soc_device_init)
                  43c09dac    000000b8     sciclient_direct_sbl.am62x.r5f.ti-arm-clang.release.lib : sciclient_direct.obj (.text.Sciclient_boardCfgParseHeader)
                  43c09e64    000000b8     drivers.am62x.r5f.ti-arm-clang.release.lib : uart_v0.obj (.text.UART_divisorLatchWrite)
                  43c09f1c    000000b8                                                : uart_v0.obj (.text.UART_flushTxFifo)
                  43c09fd4    000000b8     rm_pm_hal_sbl.am62x.r5f.ti-arm-clang.release.lib : clock.obj (.text.query_freq_handler)
                  43c0a08c    000000b6                                                      : map.obj (.text.map_add)
                  43c0a142    000000b6                                                      : div64.obj (.text.pm_div64)
                  43c0a1f8    000000b4                                                      : clk_div.obj (.text.clk_div_reg_go_set_div)
                  43c0a2ac    000000b4                                                      : init.obj (.text.pm_init)
                  43c0a360    000000b0     nortos.am62x.r5f.ti-arm-clang.release.lib : printf.obj (.text._ntoa_long_long)
                  43c0a410    000000b0     rm_pm_hal_sbl.am62x.r5f.ti-arm-clang.release.lib : rm_ra.obj (.text.rm_ra_init)
                  43c0a4c0    000000ae     sciclient_direct_sbl.am62x.r5f.ti-arm-clang.release.lib : sciclient_direct.obj (.text.boardcfgRmFindCertSize)
                  43c0a56e    00000002     --HOLE-- [fill = 0]
                  43c0a570    000000ac     rm_pm_hal_sbl.am62x.r5f.ti-arm-clang.release.lib : psc.obj (.text.lpsc_module_get_internal)
                  43c0a61c    000000ac                                                      : rm_udmap.obj (.text.rm_udmap_init)
                  43c0a6c8    000000aa     sciclient_direct_sbl.am62x.r5f.ti-arm-clang.release.lib : sciclient_pm.obj (.text.Sciclient_pmSetModuleClkFreq)
                  43c0a772    000000aa     drivers.am62x.r5f.ti-arm-clang.release.lib : uart_v0.obj (.text.UART_procLineStatusErr)
                  43c0a81c    000000a8     rm_pm_hal_sbl.am62x.r5f.ti-arm-clang.release.lib : rm_udmap.obj (.text.udmap_check_index_range)
                  43c0a8c4    000000a6     nortos.am62x.r5f.ti-arm-clang.release.lib : printf.obj (.text._out_rev)
                  43c0a96a    00000002     --HOLE-- [fill = 0]
                  43c0a96c    000000a4     rm_pm_hal_sbl.am62x.r5f.ti-arm-clang.release.lib : boardcfg-user.obj (.text.boardcfg_rm_receive_and_validate)
                  43c0aa10    000000a0                                                      : device_prepare.obj (.text.device_prepare)
                  43c0aab0    000000a0                                                      : device_process.obj (.text.get_device_handler)
                  43c0ab50    000000a0                                                      : rm_core.obj (.text.rm_core_init)
                  43c0abf0    000000a0                                                      : rm_ra.obj (.text.rm_ra_validate_ring_index)
                  43c0ac90    0000009e                                                      : rm_udmap.obj (.text.udmap_check_flow_index)
                  43c0ad2e    0000009c                                                      : clk.obj (.text.clk_generic_set_freq_parent)
                  43c0adca    00000002     --HOLE-- [fill = 0]
                  43c0adcc    0000009c                                                      : clk_pll_16fft.obj (.text.clk_pll_16fft_set_freq)
                  43c0ae68    0000009c                                                      : rm_ir.obj (.text.rm_ir_clear)
                  43c0af04    00000098     sciclient_direct_sbl.am62x.r5f.ti-arm-clang.release.lib : sciclient.obj (.text.Sciclient_serviceGetThreadIds)
                  43c0af9c    00000096     nortos.am62x.r5f.ti-arm-clang.release.lib : SemaphoreP_nortos.obj (.text.SemaphoreP_pend)
                  43c0b032    00000094     drivers.am62x.r5f.ti-arm-clang.release.lib : bootloader.obj (.text.Bootloader_getMsgLen)
                  43c0b0c6    00000094                                                : uart_v0.obj (.text.UART_init)
                  43c0b15a    00000002     --HOLE-- [fill = 0]
                  43c0b15c    00000094     rm_pm_hal_sbl.am62x.r5f.ti-arm-clang.release.lib : rm_irq.obj (.text.irq_trace_remaining_params)
                  43c0b1f0    00000090     drivers.am62x.r5f.ti-arm-clang.release.lib : bootloader.obj (.text.Bootloader_loadSelfCpu)
                  43c0b280    00000090     rm_pm_hal_sbl.am62x.r5f.ti-arm-clang.release.lib : device_pm.obj (.text.device_set_state)
                  43c0b310    00000090                                                      : rm_ir.obj (.text.ir_clear_rom_mapping)
                  43c0b3a0    00000090                                                      : psc.obj (.text.lpsc_module_set_local_reset)
                  43c0b430    0000008e     drivers.am62x.r5f.ti-arm-clang.release.lib : uart_v0.obj (.text.UART_readCancelNoCB)
                  43c0b4be    00000002     --HOLE-- [fill = 0]
                  43c0b4c0    0000008c     sciclient_direct_sbl.am62x.r5f.ti-arm-clang.release.lib : uart_print.obj (.text.UART_convertVal)
                  43c0b54c    0000008c     nortos.am62x.r5f.ti-arm-clang.release.lib : printf.obj (.text._ntoa_long)
                  43c0b5d8    0000008c     rm_pm_hal_sbl.am62x.r5f.ti-arm-clang.release.lib : clk_mux.obj (.text.clk_mux_set_parent)
                  43c0b664    0000008c                                                      : psc.obj (.text.psc_pd_wait)
                  43c0b6f0    0000008a                                                      : rm_ra.obj (.text.ra_check_index_range)
                  43c0b77a    00000002     --HOLE-- [fill = 0]
                  43c0b77c    00000088                                                      : psc.obj (.text.lpsc_module_set_module_reset)
                  43c0b804    00000086     sciclient_direct_sbl.am62x.r5f.ti-arm-clang.release.lib : sciclient_pm.obj (.text.Sciclient_pmGetModuleClkNumParent)
                  43c0b88a    00000086                                                             : sciclient_pm.obj (.text.Sciclient_pmGetModuleClkParent)
                  43c0b910    00000084                                                             : sciclient_boardcfg.obj (.text.Sciclient_boardCfgPm)
                  43c0b994    00000084                                                             : sciclient_boardcfg.obj (.text.Sciclient_boardCfgRm)
                  43c0ba18    00000084                                                             : sciclient_pm.obj (.text.Sciclient_pmGetModuleClkFreq)
                  43c0ba9c    00000084                                                             : sciclient_pm.obj (.text.Sciclient_pmModuleGetClkStatus)
                  43c0bb20    00000082                                                             : sciclient_pm.obj (.text.Sciclient_pmGetModuleState)
                  43c0bba2    00000002     --HOLE-- [fill = 0]
                  43c0bba4    00000080                                                             : sciclient.obj (.text.Sciclient_ISR)
                  43c0bc24    00000080                                                             : sciclient_secureproxy.obj (.text.Sciclient_sendMessage)
                  43c0bca4    00000080     rm_pm_hal_sbl.am62x.r5f.ti-arm-clang.release.lib : clk_div.obj (.text.clk_div_reg_set_div)
                  43c0bd24    00000080                                                      : clk_pll_16fft.obj (.text.clk_pll_16fft_postdiv_set_freq)
                  43c0bda4    00000080                                                      : clock.obj (.text.set_clock_parent_handler)
                  43c0be24    0000007e     drivers.am62x.r5f.ti-arm-clang.release.lib : bootloader_soc.obj (.text.Bootloader_socCpuSetClock)
                  43c0bea2    0000007e     sciclient_direct_sbl.am62x.r5f.ti-arm-clang.release.lib : sciclient_pm.obj (.text.Sciclient_pmModuleClkRequest)
                  43c0bf20    0000007e                                                             : sciclient_pm.obj (.text.Sciclient_pmSetModuleClkParent)
                  43c0bf9e    00000002     --HOLE-- [fill = 0]
                  43c0bfa0    0000007c     rm_pm_hal_sbl.am62x.r5f.ti-arm-clang.release.lib : clk.obj (.text.clk_notify_sibling_freq)
                  43c0c01c    0000007c                                                      : clk_pll_16fft.obj (.text.clk_pll_16fft_postdiv_set_div)
                  43c0c098    0000007c                                                      : clock.obj (.text.get_clock_parent_handler)
                  43c0c114    0000007c                                                      : clock.obj (.text.get_num_clock_parents_handler)
                  43c0c190    0000007c                                                      : rm_ra.obj (.text.rm_ra_is_managed_resasg_utype)
                  43c0c20c    0000007a                                                      : rm_udmap.obj (.text.udmap_clear_rom_oes)
                  43c0c286    00000002     --HOLE-- [fill = 0]
                  43c0c288    00000078     sciclient_direct_sbl.am62x.r5f.ti-arm-clang.release.lib : sciclient.obj (.text.Sciclient_servicePrepareHeader)
                  43c0c300    00000078     rm_pm_hal_sbl.am62x.r5f.ti-arm-clang.release.lib : psc.obj (.text.psc_drop_pwr_up_ref)
                  43c0c378    00000074                                                      : clk_dev.obj (.text.clk_from_device_get_state)
                  43c0c3ec    00000074                                                      : clk.obj (.text.clk_get)
                  43c0c460    00000074                                                      : device_process.obj (.text.set_device_resets_handler)
                  43c0c4d4    00000072     drivers.am62x.r5f.ti-arm-clang.release.lib : bootloader_soc.obj (.text.Bootloader_socCpuPowerOnResetA53)
                  43c0c546    00000002     --HOLE-- [fill = 0]
                  43c0c548    00000070     sciclient_direct_sbl.am62x.r5f.ti-arm-clang.release.lib : sciclient.obj (.text.Sciclient_configPrmsInit)
                  43c0c5b8    0000006e     drivers.am62x.r5f.ti-arm-clang.release.lib : ddr_soc.obj (.text.DDR_programHSDIV)
                  43c0c626    0000006e                                                : lpddr4.obj (.text.LPDDR4_Start)
                  43c0c694    0000006e                                                : soc.obj (.text.SOC_moduleClockEnable)
                  43c0c702    0000006e     rm_pm_hal_sbl.am62x.r5f.ti-arm-clang.release.lib : rm_core.obj (.text.core_resasg_get_range)
                  43c0c770    0000006c                                                      : device_clk.obj (.text.device_clk_init)
                  43c0c7dc    0000006c                                                      : device_clk.obj (.text.get_dev_clk)
                  43c0c848    0000006c                                                      : psc.obj (.text.lpsc_module_set_reset_iso)
                  43c0c8b4    0000006a                                                      : rm_ia.obj (.text.ia_unmap_clear_rom_mapping)
                  43c0c91e    00000068     nortos.am62x.r5f.ti-arm-clang.release.lib : AddrTranslateP.obj (.text.AddrTranslateP_getLocalAddr)
                  43c0c986    00000068     drivers.am62x.r5f.ti-arm-clang.release.lib : bootloader_soc.obj (.text.Bootloader_socCpuRelease)
                  43c0c9ee    00000068                                                : uart_v0.obj (.text.UART_writeCancelNoCB)
                  43c0ca56    00000002     --HOLE-- [fill = 0]
                  43c0ca58    00000068     rm_pm_hal_sbl.am62x.r5f.ti-arm-clang.release.lib : clk_mux.obj (.text.clk_mux_get_parent)
                  43c0cac0    00000068                                                      : rm_core.obj (.text.rm_core_validate_devgrp)
                  43c0cb28    00000068                                                      : rm_ir.obj (.text.rm_ir_get_outp)
                  43c0cb90    00000066     drivers.am62x.r5f.ti-arm-clang.release.lib : bootloader_soc.obj (.text.Bootloader_socCpuRequest)
                  43c0cbf6    00000064                                                : bootloader_soc.obj (.text.Bootloader_socCpuGetClock)
                  43c0cc5a    00000064                                                : bootloader_soc.obj (.text.Bootloader_socMemInitCpu)
                  43c0ccbe    00000064                                                : csl_emif.obj (.text.CSL_emifConfig)
                  43c0cd22    00000064     sciclient_direct_sbl.am62x.r5f.ti-arm-clang.release.lib : sciclient_procboot.obj (.text.Sciclient_procBootSetSequenceCtrl)
                  43c0cd86    00000002     --HOLE-- [fill = 0]
                  43c0cd88    00000064     rm_pm_hal_sbl.am62x.r5f.ti-arm-clang.release.lib : clk_div.obj (.text.clk_div_reg_get_div)
                  43c0cdec    00000064                                                      : clk_pll_16fft.obj (.text.clk_pll_16fft_get_state)
                  43c0ce50    00000064                                                      : psc.obj (.text.lpsc_module_clk_put)
                  43c0ceb4    00000064                                                      : resource.obj (.text.resource_get)
                  43c0cf18    00000064                                                      : rm_core.obj (.text.rm_core_resasg_get_utype_index)
                  43c0cf7c    00000062     sciclient_direct_sbl.am62x.r5f.ti-arm-clang.release.lib : sciclient.obj (.text.Sciclient_setDebugConfig)
                  43c0cfde    00000062     drivers.am62x.r5f.ti-arm-clang.release.lib : udma_ring_common.obj (.text.Udma_ringQueueRaw)
                  43c0d040    00000062                                                : utils.obj (.text.Utils_memcpyWord)
                  43c0d0a2    00000002     --HOLE-- [fill = 0]
                  43c0d0a4    00000060     sciclient_direct_sbl.am62x.r5f.ti-arm-clang.release.lib : sciclient_direct_wrapper.obj (.text.Sciclient_direct_init)
                  43c0d104    00000060                                                             : sciclient_pm.obj (.text.Sciclient_pmSetModuleState)
                  43c0d164    00000060     rm_pm_hal_sbl.am62x.r5f.ti-arm-clang.release.lib : clk.obj (.text.clk_notify_freq)
                  43c0d1c4    00000060                                                      : device_psc.obj (.text.soc_device_get_state)
                  43c0d224    0000005e     drivers.am62x.r5f.ti-arm-clang.release.lib : bootloader.obj (.text.Bootloader_runCpu)
                  43c0d282    0000005e     nortos.am62x.r5f.ti-arm-clang.release.lib : ClockP_nortos.obj (.text.ClockP_timerTickIsr)
                  43c0d2e0    0000005e     sciclient_direct_sbl.am62x.r5f.ti-arm-clang.release.lib : sciclient_procboot.obj (.text.Sciclient_procBootAuthAndStart)
                  43c0d33e    0000005c                                                             : sciclient_procboot.obj (.text.Sciclient_procBootReleaseProcessor)
                  43c0d39a    0000005c     nortos.am62x.r5f.ti-arm-clang.release.lib : DebugP_log.obj (.text._DebugP_assert)
                  43c0d3f6    00000002     --HOLE-- [fill = 0]
                  43c0d3f8    0000005c     rm_pm_hal_sbl.am62x.r5f.ti-arm-clang.release.lib : clk_div.obj (.text.clk_div_reg_go_get_div)
                  43c0d454    0000005c                                                      : clk_pllctrl.obj (.text.clk_pllctrl_mux_get_parent)
                  43c0d4b0    0000005c                                                      : device_clk.obj (.text.device_clk_get_hw_ready)
                  43c0d50c    0000005c                                                      : clock.obj (.text.get_freq_handler)
                  43c0d568    0000005c                                                      : rm_ra.obj (.text.ra_check_monitor_index_range)
                  43c0d5c4    0000005c                                                      : device_psc.obj (.text.soc_device_disable)
                  43c0d620    0000005a     drivers.am62x.r5f.ti-arm-clang.release.lib : udma_ring_common.obj (.text.Udma_ringDequeueRaw)
                  43c0d67a    00000058     sciclient_direct_sbl.am62x.r5f.ti-arm-clang.release.lib : sciclient_procboot.obj (.text.Sciclient_procBootGetProcessorState)
                  43c0d6d2    00000002     --HOLE-- [fill = 0]
                  43c0d6d4    00000058     rm_pm_hal_sbl.am62x.r5f.ti-arm-clang.release.lib : device_clk.obj (.text.device_clk_set_freq_change)
                  43c0d72c    00000058                                                      : device_clk.obj (.text.device_clk_set_ssc)
                  43c0d784    00000058                                                      : rm_irq.obj (.text.irq_validate_global_event)
                  43c0d7dc    00000058                                                      : itoa.obj (.text.lib_itoa)
                  43c0d834    00000058                                                      : mmr_lock.obj (.text.mmr_unlock_all)
                  43c0d88c    00000058                                                      : pll.obj (.text.pll_init)
                  43c0d8e4    00000058                                                      : rm_udmap.obj (.text.udmap_get_inst)
                  43c0d93c    00000058     libc.a : autoinit.c.obj (.text:__TI_auto_init_nobinit_nopinit)
                  43c0d994    00000056     ti_drivers_open_close.obj (.text.Drivers_uartOpen)
                  43c0d9ea    00000056     drivers.am62x.r5f.ti-arm-clang.release.lib : uart_dma.obj (.text.UART_dmaDisableChannel)
                  43c0da40    00000054     sciclient_direct_sbl.am62x.r5f.ti-arm-clang.release.lib : sciclient_pm.obj (.text.Sciclient_pmSetModuleRst)
                  43c0da94    00000054                                                             : sciclient_procboot.obj (.text.Sciclient_procBootRequestProcessor)
                  43c0dae8    00000054     drivers.am62x.r5f.ti-arm-clang.release.lib : uart_dma.obj (.text.UART_dmaClose)
                  43c0db3c    00000054     rm_pm_hal_sbl.am62x.r5f.ti-arm-clang.release.lib : clk_div.obj (.text.clk_div_init)
                  43c0db90    00000054                                                      : psc.obj (.text.lpsc_module_get_local_reset)
                  43c0dbe4    00000054                                                      : rm_irq.obj (.text.rm_irq_oes_src_register)
                  43c0dc38    00000054                                                      : device_psc.obj (.text.soc_device_enable)
                  43c0dc8c    00000052                                                      : rm_ra.obj (.text.ra_clear_rom_oes)
                  43c0dcde    00000050     drivers.am62x.r5f.ti-arm-clang.release.lib : bootloader.obj (.text.Bootloader_loadCpu)
                  43c0dd2e    00000050                                                : bootloader.obj (.text.Bootloader_rprcImageParseEntryPoint)
                  43c0dd7e    00000050     nortos.am62x.r5f.ti-arm-clang.release.lib : ClockP_nortos.obj (.text.ClockP_addToList)
                  43c0ddce    00000050                                               : ClockP_nortos.obj (.text.ClockP_construct)
                  43c0de1e    00000050     sciclient_direct_sbl.am62x.r5f.ti-arm-clang.release.lib : sciclient.obj (.text.Sciclient_abiCheck)
                  43c0de6e    00000002     --HOLE-- [fill = 0]
                  43c0de70    00000050                                                             : sciclient.obj (.text.Sciclient_getCurrentContext)
                  43c0dec0    00000050     rm_pm_hal_sbl.am62x.r5f.ti-arm-clang.release.lib : clk_pll_16fft.obj (.text.clk_pll_16fft_postdiv_get_div)
                  43c0df10    00000050                                                      : device_psc.obj (.text.soc_device_get_context_loss_count)
                  43c0df60    00000050                                                      : device_psc.obj (.text.soc_device_set_resets)
                  43c0dfb0    0000004e     main.obj (.text.App_runCpus)
                  43c0dffe    0000004e     drivers.am62x.r5f.ti-arm-clang.release.lib : bootloader.obj (.text.Bootloader_findSeq)
                  43c0e04c    0000004e                                                : lpddr4.obj (.text.LPDDR4_ReadReg)
                  43c0e09a    0000004e     rm_pm_hal_sbl.am62x.r5f.ti-arm-clang.release.lib : device_psc.obj (.text.soc_device_verify_mapping)
                  43c0e0e8    0000004c     sciclient_direct_sbl.am62x.r5f.ti-arm-clang.release.lib : sciclient.obj (.text.Sciclient_deinit)
                  43c0e134    0000004c                                                             : sciclient_boardcfg.obj (.text.Sciclient_getDefaultBoardCfgInfo)
                  43c0e180    0000004c                                                             : sciclient_procboot.obj (.text.Sciclient_procBootSetProcessorCfg)
                  43c0e1cc    0000004c     rm_pm_hal_sbl.am62x.r5f.ti-arm-clang.release.lib : clk_pll_16fft.obj (.text.clk_pll_16fft_cal_option4)
                  43c0e218    0000004c                                                      : psc.obj (.text.lpsc_module_get_reset_iso)
                  43c0e264    0000004c                                                      : rm_ra.obj (.text.ra_get_inst)
                  43c0e2b0    0000004c                                                      : device_psc.obj (.text.soc_device_get_resets)
                  43c0e2fc    0000004c                                                      : device_psc.obj (.text.soc_device_ret_disable)
                  43c0e348    0000004c                                                      : device_psc.obj (.text.soc_device_ret_enable)
                  43c0e394    0000004a     drivers.am62x.r5f.ti-arm-clang.release.lib : pinmux.obj (.text.Pinmux_unlockMMR)
                  43c0e3de    0000004a                                                : soc.obj (.text.SOC_controlModuleUnlockMMR)
                  43c0e428    00000048                                                : lpddr4.obj (.text.LPDDR4_WritePhyIndepConfig)
                  43c0e470    00000048     rm_pm_hal_sbl.am62x.r5f.ti-arm-clang.release.lib : clk_pll_16fft.obj (.text.clk_pll_16fft_bypass)
                  43c0e4b8    00000048                                                      : clk.obj (.text.clk_put)
                  43c0e500    00000048                                                      : device_clk.obj (.text.get_dev_clk_data)
                  43c0e548    00000046     nortos.am62x.r5f.ti-arm-clang.release.lib : ClockP_nortos.obj (.text.ClockP_getTimeUsec)
                  43c0e58e    00000046     drivers.am62x.r5f.ti-arm-clang.release.lib : lpddr4.obj (.text.LPDDR4_WritePhyConfig)
                  43c0e5d4    00000046                                                : pinmux.obj (.text.Pinmux_config)
                  43c0e61a    00000046                                                : bootloader_xmodem.obj (.text._inbyte)
                  43c0e660    00000046     rm_pm_hal_sbl.am62x.r5f.ti-arm-clang.release.lib : rm_irq.obj (.text.irq_cfg_is_ia_cfg)
                  43c0e6a6    00000046                                                      : rm_irq.obj (.text.irq_cfg_is_ir_cfg)
                  43c0e6ec    00000046                                                      : rm_irq.obj (.text.irq_cfg_is_oes_only)
                  43c0e732    00000002     --HOLE-- [fill = 0]
                  43c0e734    00000044     sciclient_direct_sbl.am62x.r5f.ti-arm-clang.release.lib : sciclient_direct_wrapper.obj (.text.Sciclient_waitForBootNotification)
                  43c0e778    00000044     rm_pm_hal_sbl.am62x.r5f.ti-arm-clang.release.lib : dmsc.obj (.text.am62x_sys_reset_handler)
                  43c0e7bc    00000044                                                      : clk.obj (.text.clk_get_state)
                  43c0e800    00000042     drivers.am62x.r5f.ti-arm-clang.release.lib : bootloader_mem.obj (.text.Mem_imgRead)
                  43c0e842    00000042     rm_pm_hal_sbl.am62x.r5f.ti-arm-clang.release.lib : device_clk.obj (.text.device_clk_disable)
                  43c0e884    00000042                                                      : device_clk.obj (.text.device_clk_enable)
                  43c0e8c6    00000040     nortos.am62x.r5f.ti-arm-clang.release.lib : ClockP_nortos.obj (.text.ClockP_stop)
                  43c0e906    00000040     ti_dpl_config.obj (.text.Dpl_init)
                  43c0e946    00000040     drivers.am62x.r5f.ti-arm-clang.release.lib : lpddr4.obj (.text.LPDDR4_WriteCtlConfig)
                  43c0e986    00000040     nortos.am62x.r5f.ti-arm-clang.release.lib : SemaphoreP_nortos.obj (.text.SemaphoreP_constructBinary)
                  43c0e9c6    00000002     --HOLE-- [fill = 0]
                  43c0e9c8    00000040     rm_pm_hal_sbl.am62x.r5f.ti-arm-clang.release.lib : clk_mux.obj (.text.clk_get_parent)
                  43c0ea08    00000040                                                      : psc.obj (.text.psc_lookup_lpsc)
                  43c0ea48    00000040                                                      : rm_ia.obj (.text.rm_ia_is_managed_resasg_utype)
                  43c0ea88    00000040                                                      : device_psc.obj (.text.soc_device_set_reset_iso)
                  43c0eac8    00000040                                                      : trace.obj (.text.trace_debug_internal)
                  43c0eb08    0000003e     nortos.am62x.r5f.ti-arm-clang.release.lib : SemaphoreP_nortos.obj (.text.SemaphoreP_constructMutex)
                  43c0eb46    0000003e     rm_pm_hal_sbl.am62x.r5f.ti-arm-clang.release.lib : device_clk.obj (.text.device_clk_get_num_parents)
                  43c0eb84    0000003e                                                      : device_psc.obj (.text.soc_device_ret_enable_internal)
                  43c0ebc2    0000003e                                                      : rm_udmap.obj (.text.udmap_validate_chan_type)
                  43c0ec00    0000003c     drivers.am62x.r5f.ti-arm-clang.release.lib : bootloader_soc.obj (.text.Bootloader_socTranslateSectionAddr)
                  43c0ec3c    0000003c     nortos.am62x.r5f.ti-arm-clang.release.lib : ClockP_nortos.obj (.text.ClockP_usleep)
                  43c0ec78    0000003c     rm_pm_hal_sbl.am62x.r5f.ti-arm-clang.release.lib : device_pm.obj (.text.device_disable)
                  43c0ecb4    0000003c                                                      : rm_ir.obj (.text.ir_get_inst)
                  43c0ecf0    0000003c                                                      : psc.obj (.text.lpsc_module_clk_get)
                  43c0ed2c    0000003c                                                      : mmr_lock.obj (.text.mmr_unlock)
                  43c0ed68    0000003c                                                      : device_psc.obj (.text.soc_device_get_reset_iso)
                  43c0eda4    0000003c                                                      : device_psc.obj (.text.soc_device_ret_disable_internal)
                  43c0ede0    0000003a     drivers.am62x.r5f.ti-arm-clang.release.lib : bootloader.obj (.text.Bootloader_open)
                  43c0ee1a    0000003a     nortos.am62x.r5f.ti-arm-clang.release.lib : ClockP_nortos.obj (.text.ClockP_destruct)
                  43c0ee54    0000003a                                               : DebugP_uartLogWriter.obj (.text.DebugP_uartLogWriterPutChar)
                  43c0ee8e    0000003a     drivers.am62x.r5f.ti-arm-clang.release.lib : uart_dma.obj (.text.UART_dmaOpen)
                  43c0eec8    0000003a     rm_pm_hal_sbl.am62x.r5f.ti-arm-clang.release.lib : boardcfg-user.obj (.text.boardcfg_pm_receive_and_validate)
                  43c0ef02    00000038     nortos.am62x.r5f.ti-arm-clang.release.lib : DebugP_nortos.obj (.text._DebugP_logZone)
                  43c0ef3a    00000002     --HOLE-- [fill = 0]
                  43c0ef3c    00000038     rm_pm_hal_sbl.am62x.r5f.ti-arm-clang.release.lib : clk.obj (.text.clk_drop_pwr_up_en)
                  43c0ef74    00000038                                                      : clk_pll_16fft.obj (.text.clk_pll_16fft_cal_option3)
                  43c0efac    00000038                                                      : clk.obj (.text.clk_value_set_freq)
                  43c0efe4    00000038                                                      : device_clk.obj (.text.device_clk_get_freq)
                  43c0f01c    00000038                                                      : rm_ir.obj (.text.rm_ir_init)
                  43c0f054    00000038                                                      : rm_irq.obj (.text.rm_irq_is_managed_resasg_utype)
                  43c0f08c    00000036     ti_power_clock_config.obj (.text.Module_clockSetFrequency)
                  43c0f0c2    00000036     drivers.am62x.r5f.ti-arm-clang.release.lib : bootloader_xmodem.obj (.text._outbyte)
                  43c0f0f8    00000034                                                : bootloader.obj (.text.Bootloader_BootImageInfo_init)
                  43c0f12c    00000034     nortos.am62x.r5f.ti-arm-clang.release.lib : ClockP_nortos.obj (.text.ClockP_start)
                  43c0f160    00000034     drivers.am62x.r5f.ti-arm-clang.release.lib : lpddr4_am6x.obj (.text.LPDDR4_EnablePIInitiator)
                  43c0f194    00000034                                                : lpddr4.obj (.text.LPDDR4_PollCtlIrq)
                  43c0f1c8    00000034     ti_drivers_config.obj (.text.System_init)
                  43c0f1fc    00000034     sciclient_direct_sbl.am62x.r5f.ti-arm-clang.release.lib : uart_print.obj (.text.UART_dataWrite)
                  43c0f230    00000034     rm_pm_hal_sbl.am62x.r5f.ti-arm-clang.release.lib : clk.obj (.text.clk_set_state)
                  43c0f264    00000034                                                      : device.obj (.text.devices_init_rw)
                  43c0f298    00000034                                                      : psc.obj (.text.psc_lookup)
                  43c0f2cc    00000034                                                      : psc.obj (.text.psc_lookup_pd)
                  43c0f300    00000034                                                      : rm.obj (.text.rm_init)
                  43c0f334    00000032     drivers.am62x.r5f.ti-arm-clang.release.lib : bootloader_xmodem.obj (.text.Bootloader_xmodemReceive)
                  43c0f366    00000032                                                : bootloader_xmodem.obj (.text.Bootloader_xmodemTransmit)
                  43c0f398    00000032     nortos.am62x.r5f.ti-arm-clang.release.lib : SemaphoreP_nortos.obj (.text.SemaphoreP_post)
                  43c0f3ca    00000032     drivers.am62x.r5f.ti-arm-clang.release.lib : uart_v0.obj (.text.UART_getHandle)
                  43c0f3fc    00000032     rm_pm_hal_sbl.am62x.r5f.ti-arm-clang.release.lib : device_pm.obj (.text.device_set_retention)
                  43c0f42e    00000002     --HOLE-- [fill = 0]
                  43c0f430    00000030                                                      : clk_fixed.obj (.text.clk_fixed_get_freq)
                  43c0f460    00000030                                                      : clk.obj (.text.clk_get_freq)
                  43c0f490    00000030                                                      : clk.obj (.text.clk_get_parent_freq)
                  43c0f4c0    00000030                                                      : trace-uart.obj (.text.trace_debug_uart)
                  43c0f4f0    0000002e     drivers.am62x.r5f.ti-arm-clang.release.lib : ddr.obj (.text.DDR_setFreq)
                  43c0f51e    0000002e     ti_power_clock_config.obj (.text.Module_clockDisable)
                  43c0f54c    0000002e     ti_power_clock_config.obj (.text.Module_clockEnable)
                  43c0f57a    0000002e     rm_pm_hal_sbl.am62x.r5f.ti-arm-clang.release.lib : clk_pll_16fft.obj (.text.clk_pll_16fft_set_state)
                  43c0f5a8    0000002c     drivers.am62x.r5f.ti-arm-clang.release.lib : bootloader_soc.obj (.text.Bootloader_socIsMCUResetIsoEnabled)
                  43c0f5d4    0000002c     sciclient_direct_sbl.am62x.r5f.ti-arm-clang.release.lib : sciclient_secureproxy.obj (.text.Sciclient_flush)
                  43c0f600    0000002c     rm_pm_hal_sbl.am62x.r5f.ti-arm-clang.release.lib : boardcfg-user.obj (.text.boardcfg_memcpy_rm)
                  43c0f62c    0000002c                                                      : clk_div.obj (.text.clk_get_div)
                  43c0f658    0000002c                                                      : clk.obj (.text.clk_lookup)
                  43c0f684    0000002c                                                      : clk_div.obj (.text.clk_lookup)
                  43c0f6b0    0000002c                                                      : clk_mux.obj (.text.clk_lookup)
                  43c0f6dc    0000002c                                                      : clk_pll_16fft.obj (.text.clk_lookup)
                  43c0f708    0000002c                                                      : device_clk.obj (.text.clk_lookup)
                  43c0f734    0000002c                                                      : psc.obj (.text.clk_lookup)
                  43c0f760    0000002c     drivers.am62x.r5f.ti-arm-clang.release.lib : crc16.obj (.text.crc16_ccitt)
                  43c0f78c    0000002c     rm_pm_hal_sbl.am62x.r5f.ti-arm-clang.release.lib : psc.obj (.text.device_lookup)
                  43c0f7b8    0000002c                                                      : rm_irq.obj (.text.irq_is_evt_src)
                  43c0f7e4    0000002c                                                      : psc.obj (.text.lpsc_module_get_state)
                  43c0f810    0000002c                                                      : fw_caps.obj (.text.query_fw_caps_handler)
                  43c0f83c    0000002a     drivers.am62x.r5f.ti-arm-clang.release.lib : soc.obj (.text.SOC_controlModuleLockMMR)
                  43c0f866    0000002a     rm_pm_hal_sbl.am62x.r5f.ti-arm-clang.release.lib : rm_ir.obj (.text.ir_clear_outp)
                  43c0f890    0000002a                                                      : device_psc.obj (.text.soc_device_get_state_internal)
                  43c0f8ba    00000028     drivers.am62x.r5f.ti-arm-clang.release.lib : bootloader_soc.obj (.text.Bootloader_socRprcToCslCoreId)
                  43c0f8e2    00000028     nortos.am62x.r5f.ti-arm-clang.release.lib : ClockP_nortos.obj (.text.ClockP_sleepTicks)
                  43c0f90a    00000028     drivers.am62x.r5f.ti-arm-clang.release.lib : uart_v0.obj (.text.UART_statusIsDataReady)
                  43c0f932    00000028                                                : udma_ch.obj (.text.Udma_chGetCqRingHandle)
                  43c0f95a    00000028                                                : udma_ch.obj (.text.Udma_chGetFqRingHandle)
                  43c0f982    00000002     --HOLE-- [fill = 0]
                  43c0f984    00000028     libclang_rt.builtins.a : ashldi3.S.obj (.text.__ashldi3)
                  43c0f9ac    00000028                            : lshrdi3.S.obj (.text.__lshrdi3)
                  43c0f9d4    00000028     rm_pm_hal_sbl.am62x.r5f.ti-arm-clang.release.lib : clk.obj (.text.clk_value_get_freq)
                  43c0f9fc    00000028                                                      : psc.obj (.text.lpsc_module_idx)
                  43c0fa24    00000028                                                      : psc.obj (.text.pd_initiate)
                  43c0fa4c    00000028                                                      : rm_ia.obj (.text.rm_ia_validate_vint)
                  43c0fa74    00000028                                                      : rm_ir.obj (.text.rm_ir_is_managed_resasg_utype)
                  43c0fa9c    00000028                                                      : rm_ir.obj (.text.rm_ir_validate_output)
                  43c0fac4    00000028                                                      : device_psc.obj (.text.soc_device_disable_internal)
                  43c0faec    00000028                                                      : device_psc.obj (.text.soc_device_enable_internal)
                  43c0fb14    00000026     drivers.am62x.r5f.ti-arm-clang.release.lib : bootloader_soc.obj (.text.Bootloader_socCpuPowerOnReset)
                  43c0fb3a    00000026     nortos.am62x.r5f.ti-arm-clang.release.lib : ClockP_nortos.obj (.text.ClockP_sleep)
                  43c0fb60    00000026     rm_pm_hal_sbl.am62x.r5f.ti-arm-clang.release.lib : rm_udmap.obj (.text.udmap_validate_ch_fetch_size)
                  43c0fb86    00000026                                                      : rm_udmap.obj (.text.udmap_validate_ch_pause_on_err)
                  43c0fbac    00000026                                                      : rm_udmap.obj (.text.udmap_validate_orderid)
                  43c0fbd2    00000026                                                      : rm_udmap.obj (.text.udmap_validate_priority)
                  43c0fbf8    00000026                                                      : rm_udmap.obj (.text.udmap_validate_qos)
                  43c0fc1e    00000024     drivers.am62x.r5f.ti-arm-clang.release.lib : gtc_soc.obj (.text.GTC_setFID)
                  43c0fc42    00000002     --HOLE-- [fill = 0]
                  43c0fc44    00000024     sciclient_direct_sbl.am62x.r5f.ti-arm-clang.release.lib : sciclient_secureproxy.obj (.text.Sciclient_waitThread)
                  43c0fc68    00000024     libclang_rt.builtins.a : aeabi_uldivmod.S.obj (.text.__aeabi_uldivmod)
                  43c0fc8c    00000024     rm_pm_hal_sbl.am62x.r5f.ti-arm-clang.release.lib : boardcfg-user.obj (.text.boardcfg_get_rm_devgrp)
                  43c0fcb0    00000024                                                      : clk_soc_hfosc0.obj (.text.clk_soc_hfosc0_get_freq)
                  43c0fcd4    00000024                                                      : map.obj (.text.closest)
                  43c0fcf8    00000024                                                      : device_prepare.obj (.text.device_prepare_exclusive)
                  43c0fd1c    00000024                                                      : device_pm.obj (.text.device_suspend)
                  43c0fd40    00000024                                                      : dmsc.obj (.text.dmsc_init)
                  43c0fd64    00000024                                                      : psc.obj (.text.psc_pd_idx)
                  43c0fd88    00000024                                                      : rm_ia.obj (.text.rm_ia_vint_get_info)
                  43c0fdac    00000024                                                      : rm_irq.obj (.text.rm_irq_init)
                  43c0fdd0    00000024                                                      : rm_udmap.obj (.text.udmap_validate_atype)
                  43c0fdf4    00000024                                                      : rm_udmap.obj (.text.udmap_validate_sched_priority)
                  43c0fe18    00000024     nortos.am62x.r5f.ti-arm-clang.release.lib : printf.obj (.text.vprintf_)
                  43c0fe3c    00000022                                               : ClockP_nortos.obj (.text.ClockP_deinit)
                  43c0fe5e    00000022     drivers.am62x.r5f.ti-arm-clang.release.lib : ddr_soc.obj (.text.DDR_ResetDDR_PLL)
                  43c0fe80    00000022     ti_pinmux_config.obj (.text.Pinmux_init)
                  43c0fea2    00000022     rm_pm_hal_sbl.am62x.r5f.ti-arm-clang.release.lib : clk.obj (.text.clk_ssc_allow)
                  43c0fec4    00000022                                                      : device_clk.obj (.text.device_clk_set_input_term)
                  43c0fee6    00000022                                                      : rm_ir.obj (.text.ir_get_inp)
                  43c0ff08    00000022                                                      : osal_glue.obj (.text.osal_delay)
                  43c0ff2a    00000022                                                      : clk_div.obj (.text.pm_writel_verified)
                  43c0ff4c    00000022                                                      : clk_pll_16fft.obj (.text.pm_writel_verified)
                  43c0ff6e    00000020     drivers.am62x.r5f.ti-arm-clang.release.lib : bootloader_soc.obj (.text.Bootloader_socGetCoreName)
                  43c0ff8e    00000020     nortos.am62x.r5f.ti-arm-clang.release.lib : DebugP_log.obj (.text.DebugP_logZoneEnable)
                  43c0ffae    00000020     sciclient_direct_sbl.am62x.r5f.ti-arm-clang.release.lib : sciclient_direct.obj (.text.Sciclient_query_fw_caps_handler)
                  43c0ffce    00000020     ti_drivers_config.obj (.text.System_deinit)
                  43c0ffee    00000020     nortos.am62x.r5f.ti-arm-clang.release.lib : TimerP.obj (.text.TimerP_Params_init)
                  43c1000e    00000002     --HOLE-- [fill = 0]
                  43c10010    00000020     rm_pm_hal_sbl.am62x.r5f.ti-arm-clang.release.lib : clk_div.obj (.text.clk_div_fixed_get_div)
                  43c10030    00000020                                                      : clk.obj (.text.clk_ssc_block)
                  43c10050    00000020                                                      : rm_ia.obj (.text.ia_get_inst)
                  43c10070    00000020                                                      : clk_pll_16fft.obj (.text.pll_16fft_pllm_valid)
                  43c10090    00000020                                                      : device_psc.obj (.text.soc_device_get_context_loss_count_internal)
                  43c100b0    0000001e     ti_drivers_open_close.obj (.text.Drivers_close)
                  43c100ce    0000001e     rm_pm_hal_sbl.am62x.r5f.ti-arm-clang.release.lib : resource.obj (.text.device_resource_mem)
                  43c100ec    0000001e                                                      : psc.obj (.text.psc_pd_clk_put)
                  43c1010a    0000001e                                                      : core.obj (.text.sys_reset_handler)
                  43c10128    0000001e                                                      : map.obj (.text.u32map_get)
                  43c10146    0000001c     drivers.am62x.r5f.ti-arm-clang.release.lib : bootloader.obj (.text.Bootloader_JumpSelfCpu)
                  43c10162    0000001c                                                : bootloader_soc.obj (.text.Bootloader_socCpuGetClkDefault)
                  43c1017e    0000001c                                                : bootloader_soc.obj (.text.Bootloader_socIsAuthRequired)
                  43c1019a    0000001c                                                : bootloader_mem.obj (.text.Mem_imgOpen)
                  43c101b6    00000002     --HOLE-- [fill = 0]
                  43c101b8    0000001c     sciclient_direct_sbl.am62x.r5f.ti-arm-clang.release.lib : sciclient_secureproxy.obj (.text.Sciclient_readThread32)
                  43c101d4    0000001c     nortos.am62x.r5f.ti-arm-clang.release.lib : boot_armv7r.obj (.text._system_pre_init)
                  43c101f0    0000001c     rm_pm_hal_sbl.am62x.r5f.ti-arm-clang.release.lib : rm_irq.obj (.text.irq_oes_src_lookup)
                  43c1020c    0000001c                                                      : notifier.obj (.text.notifier_call)
                  43c10228    0000001c                                                      : psc.obj (.text.psc_read)
                  43c10244    0000001c                                                      : sleep.obj (.text.sleep_modes_register)
                  43c10260    0000001c     libc.a : memcpy32.S.obj (.text:TI_memcpy_small)
                  43c1027c    0000001a     drivers.am62x.r5f.ti-arm-clang.release.lib : uart_v0.obj (.text.UART_deinit)
                  43c10296    0000001a                                                : uart_dma.obj (.text.UART_readInterruptDma)
                  43c102b0    0000001a                                                : uart_dma.obj (.text.UART_writeInterruptDma)
                  43c102ca    0000001a     rm_pm_hal_sbl.am62x.r5f.ti-arm-clang.release.lib : psc.obj (.text.psc_write)
                  43c102e4    00000018     drivers.am62x.r5f.ti-arm-clang.release.lib : bootloader_soc.obj (.text.Bootloader_socAuthImage)
                  43c102fc    00000018                                                : lpddr4.obj (.text.LPDDR4_Init)
                  43c10314    00000018     rm_pm_hal_sbl.am62x.r5f.ti-arm-clang.release.lib : boardcfg-user.obj (.text.boardcfg_get_rm_resasg_size)
                  43c1032c    00000018                                                      : clk_pll_16fft.obj (.text.clk_pll_16fft_postdiv_valid_div)
                  43c10344    00000018                                                      : clk_soc_lfosc0.obj (.text.clk_soc_lfosc0_get_freq)
                  43c1035c    00000018                                                      : device_clk.obj (.text.dev_get_clk)
                  43c10374    00000018                                                      : clk_pll_16fft.obj (.text.pll_16fft_clkod_valid)
                  43c1038c    00000018     libc.a : memset32.S.obj (.text:TI_memset_small)
                  43c103a4    00000016     rm_pm_hal_sbl.am62x.r5f.ti-arm-clang.release.lib : clk_div.obj (.text.clk_div_get_freq)
                  43c103ba    00000016                                                      : clk_pll_16fft.obj (.text.clk_pll_16fft_check_lock)
                  43c103d0    00000016                                                      : device_clk.obj (.text.device_clk_set_freq)
                  43c103e6    00000002     --HOLE-- [fill = 0]
                  43c103e8    00000014     sciclient_direct_sbl.am62x.r5f.ti-arm-clang.release.lib : sciclient_secureproxy.obj (.text.Sciclient_readThreadCount)
                  43c103fc    00000014                                                             : sciclient_secureproxy.obj (.text.Sciclient_verifyThread)
                  43c10410    00000014     rm_pm_hal_sbl.am62x.r5f.ti-arm-clang.release.lib : boardcfg-user.obj (.text.boardcfg_get_rm_resasg)
                  43c10424    00000014                                                      : clk_pll_16fft.obj (.text.clk_pll_16fft_is_bypass)
                  43c10438    00000014                                                      : device_clk.obj (.text.device_clk_get_freq_change)
                  43c1044c    00000014                                                      : device_clk.obj (.text.device_clk_get_input_term)
                  43c10460    00000014                                                      : device_clk.obj (.text.device_clk_get_ssc)
                  43c10474    00000014                                                      : device_clk.obj (.text.device_clk_get_sw_gated)
                  43c10488    00000014                                                      : rm_core.obj (.text.rm_core_unmap_region)
                  43c1049c    00000014                                                      : sys-reset.obj (.text.system_reset)
                  43c104b0    00000012     drivers.am62x.r5f.ti-arm-clang.release.lib : csl_emif.obj (.text.CSL_emifClearECCInterruptStatus)
                  43c104c2    00000012                                                : csl_emif.obj (.text.CSL_emifEnableECCInterrupts)
                  43c104d4    00000012                                                : gtc.obj (.text.GTC_init)
                  43c104e6    00000012     nortos.am62x.r5f.ti-arm-clang.release.lib : TimerP.obj (.text.TimerP_clearOverflowInt)
                  43c104f8    00000010     drivers.am62x.r5f.ti-arm-clang.release.lib : bootloader.obj (.text.Bootloader_close)
                  43c10508    00000010                                                : bootloader.obj (.text.Bootloader_isCorePresent)
                  43c10518    00000010     nortos.am62x.r5f.ti-arm-clang.release.lib : ClockP_nortos.obj (.text.ClockP_ticksToUsec)
                  43c10528    00000010     drivers.am62x.r5f.ti-arm-clang.release.lib : lpddr4.obj (.text.LPDDR4_Probe)
                  43c10538    00000010     sciclient_direct_sbl.am62x.r5f.ti-arm-clang.release.lib : sciclient_secureproxy.obj (.text.Sciclient_threadStatusReg)
                  43c10548    00000010                                                             : sciclient.obj (.text.Sciclient_utilByteCopy)
                  43c10558    00000010     libclang_rt.builtins.a : aeabi_memset.S.obj (.text.__aeabi_memset)
                  43c10568    00000010     rm_pm_hal_sbl.am62x.r5f.ti-arm-clang.release.lib : device_clk.obj (.text.device_clk_query_freq)
                  43c10578    00000010                                                      : device_pm.obj (.text.device_notify)
                  43c10588    00000010                                                      : device.obj (.text.pm_devgroup_is_enabled)
                  43c10598    00000010                                                      : device.obj (.text.pm_devgroup_set_enabled)
                  43c105a8    00000010                                                      : rm_core.obj (.text.rm_core_map_region)
                  43c105b8    0000000e     drivers.am62x.r5f.ti-arm-clang.release.lib : bootloader_soc.obj (.text.Bootloader_socCpuSetEntryPoint)
                  43c105c6    0000000e     ti_dpl_config.obj (.text.Dpl_deinit)
                  43c105d4    0000000e     drivers.am62x.r5f.ti-arm-clang.release.lib : gtc_soc.obj (.text.GTC_enable)
                  43c105e2    0000000e     ti_power_clock_config.obj (.text.PowerClock_init)
                  43c105f0    0000000c     drivers.am62x.r5f.ti-arm-clang.release.lib : bootloader.obj (.text.Bootloader_Params_init)
                  43c105fc    0000000c                                                : bootloader_soc.obj (.text.Bootloader_socSelfCPUjump)
                  43c10608    0000000c     nortos.am62x.r5f.ti-arm-clang.release.lib : ClockP_nortos.obj (.text.ClockP_getTicks)
                  43c10614    0000000c                                               : DebugP_uartLogWriter.obj (.text.DebugP_uartSetDrvIndex)
                  43c10620    0000000c     libclang_rt.builtins.a : aeabi_memset.S.obj (.text.__aeabi_memclr)
                  43c1062c    0000000c     rm_pm_hal_sbl.am62x.r5f.ti-arm-clang.release.lib : device_prepare.obj (.text.device_prepare_nonexclusive)
                  43c10638    0000000c                                                      : sys-reset.obj (.text.sys_reset_handler_register)
                  43c10644    0000000c                                                      : trace.obj (.text.trace_reconfigure)
                  43c10650    0000000a     drivers.am62x.r5f.ti-arm-clang.release.lib : bootloader_soc.obj (.text.Bootloader_socGetSBLMem)
                  43c1065a    0000000a                                                : bootloader_soc.obj (.text.Bootloader_socIsSmpEnable)
                  43c10664    0000000a                                                : csl_sec_proxy.obj (.text.CSL_secProxyGetDataAddr)
                  43c1066e    0000000a     nortos.am62x.r5f.ti-arm-clang.release.lib : ClockP_nortos.obj (.text.ClockP_Params_init)
                  43c10678    0000000a                                               : ClockP_nortos.obj (.text.ClockP_isActive)
                  43c10682    0000000a                                               : TimerP.obj (.text.TimerP_start)
                  43c1068c    0000000a                                               : TimerP.obj (.text.TimerP_stop)
                  43c10696    0000000a     rm_pm_hal_sbl.am62x.r5f.ti-arm-clang.release.lib : clk.obj (.text.clk_notify_children_freq)
                  43c106a0    0000000a                                                      : clk_div.obj (.text.readl)
                  43c106aa    0000000a                                                      : clk_mux.obj (.text.readl)
                  43c106b4    0000000a                                                      : clk_pll_16fft.obj (.text.readl)
                  43c106be    0000000a                                                      : clk_pllctrl.obj (.text.readl)
                  43c106c8    0000000a                                                      : dmsc.obj (.text.readl)
                  43c106d2    0000000a                                                      : mmr_lock.obj (.text.readl)
                  43c106dc    00000008     drivers.am62x.r5f.ti-arm-clang.release.lib : soc.obj (.text.SOC_moduleGetClockFrequency)
                  43c106e4    00000008     nortos.am62x.r5f.ti-arm-clang.release.lib : printf.obj (.text._out_char)
                  43c106ec    00000008     rm_pm_hal_sbl.am62x.r5f.ti-arm-clang.release.lib : clk.obj (.text.clk_freq_change_allow)
                  43c106f4    00000008                                                      : clk.obj (.text.clk_freq_change_block)
                  43c106fc    00000008                                                      : psc.obj (.text.lpsc_module_get)
                  43c10704    00000008                                                      : psc.obj (.text.lpsc_module_get_module_reset)
                  43c1070c    00000008                                                      : psc.obj (.text.lpsc_module_put)
                  43c10714    00000008                                                      : psc.obj (.text.lpsc_module_ret_get)
                  43c1071c    00000008                                                      : psc.obj (.text.lpsc_module_ret_put)
                  43c10724    00000008                                                      : rm_core.obj (.text.rm_core_param_is_valid)
                  43c1072c    00000008     libc.a : exit.c.obj (.text:abort)
                  43c10734    00000006     rm_pm_hal_sbl.am62x.r5f.ti-arm-clang.release.lib : clk_pll_16fft.obj (.text.pll_16fft_bin)
                  43c1073a    00000004     drivers.am62x.r5f.ti-arm-clang.release.lib : bootloader_soc.obj (.text.Bootloader_socWaitForFWBoot)
                  43c1073e    00000004                                                : lpddr4.obj (.text.CPS_UncachedRead32)
                  43c10742    00000004                                                : lpddr4.obj (.text.CPS_UncachedWrite32)
                  43c10746    00000004     nortos.am62x.r5f.ti-arm-clang.release.lib : ClockP_nortos_r5.obj (.text.ClockP_getTimerCount)
                  43c1074a    00000004                                               : ClockP_nortos_r5.obj (.text.ClockP_timerClearOverflowInt)
                  43c1074e    00000004     ti_drivers_open_close.obj (.text.Drivers_open)
                  43c10752    00000004     drivers.am62x.r5f.ti-arm-clang.release.lib : bootloader_mem.obj (.text.Mem_imgGetCurOffset)
                  43c10756    00000004                                                : bootloader_mem.obj (.text.Mem_imgSeek)
                  43c1075a    00000004     ti_power_clock_config.obj (.text.PowerClock_deinit)
                  43c1075e    00000004     nortos.am62x.r5f.ti-arm-clang.release.lib : TimerP.obj (.text.TimerP_getCount)
                  43c10762    00000004                                               : TimerP.obj (.text.TimerP_getReloadCount)
                  43c10766    00000004     drivers.am62x.r5f.ti-arm-clang.release.lib : udma_utils.obj (.text.Udma_defaultVirtToPhyFxn)
                  43c1076a    00000002     --HOLE-- [fill = 0]
                  43c1076c    00000004     libclang_rt.builtins.a : aeabi_memcpy.S.obj (.text.__aeabi_memcpy)
                  43c10770    00000004                            : aeabi_div0.c.obj (.text.__aeabi_ldiv0)
                  43c10774    00000004     rm_pm_hal_sbl.am62x.r5f.ti-arm-clang.release.lib : clk_fixed.obj (.text.clk_fixed_get_state)
                  43c10778    00000004                                                      : clk_dev.obj (.text.clk_from_device_notify_freq)
                  43c1077c    00000004                                                      : clk_dev.obj (.text.clk_from_device_set_state)
                  43c10780    00000004                                                      : clk_soc_hfosc0.obj (.text.clk_soc_hfosc0_get_state)
                  43c10784    00000004                                                      : clk_soc_lfosc0.obj (.text.clk_soc_lfosc0_get_state)
                  43c10788    00000004                                                      : device_clk.obj (.text.device_clk_get_hw_ssc)
                  43c1078c    00000004                                                      : clk_pll_16fft.obj (.text.pll_16fft_vco_fitness)
                  43c10790    00000004     ti_dpl_config.obj (.text.putchar_)
                  43c10794    00000004     rm_pm_hal_sbl.am62x.r5f.ti-arm-clang.release.lib : rm_udmap.obj (.text.rm_udmap_flow_size_thresh_cfg)
                  43c10798    00000004                                                      : device_psc.obj (.text.soc_device_init_complete)
                  43c1079c    00000004                                                      : trace.obj (.text.trace_debug)
                  43c107a0    00000008     nortos.am62x.r5f.ti-arm-clang.release.lib : HwiP_armv7r_asm.obj (.tramp.HwiP_disable.1)
                  43c107a8    00000008                                               : HwiP_armv7r_asm.obj (.tramp.HwiP_enable.1)
                  43c107b0    00000008                                               : HwiP_armv7r_asm.obj (.tramp.HwiP_restore.1)
                  43c107b8    00000008     libclang_rt.builtins.a : aeabi_memcpy.S.obj (.tramp.__aeabi_memcpy.1)

.const     0    43c107c0    00001730     
                  43c107c0    00001330     rm_pm_hal_sbl.am62x.r5f.ti-arm-clang.release.lib : devices.obj (.const.devgroup.MAIN)
                  43c11af0    000003f6                                                      : devices.obj (.const.devgroup.MCU_WAKEUP)
                  43c11ee6    0000000a                                                      : devices.obj (.const.devgroup.TIFS_INTERNAL)

.text.hwi 
*          0    43c11ef0    00000718     
                  43c11ef0    00000408     nortos.am62x.r5f.ti-arm-clang.release.lib : HwiP_armv7r_vim.obj (.text.hwi)
                  43c122f8    00000220                                               : HwiP_armv7r_handlers_nortos.obj (.text.hwi)
                  43c12518    00000078                                               : HwiP_armv7r_handlers_nortos_asm.obj (.text.hwi)
                  43c12590    00000070                                               : HwiP_armv7r_asm.obj (.text.hwi)
                  43c12600    00000008                                               : HwiP_armv7r_asm.obj (.tramp.HwiP_enableFIQ.1)

.text.cache 
*          0    43c12608    00000430     
                  43c12608    00000340     nortos.am62x.r5f.ti-arm-clang.release.lib : CacheP_armv7r_asm.obj (.text.cache)
                  43c12948    000000d8                                               : CacheP_armv7r.obj (.text.cache)
                  43c12a20    00000008                                               : CacheP_armv7r_asm.obj (.tramp.CacheP_invL1d.1)
                  43c12a28    00000008                                               : CacheP_armv7r_asm.obj (.tramp.CacheP_enableL1p.1)
                  43c12a30    00000008                                               : HwiP_armv7r_asm.obj (.tramp.HwiP_restore.2)

.text.mpu 
*          0    43c12a38    00000248     
                  43c12a38    000001b8     nortos.am62x.r5f.ti-arm-clang.release.lib : MpuP_armv7r.obj (.text.mpu)
                  43c12bf0    00000078                                               : MpuP_armv7r_asm.obj (.text.mpu)
                  43c12c68    00000008                                               : MpuP_armv7r_asm.obj (.tramp.MpuP_setRegionAsm.1)
                  43c12c70    00000008                                               : HwiP_armv7r_asm.obj (.tramp.HwiP_restore.3)
                  43c12c78    00000008                                               : MpuP_armv7r_asm.obj (.tramp.MpuP_isEnableAsm.1)

.text.boot 
*          0    43c12c80    00000128     
                  43c12c80    000000fc     nortos.am62x.r5f.ti-arm-clang.release.lib : boot_armv7r_asm.obj (.text.boot)
                  43c12d7c    0000001e                                               : DebugP_log.obj (.text.boot)
                  43c12d9a    0000000e     ti_dpl_config.obj (.text.boot)

.data      0    43c12da8    00003380     
                  43c12da8    00000afc     rm_pm_hal_sbl.am62x.r5f.ti-arm-clang.release.lib : boardcfg-user.obj (.data.local_rm_config)
                  43c138a4    000007ec     ti_drivers_config.obj (.data.DDRSS_phyReg)
                  43c14090    0000069c     ti_drivers_config.obj (.data.DDRSS_ctlReg)
                  43c1472c    00000564     ti_drivers_config.obj (.data.DDRSS_phyIndepReg)
                  43c14c90    000003f6     ti_drivers_config.obj (.data.DDRSS_phyRegNum)
                  43c15086    0000034e     ti_drivers_config.obj (.data.DDRSS_ctlRegNum)
                  43c153d4    000002b2     ti_drivers_config.obj (.data.DDRSS_phyIndepRegNum)
                  43c15686    00000001     rm_pm_hal_sbl.am62x.r5f.ti-arm-clang.release.lib : rm_core.obj (.data.region_mapped)
                  43c15687    00000001     --HOLE-- [fill = 0]
                  43c15688    000001ec                                                      : rm_core.obj (.data.resasg_indexer)
                  43c15874    00000138                                                      : ra_cfg.obj (.data.ra_inst)
                  43c159ac    000000f0                                                      : udmap_cfg.obj (.data.udmap_inst)
                  43c15a9c    000000c4     drivers.am62x.r5f.ti-arm-clang.release.lib : bootloader_soc.obj (.data.gAddrTranslateInfo)
                  43c15b60    000000a8                                                : bootloader_soc.obj (.data.gCoreBootInfo)
                  43c15c08    0000009c                                                : uart_v0.obj (.data.gUartDrvObj)
                  43c15ca4    00000090     ti_dpl_config.obj (.data.gMpuRegionConfig)
                  43c15d34    00000070     rm_pm_hal_sbl.am62x.r5f.ti-arm-clang.release.lib : ir_cfg.obj (.data.ir_inst)
                  43c15da4    00000060     sciclient_direct_sbl.am62x.r5f.ti-arm-clang.release.lib : sciclient.obj (.data..L_MergedGlobals)
                  43c15e04    0000005c     rm_pm_hal_sbl.am62x.r5f.ti-arm-clang.release.lib : ia_cfg.obj (.data.ia_inst)
                  43c15e60    00000054     ti_drivers_open_close.obj (.data.gUartParams)
                  43c15eb4    00000048     sciclient_direct_sbl.am62x.r5f.ti-arm-clang.release.lib : sciclient.obj (.data..L_MergedGlobals.1)
                  43c15efc    00000004     ti_drivers_config.obj (.data.gBootloaderConfigNum)
                  43c15f00    00000038     ti_drivers_config.obj (.data.gDdrParams)
                  43c15f38    00000020     ti_drivers_config.obj (.data.gBootloaderConfig)
                  43c15f58    00000020     ti_drivers_config.obj (.data.gBootloaderUdmaArgs)
                  43c15f78    00000020     ti_drivers_config.obj (.data.gMemBootloaderConfig)
                  43c15f98    00000020     sciclient_direct_sbl.am62x.r5f.ti-arm-clang.release.lib : sciclient_direct_wrapper.obj (.data.gSciclientRomSecProxyCfg)
                  43c15fb8    00000020                                                             : sciclient_secureProxyCfg.obj (.data.gSciclient_secProxyCfg)
                  43c15fd8    00000018     drivers.am62x.r5f.ti-arm-clang.release.lib : bootloader_mem.obj (.data.gBootloaderMemFxns)
                  43c15ff0    00000018     ti_dpl_config.obj (.data.gClockConfig)
                  43c16008    00000018     ti_pinmux_config.obj (.data.gPinMuxMainDomainCfg)
                  43c16020    00000018     ti_power_clock_config.obj (.data.gSocModulesClockFrequency)
                  43c16038    00000018     rm_pm_hal_sbl.am62x.r5f.ti-arm-clang.release.lib : udmap_cfg.obj (.data.rom_usage_DMASS0_PKTDMA_0)
                  43c16050    00000014     drivers.am62x.r5f.ti-arm-clang.release.lib : bootloader_soc.obj (.data.gResMemSection)
                  43c16064    00000010     rm_pm_hal_sbl.am62x.r5f.ti-arm-clang.release.lib : trace.obj (.data..L_MergedGlobals)
                  43c16074    00000010     ti_drivers_config.obj (.data.gBootloader0Args)
                  43c16084    00000010     ti_drivers_config.obj (.data.gMemBootloaderArgs)
                  43c16094    00000010     ti_power_clock_config.obj (.data.gSocModules)
                  43c160a4    00000004     nortos.am62x.r5f.ti-arm-clang.release.lib : DebugP_log.obj (.data.gDebugLogZone)
                  43c160a8    0000000c                                               : AddrTranslateP.obj (.data.gAddrTranslateConfig)
                  43c160b4    0000000c     ti_dpl_config.obj (.data.gMpuConfig)
                  43c160c0    0000000c     ti_drivers_config.obj (.data.gUartConfig)
                  43c160cc    00000008     rm_pm_hal_sbl.am62x.r5f.ti-arm-clang.release.lib : device.obj (.data..L_MergedGlobals)
                  43c160d4    00000008                                                      : device_pm.obj (.data.device_notifiers)
                  43c160dc    00000008     ti_dpl_config.obj (.data.gCacheConfig)
                  43c160e4    00000008     ti_pinmux_config.obj (.data.gPinMuxMcuDomainCfg)
                  43c160ec    00000008     ti_drivers_config.obj (.data.gUartAttrs)
                  43c160f4    00000007     main.obj (.data.socCpuCores)
                  43c160fb    00000001     --HOLE-- [fill = 0]
                  43c160fc    00000004     nortos.am62x.r5f.ti-arm-clang.release.lib : DebugP_uartLogWriter.obj (.data.gDebugP_uartDrvIndex)
                  43c16100    00000004     main.obj (.data.gEndOfFilesTransferWord)
                  43c16104    00000004     ti_dpl_config.obj (.data.gHwiConfig)
                  43c16108    00000004     ti_drivers_config.obj (.data.gUartConfigNum)
                  43c1610c    00000004     ti_drivers_config.obj (.data.gUartDmaConfigNum)
                  43c16110    00000004     ti_drivers_config.obj (.data.operatingMode)
                  43c16114    00000004     sciclient_direct_sbl.am62x.r5f.ti-arm-clang.release.lib : sciclient_secureProxyCfg.obj (.data.pSciclient_secProxyCfg)
                  43c16118    00000004     rm_pm_hal_sbl.am62x.r5f.ti-arm-clang.release.lib : ia_cfg.obj (.data.rom_usage_DMASS0_INTAGGR_0)
                  43c1611c    00000004                                                      : ia_cfg.obj (.data.rom_usage_unmapped_events_DMASS0_INTAGGR_0)
                  43c16120    00000004     drivers.am62x.r5f.ti-arm-clang.release.lib : bootloader_soc.obj (.data.selfcoreEntry)
                  43c16124    00000004     --HOLE-- [fill = 0]

.rodata    0    43c16128    00003b48     
                  43c16128    00001010     rm_pm_hal_sbl.am62x.r5f.ti-arm-clang.release.lib : clocks.obj (.rodata.soc_clock_data)
                  43c17138    00000390                                                      : devices.obj (.rodata.soc_device_data_arr)
                  43c174c8    00000200     drivers.am62x.r5f.ti-arm-clang.release.lib : crc16.obj (.rodata.crc16tab)
                  43c176c8    00000180     rm_pm_hal_sbl.am62x.r5f.ti-arm-clang.release.lib : clocks.obj (.rodata.soc_pll_table)
                  43c17848    00000132     drivers.am62x.r5f.ti-arm-clang.release.lib : lpddr4_am6x.obj (.rodata.CtlIntMap)
                  43c1797a    000000fe     rm_pm_hal_sbl.am62x.r5f.ti-arm-clang.release.lib : host_idx_mapping.obj (.rodata.soc_host_indexes)
                  43c17a78    000000dc     drivers.am62x.r5f.ti-arm-clang.release.lib : sciclient_fmwSecureProxyMap.obj (.rodata.gSciclientMap)
                  43c17b54    00000090     rm_pm_hal_sbl.am62x.r5f.ti-arm-clang.release.lib : rm_udmap.obj (.rodata.local_rm_udmap_ch_valid_masks)
                  43c17be4    0000006c                                                      : udmap_cfg.obj (.rodata.rx_ch_types_DMASS0_PKTDMA_0)
                  43c17c50    0000006c                                                      : clocks.obj (.rodata.soc_clock_freq_defaults)
                  43c17cbc    00000061     drivers.am62x.r5f.ti-arm-clang.release.lib : bootloader.obj (.rodata.str1.10425021178579678061)
                  43c17d1d    00000001     rm_pm_hal_sbl.am62x.r5f.ti-arm-clang.release.lib : host_idx_mapping.obj (.rodata.soc_host_indexes_sz)
                  43c17d1e    00000060                                                      : ia_cfg.obj (.rodata.unmapped_events_DMASS0_INTAGGR_0)
                  43c17d7e    00000002     sciclient_direct_sbl.am62x.r5f.ti-arm-clang.release.lib : uart_print.obj (.rodata.str1.10699983034688139841)
                  43c17d80    00000050     nortos.am62x.r5f.ti-arm-clang.release.lib : printf.obj (.rodata._ftoa.pow10)
                  43c17dd0    00000050     rm_pm_hal_sbl.am62x.r5f.ti-arm-clang.release.lib : ra_cfg.obj (.rodata.ring_types_DMASS0_PKTDMA_0)
                  43c17e20    00000048     drivers.am62x.r5f.ti-arm-clang.release.lib : bootloader_soc.obj (.rodata.gSOC_r5fVectors)
                  43c17e68    00000048     rm_pm_hal_sbl.am62x.r5f.ti-arm-clang.release.lib : devices.obj (.rodata.soc_devgroups)
                  43c17eb0    00000048                                                      : udmap_cfg.obj (.rodata.tx_ch_types_DMASS0_PKTDMA_0)
                  43c17ef8    00000046     drivers.am62x.r5f.ti-arm-clang.release.lib : bootloader_dma.obj (.rodata.str1.18735384423475021611)
                  43c17f3e    00000040     rm_pm_hal_sbl.am62x.r5f.ti-arm-clang.release.lib : clocks.obj (.rodata.clk_MAIN_OBSCLK0_MUX_SEL_parents)
                  43c17f7e    0000003d     nortos.am62x.r5f.ti-arm-clang.release.lib : TimerP.obj (.rodata.str1.155618297627321921901)
                  43c17fbb    00000037                                               : SemaphoreP_nortos.obj (.rodata.str1.77784356401422800491)
                  43c17ff2    00000036     rm_pm_hal_sbl.am62x.r5f.ti-arm-clang.release.lib : ia_pe_conf.obj (.rodata.ia_soc_pe_init_list)
                  43c18028    00000036     drivers.am62x.r5f.ti-arm-clang.release.lib : bootloader_soc.obj (.rodata.str1.157201156735925051321)
                  43c1805e    00000036                                                : ddr.obj (.rodata.str1.73433922848408513671)
                  43c18094    00000035     ti_drivers_open_close.obj (.rodata.str1.135241915826326793361)
                  43c180c9    00000034     nortos.am62x.r5f.ti-arm-clang.release.lib : TimerP.obj (.rodata.str1.164743418995849697991)
                  43c180fd    00000033     drivers.am62x.r5f.ti-arm-clang.release.lib : bootloader_soc.obj (.rodata.str1.158793794597105455061)
                  43c18130    00000033                                                : bootloader_soc.obj (.rodata.str1.53496284186333561501)
                  43c18163    00000032     rm_pm_hal_sbl.am62x.r5f.ti-arm-clang.release.lib : clk_pll_16fft.obj (.rodata.postdiv_mapping)
                  43c18195    00000032     drivers.am62x.r5f.ti-arm-clang.release.lib : bootloader.obj (.rodata.str1.49453207730052505781)
                  43c181c7    00000001     --HOLE-- [fill = 0]
                  43c181c8    00000030     rm_pm_hal_sbl.am62x.r5f.ti-arm-clang.release.lib : clk_pll_16fft.obj (.rodata.pll_16fft_hsdiv_data)
                  43c181f8    00000030                                                      : clk_pll_16fft.obj (.rodata.pll_16fft_postdiv_data)
                  43c18228    00000030                                                      : clk_pll_16fft.obj (.rodata.pll_16fft_raw_data)
                  43c18258    00000030     drivers.am62x.r5f.ti-arm-clang.release.lib : bootloader_soc.obj (.rodata.str1.166830186250463373111)
                  43c18288    0000002f                                                : bootloader_soc.obj (.rodata.str1.132542177347585676331)
                  43c182b7    0000002f                                                : ddr.obj (.rodata.str1.94111967193122311561)
                  43c182e6    0000002e     nortos.am62x.r5f.ti-arm-clang.release.lib : ClockP_nortos.obj (.rodata.str1.60552435462749564001)
                  43c18314    0000002d     drivers.am62x.r5f.ti-arm-clang.release.lib : ddr.obj (.rodata.str1.116939344651230115321)
                  43c18341    0000002d                                                : bootloader.obj (.rodata.str1.117201396983213615621)
                  43c1836e    0000002d                                                : bootloader_soc.obj (.rodata.str1.46076143601892151391)
                  43c1839b    0000002d                                                : bootloader_soc.obj (.rodata.str1.49132173724204109431)
                  43c183c8    0000002c                                                : bootloader_soc.obj (.rodata.str1.104113977326490384331)
                  43c183f4    0000002c                                                : ddr.obj (.rodata.str1.115473847009400335091)
                  43c18420    0000002c                                                : bootloader_soc.obj (.rodata.str1.159749629280897837951)
                  43c1844c    0000002c                                                : bootloader_soc.obj (.rodata.str1.46784995771420456811)
                  43c18478    0000002c                                                : ddr.obj (.rodata.str1.53769595288076202821)
                  43c184a4    0000002b                                                : bootloader_soc.obj (.rodata.str1.104654596488616227751)
                  43c184cf    0000002b                                                : bootloader_soc.obj (.rodata.str1.162881713441723276661)
                  43c184fa    0000002b                                                : bootloader.obj (.rodata.str1.27692862334559552701)
                  43c18525    0000002b                                                : bootloader_soc.obj (.rodata.str1.7963391161705096401)
                  43c18550    0000002b                                                : ddr.obj (.rodata.str1.79833557267131166431)
                  43c1857b    0000002a                                                : bootloader_soc.obj (.rodata.str1.42417016426205776851)
                  43c185a5    0000002a                                                : ddr.obj (.rodata.str1.44587981942987503481)
                  43c185cf    0000002a     nortos.am62x.r5f.ti-arm-clang.release.lib : DebugP_log.obj (.rodata.str1.8568035916953519521)
                  43c185f9    0000002a     drivers.am62x.r5f.ti-arm-clang.release.lib : bootloader_soc.obj (.rodata.str1.94676302954800452671)
                  43c18623    00000001     --HOLE-- [fill = 0]
                  43c18624    00000028     rm_pm_hal_sbl.am62x.r5f.ti-arm-clang.release.lib : clocks.obj (.rodata.soc_clock_ranges)
                  43c1864c    00000028     drivers.am62x.r5f.ti-arm-clang.release.lib : ddr.obj (.rodata.str1.180652758740370262311)
                  43c18674    00000027     nortos.am62x.r5f.ti-arm-clang.release.lib : ClockP_nortos_r5.obj (.rodata.str1.124546920576200709321)
                  43c1869b    00000001     --HOLE-- [fill = 0]
                  43c1869c    00000024     rm_pm_hal_sbl.am62x.r5f.ti-arm-clang.release.lib : clk_div.obj (.rodata.clk_drv_div_fixed)
                  43c186c0    00000024                                                      : clk_pll_16fft.obj (.rodata.clk_drv_div_pll_16fft_hsdiv)
                  43c186e4    00000024                                                      : clk_pll_16fft.obj (.rodata.clk_drv_div_pll_16fft_postdiv)
                  43c18708    00000024                                                      : clk_div.obj (.rodata.clk_drv_div_reg)
                  43c1872c    00000024                                                      : clk_div.obj (.rodata.clk_drv_div_reg_go)
                  43c18750    00000024     sciclient_direct_sbl.am62x.r5f.ti-arm-clang.release.lib : sciclient_direct_wrapper.obj (.rodata.str1.1813724501135460521)
                  43c18774    00000024     drivers.am62x.r5f.ti-arm-clang.release.lib : bootloader_soc.obj (.rodata.str1.7856514755827139441)
                  43c18798    00000023     nortos.am62x.r5f.ti-arm-clang.release.lib : ClockP_nortos_r5.obj (.rodata.str1.25776369892830718361)
                  43c187bb    00000023     sciclient_direct_sbl.am62x.r5f.ti-arm-clang.release.lib : sciclient_direct_wrapper.obj (.rodata.str1.41336017259372466001)
                  43c187de    00000021     drivers.am62x.r5f.ti-arm-clang.release.lib : bootloader_soc.obj (.rodata.str1.142742534177359442811)
                  43c187ff    00000021                                                : bootloader_soc.obj (.rodata.str1.167368209813566977391)
                  43c18820    00000021     nortos.am62x.r5f.ti-arm-clang.release.lib : ClockP_nortos_r5.obj (.rodata.str1.167645692065458388701)
                  43c18841    00000001     --HOLE-- [fill = 0]
                  43c18842    00000020     rm_pm_hal_sbl.am62x.r5f.ti-arm-clang.release.lib : clocks.obj (.rodata.clk_MAIN_TIMERCLKn_SEL_out0_parents)
                  43c18862    00000020                                                      : clocks.obj (.rodata.clk_MCU_OBSCLK_MUX_SEL_parents)
                  43c18882    00000002                                                      : trace-uart.obj (.rodata.str1.146269357089097757161)
                  43c18884    00000020                                                      : clk_mux.obj (.rodata.clk_drv_mux_reg)
                  43c188a4    00000020                                                      : clk_pllctrl.obj (.rodata.clk_drv_pllctrl_mux_reg_ro)
                  43c188c4    00000004                                                      : clocks.obj (.rodata.clk_CLKOUT0_CTRL_parents)
                  43c188c8    00000020                                                      : fw_caps.obj (.rodata.soc_fw_caps)
                  43c188e8    00000020     drivers.am62x.r5f.ti-arm-clang.release.lib : bootloader.obj (.rodata.str1.163028399842724032861)
                  43c18908    0000001f                                                : uart_v0.obj (.rodata.str1.169394063705023262141)
                  43c18927    0000001f     nortos.am62x.r5f.ti-arm-clang.release.lib : TimerP.obj (.rodata.str1.170816537386891942861)
                  43c18946    0000001f                                               : ClockP_nortos_r5.obj (.rodata.str1.37049961317335892191)
                  43c18965    0000001f                                               : SemaphoreP_nortos.obj (.rodata.str1.93106250239489445331)
                  43c18984    0000001e     rm_pm_hal_sbl.am62x.r5f.ti-arm-clang.release.lib : irq_cfg.obj (.rodata.irq_global_event_types)
                  43c189a2    0000001e     drivers.am62x.r5f.ti-arm-clang.release.lib : bootloader_soc.obj (.rodata.str1.3164485628465448361)
                  43c189c0    0000001d     nortos.am62x.r5f.ti-arm-clang.release.lib : TimerP.obj (.rodata.str1.154036655774719862071)
                  43c189dd    00000003     sciclient_direct_sbl.am62x.r5f.ti-arm-clang.release.lib : uart_print.obj (.rodata.str1.60630783811243911631)
                  43c189e0    0000001c     drivers.am62x.r5f.ti-arm-clang.release.lib : bootloader_soc.obj (.rodata..L__const.Bootloader_socRprcToCslCoreId.rprcCoreIds)
                  43c189fc    0000001c                                                : bootloader_dma.obj (.rodata.str1.109180218251623323801)
                  43c18a18    0000001b     nortos.am62x.r5f.ti-arm-clang.release.lib : ClockP_nortos.obj (.rodata.str1.25471646840808198631)
                  43c18a33    0000001b     main.obj (.rodata.str1.97993385775340092391)
                  43c18a4e    0000001a     drivers.am62x.r5f.ti-arm-clang.release.lib : bootloader_soc.obj (.rodata.str1.125680084025162532281)
                  43c18a68    0000001a     nortos.am62x.r5f.ti-arm-clang.release.lib : TimerP.obj (.rodata.str1.160246686209138365701)
                  43c18a82    0000001a                                               : ClockP_nortos_r5.obj (.rodata.str1.169616377957066558931)
                  43c18a9c    0000001a     drivers.am62x.r5f.ti-arm-clang.release.lib : bootloader_soc.obj (.rodata.str1.174709165319804777741)
                  43c18ab6    0000001a     main.obj (.rodata.str1.52501554851255701521)
                  43c18ad0    00000019     drivers.am62x.r5f.ti-arm-clang.release.lib : bootloader_soc.obj (.rodata.str1.141262243990818516471)
                  43c18ae9    00000019                                                : uart_v0.obj (.rodata.str1.151873246111077803171)
                  43c18b02    00000019     nortos.am62x.r5f.ti-arm-clang.release.lib : TimerP.obj (.rodata.str1.170516325075394100231)
                  43c18b1b    00000019     drivers.am62x.r5f.ti-arm-clang.release.lib : bootloader.obj (.rodata.str1.31402796831322128521)
                  43c18b34    00000019                                                : bootloader_soc.obj (.rodata.str1.77500914669471899281)
                  43c18b4d    00000003     rm_pm_hal_sbl.am62x.r5f.ti-arm-clang.release.lib : trace-uart.obj (.rodata.str1.9957289042408205471)
                  43c18b50    00000018                                                      : clk_soc_hfosc0.obj (.rodata..L__const.clk_soc_hfosc0_get_freq.freq_table)
                  43c18b68    00000018                                                      : clk_fixed.obj (.rodata.clk_drv_fixed)
                  43c18b80    00000018                                                      : clk_dev.obj (.rodata.clk_drv_from_device)
                  43c18b98    00000018                                                      : clk_pll_16fft.obj (.rodata.clk_drv_pll_16fft)
                  43c18bb0    00000018                                                      : clk_soc_hfosc0.obj (.rodata.clk_drv_soc_hfosc0)
                  43c18bc8    00000018                                                      : clk_soc_lfosc0.obj (.rodata.clk_drv_soc_lfosc0)
                  43c18be0    00000018                                                      : ra_cfg.obj (.rodata.ring_types_DMASS0_BCDMA_0)
                  43c18bf8    00000017     drivers.am62x.r5f.ti-arm-clang.release.lib : bootloader_dma.obj (.rodata.str1.116932125444684011371)
                  43c18c0f    00000017                                                : uart_v0.obj (.rodata.str1.118833787404970350941)
                  43c18c26    00000017                                                : uart_dma.obj (.rodata.str1.1333327264196212521)
                  43c18c3d    00000017                                                : bootloader.obj (.rodata.str1.155678864570694128981)
                  43c18c54    00000017                                                : uart_dma.obj (.rodata.str1.18451166636706412691)
                  43c18c6b    00000017                                                : bootloader.obj (.rodata.str1.89222897150519810611)
                  43c18c82    00000016                                                : uart_v0.obj (.rodata.str1.144905129610797327471)
                  43c18c98    00000015                                                : uart_v0.obj (.rodata.str1.38839981320244304711)
                  43c18cad    00000015     nortos.am62x.r5f.ti-arm-clang.release.lib : SemaphoreP_nortos.obj (.rodata.str1.67625122021398397081)
                  43c18cc2    00000002     sciclient_direct_sbl.am62x.r5f.ti-arm-clang.release.lib : uart_print.obj (.rodata.str1.82017967049224316961)
                  43c18cc4    00000014     rm_pm_hal_sbl.am62x.r5f.ti-arm-clang.release.lib : clocks.obj (.rodata.clk_data_pllfracf2_ssmod_16fft_main_0)
                  43c18cd8    00000014                                                      : clocks.obj (.rodata.clk_data_pllfracf2_ssmod_16fft_main_12)
                  43c18cec    00000014                                                      : clocks.obj (.rodata.clk_data_pllfracf2_ssmod_16fft_main_15)
                  43c18d00    00000014                                                      : clocks.obj (.rodata.clk_data_pllfracf2_ssmod_16fft_main_16)
                  43c18d14    00000014                                                      : clocks.obj (.rodata.clk_data_pllfracf2_ssmod_16fft_main_17)
                  43c18d28    00000014                                                      : clocks.obj (.rodata.clk_data_pllfracf2_ssmod_16fft_main_1)
                  43c18d3c    00000014                                                      : clocks.obj (.rodata.clk_data_pllfracf2_ssmod_16fft_main_2)
                  43c18d50    00000014                                                      : clocks.obj (.rodata.clk_data_pllfracf2_ssmod_16fft_main_8)
                  43c18d64    00000014                                                      : clocks.obj (.rodata.clk_data_pllfracf2_ssmod_16fft_mcu_0)
                  43c18d78    00000014     drivers.am62x.r5f.ti-arm-clang.release.lib : uart_v0.obj (.rodata.str1.28909646574304168541)
                  43c18d8c    00000014     nortos.am62x.r5f.ti-arm-clang.release.lib : TimerP.obj (.rodata.str1.88986405623045072391)
                  43c18da0    00000013     sciclient_direct_sbl.am62x.r5f.ti-arm-clang.release.lib : sciclient_boardcfg.obj (.rodata..L__const.Sciclient_boardCfgPm.request)
                  43c18db3    00000005     nortos.am62x.r5f.ti-arm-clang.release.lib : printf.obj (.rodata.str1.180255128143303278211)
                  43c18db8    00000013     sciclient_direct_sbl.am62x.r5f.ti-arm-clang.release.lib : sciclient_boardcfg.obj (.rodata..L__const.Sciclient_boardCfgRm.request)
                  43c18dcb    00000001     --HOLE-- [fill = 0]
                  43c18dcc    00000012     rm_pm_hal_sbl.am62x.r5f.ti-arm-clang.release.lib : udmap_cfg.obj (.rodata.bc_ch_types_DMASS0_BCDMA_0)
                  43c18dde    00000012                                                      : udmap_cfg.obj (.rodata.rx_ch_types_DMASS0_BCDMA_0)
                  43c18df0    00000012     drivers.am62x.r5f.ti-arm-clang.release.lib : uart_v0.obj (.rodata.str1.108170205221098943901)
                  43c18e02    00000012                                                : bootloader.obj (.rodata.str1.24728428003093102681)
                  43c18e14    00000012     rm_pm_hal_sbl.am62x.r5f.ti-arm-clang.release.lib : udmap_cfg.obj (.rodata.tx_ch_types_DMASS0_BCDMA_0)
                  43c18e26    00000011     ti_drivers_open_close.obj (.rodata.str1.47319419042038394831)
                  43c18e37    00000011     nortos.am62x.r5f.ti-arm-clang.release.lib : ClockP_nortos.obj (.rodata.str1.56392992661620616651)
                  43c18e48    00000011     drivers.am62x.r5f.ti-arm-clang.release.lib : uart_v0.obj (.rodata.str1.60774846955662521161)
                  43c18e59    00000011     sciclient_direct_sbl.am62x.r5f.ti-arm-clang.release.lib : uart_print.obj (.rodata.str1.89996641962621242781)
                  43c18e6a    00000002     --HOLE-- [fill = 0]
                  43c18e6c    00000010     rm_pm_hal_sbl.am62x.r5f.ti-arm-clang.release.lib : dmsc.obj (.rodata.am62x_sleep_modes)
                  43c18e7c    00000010                                                      : clocks.obj (.rodata.clk_AUDIO_REFCLKn_out0_parents)
                  43c18e8c    00000010                                                      : clocks.obj (.rodata.clk_MAIN_CP_GEMAC_CPTS_CLK_SEL_parents)
                  43c18e9c    00000010                                                      : clocks.obj (.rodata.clk_MCU_TIMERCLKn_SEL_out0_parents)
                  43c18eac    00000010                                                      : clocks.obj (.rodata.clk_MCU_TIMERCLKn_SEL_out1_parents)
                  43c18ebc    00000010                                                      : clocks.obj (.rodata.clk_MCU_TIMERCLKn_SEL_out2_parents)
                  43c18ecc    00000010                                                      : clocks.obj (.rodata.clk_MCU_TIMERCLKn_SEL_out3_parents)
                  43c18edc    00000010                                                      : clocks.obj (.rodata.clk_WKUP_CLKOUT_SEL_parents)
                  43c18eec    00000010                                                      : clocks.obj (.rodata.clk_WKUP_TIMERCLKn_SEL_out0_parents)
                  43c18efc    00000010                                                      : clocks.obj (.rodata.clk_WKUP_TIMERCLKn_SEL_out1_parents)
                  43c18f0c    00000010                                                      : clocks.obj (.rodata.clk_data_AUDIO_REFCLKn_out0)
                  43c18f1c    00000010                                                      : clocks.obj (.rodata.clk_data_AUDIO_REFCLKn_out1)
                  43c18f2c    00000010                                                      : clocks.obj (.rodata.clk_data_CLKOUT0_CTRL_out0)
                  43c18f3c    00000010                                                      : clocks.obj (.rodata.clk_data_CLK_32K_RC_SEL_out0)
                  43c18f4c    00000010                                                      : clocks.obj (.rodata.clk_data_MAIN_CP_GEMAC_CPTS_CLK_SEL_out0)
                  43c18f5c    00000010                                                      : clocks.obj (.rodata.clk_data_MAIN_DSS_DPI1_out0)
                  43c18f6c    00000010                                                      : clocks.obj (.rodata.clk_data_MAIN_EMMCSD0_IO_CLKLB_SEL_out0)
                  43c18f7c    00000010                                                      : clocks.obj (.rodata.clk_data_MAIN_EMMCSD0_REFCLK_SEL_out0)
                  43c18f8c    00000010                                                      : clocks.obj (.rodata.clk_data_MAIN_EMMCSD1_IO_CLKLB_SEL_out0)
                  43c18f9c    00000010                                                      : clocks.obj (.rodata.clk_data_MAIN_EMMCSD1_REFCLK_SEL_out0)
                  43c18fac    00000010                                                      : clocks.obj (.rodata.clk_data_MAIN_EMMCSD2_IO_CLKLB_SEL_out0)
                  43c18fbc    00000010                                                      : clocks.obj (.rodata.clk_data_MAIN_EMMCSD2_REFCLK_SEL_out0)
                  43c18fcc    00000010                                                      : clocks.obj (.rodata.clk_data_MAIN_GPMC_FCLK_SEL_out0)
                  43c18fdc    00000010                                                      : clocks.obj (.rodata.clk_data_MAIN_GTCCLK_SEL_out0)
                  43c18fec    00000010                                                      : clocks.obj (.rodata.clk_data_MAIN_ICSSM_CORE_CLK_SEL_out0)
                  43c18ffc    00000010                                                      : clocks.obj (.rodata.clk_data_MAIN_ICSSM_IEPCLK_SEL_out0)
                  43c1900c    00000010                                                      : clocks.obj (.rodata.clk_data_MAIN_MCANn_CLK_SEL_out0)
                  43c1901c    00000010                                                      : clocks.obj (.rodata.clk_data_MAIN_OBSCLK0_MUX_SEL_out0)
                  43c1902c    00000010                                                      : clocks.obj (.rodata.clk_data_MAIN_OSPI_LOOPBACK_CLK_SEL_out0)
                  43c1903c    00000010                                                      : clocks.obj (.rodata.clk_data_MAIN_OSPI_REF_CLK_SEL_out0)
                  43c1904c    00000010                                                      : clocks.obj (.rodata.clk_data_MAIN_TIMERCLKn_SEL_out0)
                  43c1905c    00000010                                                      : clocks.obj (.rodata.clk_data_MAIN_TIMERCLKn_SEL_out1)
                  43c1906c    00000010                                                      : clocks.obj (.rodata.clk_data_MAIN_TIMERCLKn_SEL_out2)
                  43c1907c    00000010                                                      : clocks.obj (.rodata.clk_data_MAIN_TIMERCLKn_SEL_out3)
                  43c1908c    00000010                                                      : clocks.obj (.rodata.clk_data_MAIN_TIMERCLKn_SEL_out4)
                  43c1909c    00000010                                                      : clocks.obj (.rodata.clk_data_MAIN_TIMERCLKn_SEL_out5)
                  43c190ac    00000010                                                      : clocks.obj (.rodata.clk_data_MAIN_TIMERCLKn_SEL_out6)
                  43c190bc    00000010                                                      : clocks.obj (.rodata.clk_data_MAIN_TIMERCLKn_SEL_out7)
                  43c190cc    00000010                                                      : clocks.obj (.rodata.clk_data_MAIN_USB0_REFCLK_SEL_out0)
                  43c190dc    00000010                                                      : clocks.obj (.rodata.clk_data_MAIN_USB1_REFCLK_SEL_out0)
                  43c190ec    00000010                                                      : clocks.obj (.rodata.clk_data_MAIN_WWDTCLKn_SEL_out0)
                  43c190fc    00000010                                                      : clocks.obj (.rodata.clk_data_MAIN_WWDTCLKn_SEL_out1)
                  43c1910c    00000010                                                      : clocks.obj (.rodata.clk_data_MAIN_WWDTCLKn_SEL_out2)
                  43c1911c    00000010                                                      : clocks.obj (.rodata.clk_data_MAIN_WWDTCLKn_SEL_out3)
                  43c1912c    00000010                                                      : clocks.obj (.rodata.clk_data_MAIN_WWDTCLKn_SEL_out4)
                  43c1913c    00000010                                                      : clocks.obj (.rodata.clk_data_MAIN_spi0_mstr_lp_clksel_out0)
                  43c1914c    00000010                                                      : clocks.obj (.rodata.clk_data_MAIN_spi1_mstr_lp_clksel_out0)
                  43c1915c    00000010                                                      : clocks.obj (.rodata.clk_data_MAIN_spi2_mstr_lp_clksel_out0)
                  43c1916c    00000010                                                      : clocks.obj (.rodata.clk_data_MAIN_usart0_fclk_sel_out0)
                  43c1917c    00000010                                                      : clocks.obj (.rodata.clk_data_MAIN_usart1_fclk_sel_out0)
                  43c1918c    00000010                                                      : clocks.obj (.rodata.clk_data_MAIN_usart2_fclk_sel_out0)
                  43c1919c    00000010                                                      : clocks.obj (.rodata.clk_data_MAIN_usart3_fclk_sel_out0)
                  43c191ac    00000010                                                      : clocks.obj (.rodata.clk_data_MAIN_usart4_fclk_sel_out0)
                  43c191bc    00000010                                                      : clocks.obj (.rodata.clk_data_MAIN_usart5_fclk_sel_out0)
                  43c191cc    00000010                                                      : clocks.obj (.rodata.clk_data_MAIN_usart6_fclk_sel_out0)
                  43c191dc    00000010                                                      : clocks.obj (.rodata.clk_data_MCASPn_AHCLKSEL_AHCLKR_out0)
                  43c191ec    00000010                                                      : clocks.obj (.rodata.clk_data_MCASPn_AHCLKSEL_AHCLKR_out1)
                  43c191fc    00000010                                                      : clocks.obj (.rodata.clk_data_MCASPn_AHCLKSEL_AHCLKR_out2)
                  43c1920c    00000010                                                      : clocks.obj (.rodata.clk_data_MCASPn_AHCLKSEL_AHCLKX_out0)
                  43c1921c    00000010                                                      : clocks.obj (.rodata.clk_data_MCASPn_AHCLKSEL_AHCLKX_out1)
                  43c1922c    00000010                                                      : clocks.obj (.rodata.clk_data_MCASPn_AHCLKSEL_AHCLKX_out2)
                  43c1923c    00000010                                                      : clocks.obj (.rodata.clk_data_MCASPn_CLKSEL_AUXCLK_out0)
                  43c1924c    00000010                                                      : clocks.obj (.rodata.clk_data_MCASPn_CLKSEL_AUXCLK_out1)
                  43c1925c    00000010                                                      : clocks.obj (.rodata.clk_data_MCASPn_CLKSEL_AUXCLK_out2)
                  43c1926c    00000010                                                      : clocks.obj (.rodata.clk_data_MCU_GPIO0_CLKSEL_out0)
                  43c1927c    00000010                                                      : clocks.obj (.rodata.clk_data_MCU_M4FSS_CLKSEL_out0)
                  43c1928c    00000010                                                      : clocks.obj (.rodata.clk_data_MCU_MCANn_CLK_SEL_out0)
                  43c1929c    00000010                                                      : clocks.obj (.rodata.clk_data_MCU_MCANn_CLK_SEL_out1)
                  43c192ac    00000010                                                      : clocks.obj (.rodata.clk_data_MCU_OBSCLK_MUX_SEL_out0)
                  43c192bc    00000010                                                      : clocks.obj (.rodata.clk_data_MCU_OBSCLK_OUTMUX_SEL_out0)
                  43c192cc    00000010                                                      : clocks.obj (.rodata.clk_data_MCU_TIMERCLKn_SEL_out0)
                  43c192dc    00000010                                                      : clocks.obj (.rodata.clk_data_MCU_TIMERCLKn_SEL_out1)
                  43c192ec    00000010                                                      : clocks.obj (.rodata.clk_data_MCU_TIMERCLKn_SEL_out2)
                  43c192fc    00000010                                                      : clocks.obj (.rodata.clk_data_MCU_TIMERCLKn_SEL_out3)
                  43c1930c    00000010                                                      : clocks.obj (.rodata.clk_data_MCU_WWDTCLK_SEL_out0)
                  43c1931c    00000010                                                      : clocks.obj (.rodata.clk_data_MCU_spi0_mstr_lp_clksel_out0)
                  43c1932c    00000010                                                      : clocks.obj (.rodata.clk_data_MCU_spi1_mstr_lp_clksel_out0)
                  43c1933c    00000010                                                      : clocks.obj (.rodata.clk_data_RTC_CLK_SEL_out0)
                  43c1934c    00000010                                                      : clocks.obj (.rodata.clk_data_WKUP_CLKOUT_SEL_out0)
                  43c1935c    00000010                                                      : clocks.obj (.rodata.clk_data_WKUP_CLKSEL_out0)
                  43c1936c    00000010                                                      : clocks.obj (.rodata.clk_data_WKUP_TIMERCLKn_SEL_out0)
                  43c1937c    00000010                                                      : clocks.obj (.rodata.clk_data_WKUP_TIMERCLKn_SEL_out1)
                  43c1938c    00000010                                                      : clocks.obj (.rodata.clk_data_WKUP_WWDTCLK_SEL_out0)
                  43c1939c    00000010                                                      : clocks.obj (.rodata.clk_data_sam62_pll_ctrl_wrap_main_0_sysclkout_clk)
                  43c193ac    00000010                                                      : clocks.obj (.rodata.clk_data_sam62_pll_ctrl_wrap_mcu_0_sysclkout_clk)
                  43c193bc    00000010                                                      : psc.obj (.rodata.cst16)
                  43c193cc    00000004                                                      : clocks.obj (.rodata.clk_MAIN_DSS_DPI1_parents)
                  43c193d0    00000010                                                      : ir_cfg.obj (.rodata.mmr_CMP_EVENT_INTROUTER0_INTR_ROUTER_CFG)
                  43c193e0    00000010                                                      : udmap_cfg.obj (.rodata.mmr_DMASS0_BCDMA_0_BCDMA_BCHAN)
                  43c193f0    00000010                                                      : udmap_cfg.obj (.rodata.mmr_DMASS0_BCDMA_0_BCDMA_BCHANRT)
                  43c19400    00000010                                                      : ra_cfg.obj (.rodata.mmr_DMASS0_BCDMA_0_BCDMA_GCFG)
                  43c19410    00000010                                                      : udmap_cfg.obj (.rodata.mmr_DMASS0_BCDMA_0_BCDMA_GCFG)
                  43c19420    00000010                                                      : udmap_cfg.obj (.rodata.mmr_DMASS0_BCDMA_0_BCDMA_RCHAN)
                  43c19430    00000010                                                      : udmap_cfg.obj (.rodata.mmr_DMASS0_BCDMA_0_BCDMA_RCHANRT)
                  43c19440    00000010                                                      : ra_cfg.obj (.rodata.mmr_DMASS0_BCDMA_0_BCDMA_RING)
                  43c19450    00000010                                                      : ra_cfg.obj (.rodata.mmr_DMASS0_BCDMA_0_BCDMA_RINGRT)
                  43c19460    00000010                                                      : udmap_cfg.obj (.rodata.mmr_DMASS0_BCDMA_0_BCDMA_TCHAN)
                  43c19470    00000010                                                      : udmap_cfg.obj (.rodata.mmr_DMASS0_BCDMA_0_BCDMA_TCHANRT)
                  43c19480    00000010                                                      : ia_cfg.obj (.rodata.mmr_DMASS0_INTAGGR_0_INTAGGR_GCNTRTI)
                  43c19490    00000010                                                      : ia_cfg.obj (.rodata.mmr_DMASS0_INTAGGR_0_INTAGGR_IMAP)
                  43c194a0    00000010                                                      : ia_cfg.obj (.rodata.mmr_DMASS0_INTAGGR_0_INTAGGR_INTR)
                  43c194b0    00000010                                                      : ia_cfg.obj (.rodata.mmr_DMASS0_INTAGGR_0_INTAGGR_UNMAP)
                  43c194c0    00000010                                                      : ra_cfg.obj (.rodata.mmr_DMASS0_PKTDMA_0_PKTDMA_GCFG)
                  43c194d0    00000010                                                      : udmap_cfg.obj (.rodata.mmr_DMASS0_PKTDMA_0_PKTDMA_GCFG)
                  43c194e0    00000010                                                      : udmap_cfg.obj (.rodata.mmr_DMASS0_PKTDMA_0_PKTDMA_RCHAN)
                  43c194f0    00000010                                                      : udmap_cfg.obj (.rodata.mmr_DMASS0_PKTDMA_0_PKTDMA_RCHANRT)
                  43c19500    00000010                                                      : udmap_cfg.obj (.rodata.mmr_DMASS0_PKTDMA_0_PKTDMA_RFLOW)
                  43c19510    00000010                                                      : ra_cfg.obj (.rodata.mmr_DMASS0_PKTDMA_0_PKTDMA_RING)
                  43c19520    00000010                                                      : ra_cfg.obj (.rodata.mmr_DMASS0_PKTDMA_0_PKTDMA_RINGRT)
                  43c19530    00000010                                                      : udmap_cfg.obj (.rodata.mmr_DMASS0_PKTDMA_0_PKTDMA_TCHAN)
                  43c19540    00000010                                                      : udmap_cfg.obj (.rodata.mmr_DMASS0_PKTDMA_0_PKTDMA_TCHANRT)
                  43c19550    00000010                                                      : ra_cfg.obj (.rodata.mmr_DMASS0_RINGACC_0_RINGACC_CFG)
                  43c19560    00000010                                                      : ra_cfg.obj (.rodata.mmr_DMASS0_RINGACC_0_RINGACC_GCFG)
                  43c19570    00000010                                                      : ra_cfg.obj (.rodata.mmr_DMASS0_RINGACC_0_RINGACC_RT)
                  43c19580    00000010                                                      : ir_cfg.obj (.rodata.mmr_MAIN_GPIOMUX_INTROUTER0_INTR_ROUTER_CFG)
                  43c19590    00000010                                                      : ir_cfg.obj (.rodata.mmr_TIMESYNC_EVENT_ROUTER0_INTR_ROUTER_CFG)
                  43c195a0    00000010                                                      : ir_cfg.obj (.rodata.mmr_WKUP_MCU_GPIOMUX_INTROUTER0_INTR_ROUTER_CFG)
                  43c195b0    00000010                                                      : psc.obj (.rodata.psc_drv)
                  43c195c0    0000000f     drivers.am62x.r5f.ti-arm-clang.release.lib : ddr.obj (.rodata.str1.131304886953556701471)
                  43c195cf    0000000f                                                : uart_v0.obj (.rodata.str1.175171363700779445411)
                  43c195de    0000000f                                                : uart_v0.obj (.rodata.str1.60965199449619900431)
                  43c195ed    0000000f                                                : uart_dma.obj (.rodata.str1.70768452508190077591)
                  43c195fc    0000000e                                                : uart_dma.obj (.rodata.str1.23135773699787735551)
                  43c1960a    0000000e                                                : uart_v0.obj (.rodata.str1.62999113157451139141)
                  43c19618    0000000d     nortos.am62x.r5f.ti-arm-clang.release.lib : TimerP.obj (.rodata.str1.36936046049119147381)
                  43c19625    0000000d                                               : TimerP.obj (.rodata.str1.90798414294938570131)
                  43c19632    0000000c     rm_pm_hal_sbl.am62x.r5f.ti-arm-clang.release.lib : rm_ra.obj (.rodata..Lswitch.table.rm_ra_validate_ring_index)
                  43c1963e    00000002     --HOLE-- [fill = 0]
                  43c19640    0000000c                                                      : clocks.obj (.rodata.clk_data_USART_Programmable_Clock_Divider_out0)
                  43c1964c    0000000c                                                      : clocks.obj (.rodata.clk_data_USART_Programmable_Clock_Divider_out1)
                  43c19658    0000000c                                                      : clocks.obj (.rodata.clk_data_USART_Programmable_Clock_Divider_out2)
                  43c19664    0000000c                                                      : clocks.obj (.rodata.clk_data_USART_Programmable_Clock_Divider_out3)
                  43c19670    0000000c                                                      : clocks.obj (.rodata.clk_data_USART_Programmable_Clock_Divider_out4)
                  43c1967c    0000000c                                                      : clocks.obj (.rodata.clk_data_USART_Programmable_Clock_Divider_out5)
                  43c19688    0000000c                                                      : clocks.obj (.rodata.clk_data_USART_Programmable_Clock_Divider_out6)
                  43c19694    0000000c                                                      : clocks.obj (.rodata.clk_data_hsdiv0_16fft_main_12_hsdiv0)
                  43c196a0    0000000c                                                      : clocks.obj (.rodata.clk_data_hsdiv0_16fft_main_16_hsdiv0)
                  43c196ac    0000000c                                                      : clocks.obj (.rodata.clk_data_hsdiv0_16fft_main_17_hsdiv0)
                  43c196b8    0000000c                                                      : clocks.obj (.rodata.clk_data_hsdiv0_16fft_main_8_hsdiv0)
                  43c196c4    0000000c                                                      : clocks.obj (.rodata.clk_data_hsdiv0_16fft_mcu_32khz_gen_0_hsdiv0)
                  43c196d0    0000000c                                                      : clocks.obj (.rodata.clk_data_hsdiv1_16fft_main_15_hsdiv0)
                  43c196dc    0000000c                                                      : clocks.obj (.rodata.clk_data_hsdiv1_16fft_main_15_hsdiv1)
                  43c196e8    0000000c                                                      : clocks.obj (.rodata.clk_data_hsdiv4_16fft_main_0_hsdiv0)
                  43c196f4    0000000c                                                      : clocks.obj (.rodata.clk_data_hsdiv4_16fft_main_0_hsdiv1)
                  43c19700    0000000c                                                      : clocks.obj (.rodata.clk_data_hsdiv4_16fft_main_0_hsdiv2)
                  43c1970c    0000000c                                                      : clocks.obj (.rodata.clk_data_hsdiv4_16fft_main_0_hsdiv3)
                  43c19718    0000000c                                                      : clocks.obj (.rodata.clk_data_hsdiv4_16fft_main_0_hsdiv4)
                  43c19724    0000000c                                                      : clocks.obj (.rodata.clk_data_hsdiv4_16fft_main_1_hsdiv0)
                  43c19730    0000000c                                                      : clocks.obj (.rodata.clk_data_hsdiv4_16fft_main_1_hsdiv1)
                  43c1973c    0000000c                                                      : clocks.obj (.rodata.clk_data_hsdiv4_16fft_main_1_hsdiv2)
                  43c19748    0000000c                                                      : clocks.obj (.rodata.clk_data_hsdiv4_16fft_main_1_hsdiv3)
                  43c19754    0000000c                                                      : clocks.obj (.rodata.clk_data_hsdiv4_16fft_main_1_hsdiv4)
                  43c19760    0000000c                                                      : clocks.obj (.rodata.clk_data_hsdiv4_16fft_main_2_hsdiv0)
                  43c1976c    0000000c                                                      : clocks.obj (.rodata.clk_data_hsdiv4_16fft_main_2_hsdiv1)
                  43c19778    0000000c                                                      : clocks.obj (.rodata.clk_data_hsdiv4_16fft_main_2_hsdiv2)
                  43c19784    0000000c                                                      : clocks.obj (.rodata.clk_data_hsdiv4_16fft_main_2_hsdiv3)
                  43c19790    0000000c                                                      : clocks.obj (.rodata.clk_data_hsdiv4_16fft_main_2_hsdiv4)
                  43c1979c    0000000c                                                      : clocks.obj (.rodata.clk_data_hsdiv4_16fft_mcu_0_hsdiv0)
                  43c197a8    0000000c                                                      : clocks.obj (.rodata.clk_data_hsdiv4_16fft_mcu_0_hsdiv1)
                  43c197b4    0000000c                                                      : clocks.obj (.rodata.clk_data_hsdiv4_16fft_mcu_0_hsdiv2)
                  43c197c0    0000000c                                                      : clocks.obj (.rodata.clk_data_hsdiv4_16fft_mcu_0_hsdiv3)
                  43c197cc    0000000c                                                      : clocks.obj (.rodata.clk_data_hsdiv4_16fft_mcu_0_hsdiv4)
                  43c197d8    0000000c                                                      : clocks.obj (.rodata.clk_data_mcu_obsclk_div_out0)
                  43c197e4    0000000c                                                      : clocks.obj (.rodata.clk_data_osbclk0_div_out0)
                  43c197f0    0000000c                                                      : clocks.obj (.rodata.clk_data_postdiv1_16fft_main_1_hsdiv5)
                  43c197fc    0000000c                                                      : clocks.obj (.rodata.clk_data_postdiv1_16fft_main_1_hsdiv6)
                  43c19808    0000000c                                                      : clocks.obj (.rodata.clk_data_postdiv4_16ff_main_0_hsdiv5)
                  43c19814    0000000c                                                      : clocks.obj (.rodata.clk_data_postdiv4_16ff_main_0_hsdiv6)
                  43c19820    0000000c                                                      : clocks.obj (.rodata.clk_data_postdiv4_16ff_main_0_hsdiv7)
                  43c1982c    0000000c                                                      : clocks.obj (.rodata.clk_data_postdiv4_16ff_main_0_hsdiv8)
                  43c19838    0000000c                                                      : clocks.obj (.rodata.clk_data_postdiv4_16ff_main_0_hsdiv9)
                  43c19844    0000000c                                                      : clocks.obj (.rodata.clk_data_postdiv4_16ff_main_2_hsdiv5)
                  43c19850    0000000c                                                      : clocks.obj (.rodata.clk_data_postdiv4_16ff_main_2_hsdiv6)
                  43c1985c    0000000c                                                      : clocks.obj (.rodata.clk_data_postdiv4_16ff_main_2_hsdiv7)
                  43c19868    0000000c                                                      : clocks.obj (.rodata.clk_data_postdiv4_16ff_main_2_hsdiv8)
                  43c19874    0000000c                                                      : clocks.obj (.rodata.clk_data_postdiv4_16ff_main_2_hsdiv9)
                  43c19880    0000000c                                                      : clocks.obj (.rodata.clk_data_sam62_pll_ctrl_wrap_main_0_chip_div1_clk_clk)
                  43c1988c    0000000c                                                      : clocks.obj (.rodata.clk_data_sam62_pll_ctrl_wrap_main_0_chip_div24_clk_clk)
                  43c19898    0000000c                                                      : clocks.obj (.rodata.clk_data_sam62_pll_ctrl_wrap_mcu_0_chip_div1_clk_clk)
                  43c198a4    0000000c                                                      : clocks.obj (.rodata.clk_data_sam62_pll_ctrl_wrap_mcu_0_chip_div24_clk_clk)
                  43c198b0    0000000c                                                      : rm_udmap.obj (.rodata.local_udmap_gcfg_valid_masks)
                  43c198bc    0000000c                                                      : init.obj (.rodata.startups)
                  43c198c8    0000000c     nortos.am62x.r5f.ti-arm-clang.release.lib : ClockP_nortos_r5.obj (.rodata.str1.43857604347425843821)
                  43c198d4    0000000c     drivers.am62x.r5f.ti-arm-clang.release.lib : ddr.obj (.rodata.str1.81852406950125532191)
                  43c198e0    0000000c                                                : ddr.obj (.rodata.str1.85710523956929449421)
                  43c198ec    0000000b                                                : bootloader.obj (.rodata..L__const.Bootloader_getMsgLen.boot_seq_oid)
                  43c198f7    0000000b                                                : uart_v0.obj (.rodata.str1.147565038505633975661)
                  43c19902    0000000b                                                : uart_v0.obj (.rodata.str1.163246704051681974461)
                  43c1990d    0000000a                                                : ddr.obj (.rodata.str1.114661318390360142971)
                  43c19917    0000000a                                                : ddr.obj (.rodata.str1.127390676962817437421)
                  43c19921    0000000a     main.obj (.rodata.str1.176328792963337784071)
                  43c1992b    0000000a     drivers.am62x.r5f.ti-arm-clang.release.lib : uart_v0.obj (.rodata.str1.181272059988846645511)
                  43c19935    0000000a                                                : uart_v0.obj (.rodata.str1.27933745631974480251)
                  43c1993f    0000000a                                                : uart_v0.obj (.rodata.str1.6394029968701164261)
                  43c19949    00000001     --HOLE-- [fill = 0]
                  43c1994a    00000008     rm_pm_hal_sbl.am62x.r5f.ti-arm-clang.release.lib : clocks.obj (.rodata.clk_CLK_32K_RC_SEL_parents)
                  43c19952    00000008                                                      : clocks.obj (.rodata.clk_MAIN_MCANn_CLK_SEL_parents)
                  43c1995a    00000008                                                      : clocks.obj (.rodata.clk_MAIN_WWDTCLKn_SEL_out0_parents)
                  43c19962    00000008                                                      : clocks.obj (.rodata.clk_MAIN_WWDTCLKn_SEL_out1_parents)
                  43c1996a    00000008                                                      : clocks.obj (.rodata.clk_MAIN_WWDTCLKn_SEL_out2_parents)
                  43c19972    00000008                                                      : clocks.obj (.rodata.clk_MAIN_WWDTCLKn_SEL_out3_parents)
                  43c1997a    00000008                                                      : clocks.obj (.rodata.clk_MAIN_WWDTCLKn_SEL_out4_parents)
                  43c19982    00000008                                                      : clocks.obj (.rodata.clk_MCASPn_AHCLKSEL_AHCLKR_out0_parents)
                  43c1998a    00000008                                                      : clocks.obj (.rodata.clk_MCU_GPIO0_CLKSEL_parents)
                  43c19992    00000008                                                      : clocks.obj (.rodata.clk_MCU_MCANn_CLK_SEL_out0_parents)
                  43c1999a    00000008                                                      : clocks.obj (.rodata.clk_MCU_WWDTCLK_SEL_parents)
                  43c199a2    00000008                                                      : clocks.obj (.rodata.clk_WKUP_WWDTCLK_SEL_parents)
                  43c199aa    00000002     --HOLE-- [fill = 0]
                  43c199ac    00000008                                                      : rm_ra.obj (.rodata.cst8)
                  43c199b4    00000008                                                      : trace.obj (.rodata.cst8)
                  43c199bc    00000008     sciclient_direct_sbl.am62x.r5f.ti-arm-clang.release.lib : sciclient_direct.obj (.rodata.gcSciclientDirectExtBootX509MagicWord)
                  43c199c4    00000006     drivers.am62x.r5f.ti-arm-clang.release.lib : bootloader_dma.obj (.rodata.str1.157695265104412620621)
                  43c199ca    00000006     sciclient_direct_sbl.am62x.r5f.ti-arm-clang.release.lib : uart_print.obj (.rodata.str1.25744673042473138651)
                  43c199d0    00000005     main.obj (.rodata.str1.61711049162809177441)
                  43c199d5    00000005     nortos.am62x.r5f.ti-arm-clang.release.lib : printf.obj (.rodata.str1.62992066646743021711)
                  43c199da    00000004     rm_pm_hal_sbl.am62x.r5f.ti-arm-clang.release.lib : clocks.obj (.rodata.clk_MAIN_EMMCSD0_IO_CLKLB_SEL_parents)
                  43c199de    00000004                                                      : clocks.obj (.rodata.clk_MAIN_EMMCSD0_REFCLK_SEL_parents)
                  43c199e2    00000004                                                      : clocks.obj (.rodata.clk_MAIN_EMMCSD1_IO_CLKLB_SEL_parents)
                  43c199e6    00000004                                                      : clocks.obj (.rodata.clk_MAIN_EMMCSD2_IO_CLKLB_SEL_parents)
                  43c199ea    00000004                                                      : clocks.obj (.rodata.clk_MAIN_GPMC_FCLK_SEL_parents)
                  43c199ee    00000004                                                      : clocks.obj (.rodata.clk_MAIN_ICSSM_CORE_CLK_SEL_parents)
                  43c199f2    00000004                                                      : clocks.obj (.rodata.clk_MAIN_OSPI_LOOPBACK_CLK_SEL_parents)
                  43c199f6    00000004                                                      : clocks.obj (.rodata.clk_MAIN_OSPI_REF_CLK_SEL_parents)
                  43c199fa    00000004                                                      : clocks.obj (.rodata.clk_MAIN_USB0_REFCLK_SEL_parents)
                  43c199fe    00000004                                                      : clocks.obj (.rodata.clk_MAIN_spi0_mstr_lp_clksel_parents)
                  43c19a02    00000004                                                      : clocks.obj (.rodata.clk_MAIN_spi1_mstr_lp_clksel_parents)
                  43c19a06    00000004                                                      : clocks.obj (.rodata.clk_MAIN_spi2_mstr_lp_clksel_parents)
                  43c19a0a    00000004                                                      : clocks.obj (.rodata.clk_MAIN_usart0_fclk_sel_parents)
                  43c19a0e    00000004                                                      : clocks.obj (.rodata.clk_MAIN_usart1_fclk_sel_parents)
                  43c19a12    00000004                                                      : clocks.obj (.rodata.clk_MAIN_usart2_fclk_sel_parents)
                  43c19a16    00000004                                                      : clocks.obj (.rodata.clk_MAIN_usart3_fclk_sel_parents)
                  43c19a1a    00000004                                                      : clocks.obj (.rodata.clk_MAIN_usart4_fclk_sel_parents)
                  43c19a1e    00000004                                                      : clocks.obj (.rodata.clk_MAIN_usart5_fclk_sel_parents)
                  43c19a22    00000004                                                      : clocks.obj (.rodata.clk_MAIN_usart6_fclk_sel_parents)
                  43c19a26    00000004                                                      : clocks.obj (.rodata.clk_MCASPn_CLKSEL_AUXCLK_out0_parents)
                  43c19a2a    00000004                                                      : clocks.obj (.rodata.clk_MCU_M4FSS_CLKSEL_parents)
                  43c19a2e    00000004                                                      : clocks.obj (.rodata.clk_MCU_OBSCLK_OUTMUX_SEL_parents)
                  43c19a32    00000004                                                      : clocks.obj (.rodata.clk_MCU_spi0_mstr_lp_clksel_parents)
                  43c19a36    00000004                                                      : clocks.obj (.rodata.clk_MCU_spi1_mstr_lp_clksel_parents)
                  43c19a3a    00000004                                                      : clocks.obj (.rodata.clk_RTC_CLK_SEL_parents)
                  43c19a3e    00000004                                                      : clocks.obj (.rodata.clk_WKUP_CLKSEL_parents)
                  43c19a42    00000004                                                      : clocks.obj (.rodata.clk_data_CLK_32K_RC_SEL_div_in2)
                  43c19a46    00000004                                                      : clocks.obj (.rodata.clk_data_K3_DPHY_RX_main_0_ppi_rx_byte_clk)
                  43c19a4a    00000004                                                      : clocks.obj (.rodata.clk_data_MAIN_OBSCLK0_MUX_SEL_div_in9)
                  43c19a4e    00000004                                                      : clocks.obj (.rodata.clk_data_MAIN_WWDTCLKn_SEL_out0_div_in3)
                  43c19a52    00000004                                                      : clocks.obj (.rodata.clk_data_MAIN_WWDTCLKn_SEL_out1_div_in3)
                  43c19a56    00000004                                                      : clocks.obj (.rodata.clk_data_MAIN_WWDTCLKn_SEL_out2_div_in3)
                  43c19a5a    00000004                                                      : clocks.obj (.rodata.clk_data_MAIN_WWDTCLKn_SEL_out3_div_in3)
                  43c19a5e    00000004                                                      : clocks.obj (.rodata.clk_data_MAIN_WWDTCLKn_SEL_out4_div_in3)
                  43c19a62    00000004                                                      : clocks.obj (.rodata.clk_data_MCU_OBSCLK_MUX_SEL_div_in5)
                  43c19a66    00000004                                                      : clocks.obj (.rodata.clk_data_MCU_TIMERCLKn_SEL_out0_div_in7)
                  43c19a6a    00000004                                                      : clocks.obj (.rodata.clk_data_MCU_TIMERCLKn_SEL_out1_div_in7)
                  43c19a6e    00000004                                                      : clocks.obj (.rodata.clk_data_MCU_TIMERCLKn_SEL_out2_div_in7)
                  43c19a72    00000004                                                      : clocks.obj (.rodata.clk_data_MCU_TIMERCLKn_SEL_out3_div_in7)
                  43c19a76    00000004                                                      : clocks.obj (.rodata.clk_data_MCU_WWDTCLK_SEL_div_in3)
                  43c19a7a    00000004                                                      : clocks.obj (.rodata.clk_data_RTC_CLK_SEL_div_in1)
                  43c19a7e    00000004                                                      : clocks.obj (.rodata.clk_data_WKUP_TIMERCLKn_SEL_out0_div_in7)
                  43c19a82    00000004                                                      : clocks.obj (.rodata.clk_data_WKUP_TIMERCLKn_SEL_out1_div_in7)
                  43c19a86    00000004                                                      : clocks.obj (.rodata.clk_data_WKUP_WWDTCLK_SEL_div_in3)
                  43c19a8a    00000004                                                      : clocks.obj (.rodata.clk_data_board_0_AUDIO_EXT_REFCLK0_out)
                  43c19a8e    00000004                                                      : clocks.obj (.rodata.clk_data_board_0_AUDIO_EXT_REFCLK1_out)
                  43c19a92    00000004                                                      : clocks.obj (.rodata.clk_data_board_0_CP_GEMAC_CPTS0_RFT_CLK_out)
                  43c19a96    00000004                                                      : clocks.obj (.rodata.clk_data_board_0_CSI0_RXCLKN_out)
                  43c19a9a    00000004                                                      : clocks.obj (.rodata.clk_data_board_0_CSI0_RXCLKP_out)
                  43c19a9e    00000004                                                      : clocks.obj (.rodata.clk_data_board_0_DDR0_CK0_out)
                  43c19aa2    00000004                                                      : clocks.obj (.rodata.clk_data_board_0_EXT_REFCLK1_out)
                  43c19aa6    00000004                                                      : clocks.obj (.rodata.clk_data_board_0_GPMC0_CLKLB_out)
                  43c19aaa    00000004                                                      : clocks.obj (.rodata.clk_data_board_0_I2C0_SCL_out)
                  43c19aae    00000004                                                      : clocks.obj (.rodata.clk_data_board_0_I2C1_SCL_out)
                  43c19ab2    00000004                                                      : clocks.obj (.rodata.clk_data_board_0_I2C2_SCL_out)
                  43c19ab6    00000004                                                      : clocks.obj (.rodata.clk_data_board_0_I2C3_SCL_out)
                  43c19aba    00000004                                                      : clocks.obj (.rodata.clk_data_board_0_MCASP0_ACLKR_out)
                  43c19abe    00000004                                                      : clocks.obj (.rodata.clk_data_board_0_MCASP0_ACLKX_out)
                  43c19ac2    00000004                                                      : clocks.obj (.rodata.clk_data_board_0_MCASP1_ACLKR_out)
                  43c19ac6    00000004                                                      : clocks.obj (.rodata.clk_data_board_0_MCASP1_ACLKX_out)
                  43c19aca    00000004                                                      : clocks.obj (.rodata.clk_data_board_0_MCASP2_ACLKR_out)
                  43c19ace    00000004                                                      : clocks.obj (.rodata.clk_data_board_0_MCASP2_ACLKX_out)
                  43c19ad2    00000004                                                      : clocks.obj (.rodata.clk_data_board_0_MCU_EXT_REFCLK0_out)
                  43c19ad6    00000004                                                      : clocks.obj (.rodata.clk_data_board_0_MCU_I2C0_SCL_out)
                  43c19ada    00000004                                                      : clocks.obj (.rodata.clk_data_board_0_MCU_SPI0_CLK_out)
                  43c19ade    00000004                                                      : clocks.obj (.rodata.clk_data_board_0_MCU_SPI1_CLK_out)
                  43c19ae2    00000004                                                      : clocks.obj (.rodata.clk_data_board_0_MMC0_CLKLB_out)
                  43c19ae6    00000004                                                      : clocks.obj (.rodata.clk_data_board_0_MMC0_CLK_out)
                  43c19aea    00000004                                                      : clocks.obj (.rodata.clk_data_board_0_MMC1_CLKLB_out)
                  43c19aee    00000004                                                      : clocks.obj (.rodata.clk_data_board_0_MMC1_CLK_out)
                  43c19af2    00000004                                                      : clocks.obj (.rodata.clk_data_board_0_MMC2_CLKLB_out)
                  43c19af6    00000004                                                      : clocks.obj (.rodata.clk_data_board_0_MMC2_CLK_out)
                  43c19afa    00000004                                                      : clocks.obj (.rodata.clk_data_board_0_OSPI0_DQS_out)
                  43c19afe    00000004                                                      : clocks.obj (.rodata.clk_data_board_0_OSPI0_LBCLKO_out)
                  43c19b02    00000004                                                      : clocks.obj (.rodata.clk_data_board_0_RGMII1_RXC_out)
                  43c19b06    00000004                                                      : clocks.obj (.rodata.clk_data_board_0_RGMII1_TXC_out)
                  43c19b0a    00000004                                                      : clocks.obj (.rodata.clk_data_board_0_RGMII2_RXC_out)
                  43c19b0e    00000004                                                      : clocks.obj (.rodata.clk_data_board_0_RGMII2_TXC_out)
                  43c19b12    00000004                                                      : clocks.obj (.rodata.clk_data_board_0_RMII1_REF_CLK_out)
                  43c19b16    00000004                                                      : clocks.obj (.rodata.clk_data_board_0_RMII2_REF_CLK_out)
                  43c19b1a    00000004                                                      : clocks.obj (.rodata.clk_data_board_0_SPI0_CLK_out)
                  43c19b1e    00000004                                                      : clocks.obj (.rodata.clk_data_board_0_SPI1_CLK_out)
                  43c19b22    00000004                                                      : clocks.obj (.rodata.clk_data_board_0_SPI2_CLK_out)
                  43c19b26    00000004                                                      : clocks.obj (.rodata.clk_data_board_0_TCK_out)
                  43c19b2a    00000004                                                      : clocks.obj (.rodata.clk_data_board_0_VOUT0_EXTPCLKIN_out)
                  43c19b2e    00000004                                                      : clocks.obj (.rodata.clk_data_cpsw_3guss_main_0_cpts_genf0)
                  43c19b32    00000004                                                      : clocks.obj (.rodata.clk_data_cpsw_3guss_main_0_cpts_genf1)
                  43c19b36    00000004                                                      : clocks.obj (.rodata.clk_data_cpsw_3guss_main_0_mdio_mdclk_o)
                  43c19b3a    00000004                                                      : clocks.obj (.rodata.clk_data_cpsw_3guss_main_0_rgmii1_txc_o)
                  43c19b3e    00000004                                                      : clocks.obj (.rodata.clk_data_cpsw_3guss_main_0_rgmii2_txc_o)
                  43c19b42    00000004                                                      : clocks.obj (.rodata.clk_data_debugss_k3_wrap_cv0_main_0_cstpiu_traceclk)
                  43c19b46    00000004                                                      : clocks.obj (.rodata.clk_data_dmtimer_dmc1ms_main_0_timer_pwm)
                  43c19b4a    00000004                                                      : clocks.obj (.rodata.clk_data_dmtimer_dmc1ms_main_1_timer_pwm)
                  43c19b4e    00000004                                                      : clocks.obj (.rodata.clk_data_dmtimer_dmc1ms_main_2_timer_pwm)
                  43c19b52    00000004                                                      : clocks.obj (.rodata.clk_data_dmtimer_dmc1ms_main_3_timer_pwm)
                  43c19b56    00000004                                                      : clocks.obj (.rodata.clk_data_dmtimer_dmc1ms_main_4_timer_pwm)
                  43c19b5a    00000004                                                      : clocks.obj (.rodata.clk_data_dmtimer_dmc1ms_main_5_timer_pwm)
                  43c19b5e    00000004                                                      : clocks.obj (.rodata.clk_data_dmtimer_dmc1ms_main_6_timer_pwm)
                  43c19b62    00000004                                                      : clocks.obj (.rodata.clk_data_dmtimer_dmc1ms_main_7_timer_pwm)
                  43c19b66    00000004                                                      : clocks.obj (.rodata.clk_data_dmtimer_dmc1ms_mcu_0_timer_pwm)
                  43c19b6a    00000004                                                      : clocks.obj (.rodata.clk_data_dmtimer_dmc1ms_mcu_1_timer_pwm)
                  43c19b6e    00000004                                                      : clocks.obj (.rodata.clk_data_dmtimer_dmc1ms_mcu_2_timer_pwm)
                  43c19b72    00000004                                                      : clocks.obj (.rodata.clk_data_dmtimer_dmc1ms_mcu_3_timer_pwm)
                  43c19b76    00000004                                                      : clocks.obj (.rodata.clk_data_emmcsd4ss_main_0_emmcsdss_io_clk_o)
                  43c19b7a    00000004                                                      : clocks.obj (.rodata.clk_data_emmcsd4ss_main_1_emmcsdss_io_clk_o)
                  43c19b7e    00000004                                                      : clocks.obj (.rodata.clk_data_emmcsd8ss_main_0_emmcsdss_io_clk_o)
                  43c19b82    00000004                                                      : clocks.obj (.rodata.clk_data_fss_ul_main_0_ospi_0_ospi_oclk_clk)
                  43c19b86    00000004                                                      : clocks.obj (.rodata.clk_data_gpmc_main_0_po_gpmc_dev_clk)
                  43c19b8a    00000004                                                      : clocks.obj (.rodata.clk_data_k3_dss_ul_main_0_dpi_1_out_clk)
                  43c19b8e    00000004                                                      : clocks.obj (.rodata.clk_data_mcasp_main_0_mcasp_aclkr_pout)
                  43c19b92    00000004                                                      : clocks.obj (.rodata.clk_data_mcasp_main_0_mcasp_aclkx_pout)
                  43c19b96    00000004                                                      : clocks.obj (.rodata.clk_data_mcasp_main_0_mcasp_afsr_pout)
                  43c19b9a    00000004                                                      : clocks.obj (.rodata.clk_data_mcasp_main_0_mcasp_afsx_pout)
                  43c19b9e    00000004                                                      : clocks.obj (.rodata.clk_data_mcasp_main_0_mcasp_ahclkr_pout)
                  43c19ba2    00000004                                                      : clocks.obj (.rodata.clk_data_mcasp_main_0_mcasp_ahclkx_pout)
                  43c19ba6    00000004                                                      : clocks.obj (.rodata.clk_data_mcasp_main_1_mcasp_aclkr_pout)
                  43c19baa    00000004                                                      : clocks.obj (.rodata.clk_data_mcasp_main_1_mcasp_aclkx_pout)
                  43c19bae    00000004                                                      : clocks.obj (.rodata.clk_data_mcasp_main_1_mcasp_afsr_pout)
                  43c19bb2    00000004                                                      : clocks.obj (.rodata.clk_data_mcasp_main_1_mcasp_afsx_pout)
                  43c19bb6    00000004                                                      : clocks.obj (.rodata.clk_data_mcasp_main_1_mcasp_ahclkr_pout)
                  43c19bba    00000004                                                      : clocks.obj (.rodata.clk_data_mcasp_main_1_mcasp_ahclkx_pout)
                  43c19bbe    00000004                                                      : clocks.obj (.rodata.clk_data_mcasp_main_2_mcasp_aclkr_pout)
                  43c19bc2    00000004                                                      : clocks.obj (.rodata.clk_data_mcasp_main_2_mcasp_aclkx_pout)
                  43c19bc6    00000004                                                      : clocks.obj (.rodata.clk_data_mcasp_main_2_mcasp_afsr_pout)
                  43c19bca    00000004                                                      : clocks.obj (.rodata.clk_data_mcasp_main_2_mcasp_afsx_pout)
                  43c19bce    00000004                                                      : clocks.obj (.rodata.clk_data_mcasp_main_2_mcasp_ahclkr_pout)
                  43c19bd2    00000004                                                      : clocks.obj (.rodata.clk_data_mcasp_main_2_mcasp_ahclkx_pout)
                  43c19bd6    00000004                                                      : clocks.obj (.rodata.clk_data_mshsi2c_main_0_porscl)
                  43c19bda    00000004                                                      : clocks.obj (.rodata.clk_data_mshsi2c_main_1_porscl)
                  43c19bde    00000004                                                      : clocks.obj (.rodata.clk_data_mshsi2c_main_2_porscl)
                  43c19be2    00000004                                                      : clocks.obj (.rodata.clk_data_mshsi2c_main_3_porscl)
                  43c19be6    00000004                                                      : clocks.obj (.rodata.clk_data_mshsi2c_mcu_0_porscl)
                  43c19bea    00000004                                                      : clocks.obj (.rodata.clk_data_mshsi2c_wkup_0_porscl)
                  43c19bee    00000004                                                      : clocks.obj (.rodata.clk_data_pllfracf2_ssmod_16fft_main_0_postdiv)
                  43c19bf2    00000004                                                      : clocks.obj (.rodata.clk_data_pllfracf2_ssmod_16fft_main_1_postdiv)
                  43c19bf6    00000004                                                      : clocks.obj (.rodata.clk_data_pllfracf2_ssmod_16fft_main_2_postdiv)
                  43c19bfa    00000004                                                      : clocks.obj (.rodata.clk_data_sam62_a53_512kb_wrap_main_0_arm_corepack_0_a53_divh_clk4_obsclk_out_clk)
                  43c19bfe    00000004                                                      : clocks.obj (.rodata.clk_data_spi_main_0_io_clkspio_clk)
                  43c19c02    00000004                                                      : clocks.obj (.rodata.clk_data_spi_main_1_io_clkspio_clk)
                  43c19c06    00000004                                                      : clocks.obj (.rodata.clk_data_spi_main_2_io_clkspio_clk)
                  43c19c0a    00000004                                                      : clocks.obj (.rodata.clk_data_spi_mcu_0_io_clkspio_clk)
                  43c19c0e    00000004                                                      : clocks.obj (.rodata.clk_data_spi_mcu_1_io_clkspio_clk)
                  43c19c12    00000004                                                      : clocks.obj (.rodata.clk_sam62_pll_ctrl_wrap_main_0_parents)
                  43c19c16    00000004                                                      : clocks.obj (.rodata.clk_sam62_pll_ctrl_wrap_mcu_0_parents)
                  43c19c1a    00000004                                                      : resource.obj (.rodata.cst4)
                  43c19c1e    00000004                                                      : irq_cfg.obj (.rodata.evt_rt_srcs)
                  43c19c22    00000002     --HOLE-- [fill = 0]
                  43c19c24    00000004                                                      : irq_cfg.obj (.rodata.evt_rt_srcs_count)
                  43c19c28    00000004     nortos.am62x.r5f.ti-arm-clang.release.lib : CacheP_armv7r.obj (.rodata.gCacheL1dCacheLineSize)
                  43c19c2c    00000004                                               : CacheP_armv7r.obj (.rodata.gCacheL1pCacheLineSize)
                  43c19c30    00000004     rm_pm_hal_sbl.am62x.r5f.ti-arm-clang.release.lib : clocks.obj (.rodata.pllfracf2_ssmod_16fft_main_0_entries)
                  43c19c34    00000004                                                      : clocks.obj (.rodata.pllfracf2_ssmod_16fft_main_12_entries)
                  43c19c38    00000004                                                      : clocks.obj (.rodata.pllfracf2_ssmod_16fft_main_15_entries)
                  43c19c3c    00000004                                                      : clocks.obj (.rodata.pllfracf2_ssmod_16fft_main_16_entries)
                  43c19c40    00000004                                                      : clocks.obj (.rodata.pllfracf2_ssmod_16fft_main_17_entries)
                  43c19c44    00000004                                                      : clocks.obj (.rodata.pllfracf2_ssmod_16fft_main_1_entries)
                  43c19c48    00000004                                                      : clocks.obj (.rodata.pllfracf2_ssmod_16fft_main_8_entries)
                  43c19c4c    00000004                                                      : clocks.obj (.rodata.pllfracf2_ssmod_16fft_mcu_0_entries)
                  43c19c50    00000004                                                      : ra_cfg.obj (.rodata.ra_inst_count)
                  43c19c54    00000004                                                      : clocks.obj (.rodata.soc_clock_count)
                  43c19c58    00000004                                                      : devices.obj (.rodata.soc_devgroup_count)
                  43c19c5c    00000004                                                      : devices.obj (.rodata.soc_device_count)
                  43c19c60    00000004                                                      : dmsc.obj (.rodata.str1.172535575602500888051)
                  43c19c64    00000004     nortos.am62x.r5f.ti-arm-clang.release.lib : printf.obj (.rodata.str1.83442741595977738081)
                  43c19c68    00000004                                               : printf.obj (.rodata.str1.92767893489218153371)
                  43c19c6c    00000004     rm_pm_hal_sbl.am62x.r5f.ti-arm-clang.release.lib : udmap_cfg.obj (.rodata.udmap_inst_count)

.boardcfg_data 
*          0    43c19c80    00000800     
                  43c19c80    00000782     sciclient_direct_sbl.am62x.r5f.ti-arm-clang.release.lib : sciclient_boardcfg.obj (.boardcfg_data)
                  43c1a402    0000007e     --HOLE-- [fill = 0]

.bss       0    43c1e480    00002910     UNINITIALIZED
                  43c1e480    00001008     (.common:gHwiCtrl)
                  43c1f488    000005e4     rm_pm_hal_sbl.am62x.r5f.ti-arm-clang.release.lib : devices.obj (.bss.devgroup.MAIN)
                  43c1fa6c    00000428     sciclient_direct_sbl.am62x.r5f.ti-arm-clang.release.lib : sciclient.obj (.bss.gSciclient_semObjects)
                  43c1fe94    00000404     (.common:soc_clocks)
                  43c20298    00000390     (.common:soc_devices)
                  43c20628    00000280     ti_drivers_config.obj (.bss.gUartObjects)
                  43c208a8    000001a4     (.common:soc_clock_values)
                  43c20a4c    0000013c     rm_pm_hal_sbl.am62x.r5f.ti-arm-clang.release.lib : devices.obj (.bss.devgroup.MCU_WAKEUP)
                  43c20b88    000000b8                                                      : ia_cfg.obj (.bss.vint_usage_count_DMASS0_INTAGGR_0)
                  43c20c40    0000008c     (.common:bootCpuInfo)
                  43c20ccc    00000040     (.common:_freertosresetvectors)
                  43c20d0c    00000004     drivers.am62x.r5f.ti-arm-clang.release.lib : bootloader_xmodem.obj (.bss.gUartHandle)
                  43c20d10    00000038     (.common:gClockCtrl)
                  43c20d48    00000014                                                : ddr.obj (.bss.gLpddrPd)
                  43c20d5c    00000010                                                : ddr.obj (.bss.gLpddrCfg)
                  43c20d6c    00000004     nortos.am62x.r5f.ti-arm-clang.release.lib : HwiP_armv7r_vim.obj (.bss.gdummy)
                  43c20d70    00000004     rm_pm_hal_sbl.am62x.r5f.ti-arm-clang.release.lib : rm_irq.obj (.bss.oes_src_map)
                  43c20d74    00000004                                                      : psc.obj (.bss.psc_devs)
                  43c20d78    00000004                                                      : sleep.obj (.bss.sleep_modes)
                  43c20d7c    00000004                                                      : sys-reset.obj (.bss.sys_reset_handler)
                  43c20d80    00000004     (.common:bootHandle)
                  43c20d84    00000004     (.common:gUartHandle)
                  43c20d88    00000001                                                      : dmsc.obj (.bss.am62x_sleep_block)
                  43c20d89    00000001                                                      : devices.obj (.bss.devgroup.TIFS_INTERNAL)
                  43c20d8a    00000006     --HOLE--

.stack     0    43c1a480    00004000     UNINITIALIZED
                  43c1a480    00000004     nortos.am62x.r5f.ti-arm-clang.release.lib : boot_armv7r_asm.obj (.stack)
                  43c1a484    00003ffc     --HOLE--

.irqstack 
*          0    43c20d90    00001000     UNINITIALIZED
                  43c20d90    00001000     --HOLE--

.fiqstack 
*          0    43c21d90    00000100     UNINITIALIZED
                  43c21d90    00000100     --HOLE--

.svcstack 
*          0    43c21e90    00000100     UNINITIALIZED
                  43c21e90    00000100     --HOLE--

.abortstack 
*          0    43c21f90    00000100     UNINITIALIZED
                  43c21f90    00000100     --HOLE--

.undefinedstack 
*          0    43c22090    00000100     UNINITIALIZED
                  43c22090    00000100     --HOLE--

.bss.filebuf 
*          0    84000000    40000000     NOLOAD SECTION
                  84000000    40000000     main.obj (.bss.filebuf)

__llvm_prf_cnts 
*          0    43c00100    00000000     UNINITIALIZED

__llvm_prf_bits 
*          0    43c00100    00000000     UNINITIALIZED

MODULE SUMMARY

       Module                                   code    ro data   rw data   
       ------                                   ----    -------   -------   
    obj/release/
       main.obj                                 556     68        1073741979
       ti_drivers_config.obj                    84      0         8510      
       ti_dpl_config.obj                        96      0         192       
       ti_drivers_open_close.obj                120     70        88        
       ti_power_clock_config.obj                164     0         40        
       ti_pinmux_config.obj                     34      0         32        
       ti_board_config.obj                      4       0         0         
       ti_board_open_close.obj                  4       0         0         
    +--+----------------------------------------+-------+---------+------------+
       Total:                                   1062    138       1073750841
                                                                            
    /home/epswbld4/ti/ccs1250/ccs/tools/compiler/ti-cgt-armllvm_3.2.0.LTS/lib/armv7r-ti-none-eabihf/c/libc.a
       autoinit.c.obj                           88      0         0         
       memcpy32.S.obj                           28      0         0         
       memset32.S.obj                           24      0         0         
       exit.c.obj                               8       0         0         
    +--+----------------------------------------+-------+---------+------------+
       Total:                                   148     0         0         
                                                                            
    /home/epswbld4/ti/ccs1250/ccs/tools/compiler/ti-cgt-armllvm_3.2.0.LTS/lib/clang/15.0.7/lib/armv7r-ti-none-eabihf/libclang_rt.builtins.a
       udivmoddi4.S.obj                         280     0         0         
       ashldi3.S.obj                            40      0         0         
       lshrdi3.S.obj                            40      0         0         
       aeabi_uldivmod.S.obj                     36      0         0         
       aeabi_memset.S.obj                       28      0         0         
       aeabi_memcpy.S.obj                       12      0         0         
       aeabi_div0.c.obj                         4       0         0         
    +--+----------------------------------------+-------+---------+------------+
       Total:                                   440     0         0         
                                                                            
    /nightlybuilds/mcupsdk_internal/jenkins/mcu_plus_sdk_am62x_09_01_00_39/source/drivers/device_manager/rm_pm_hal/sbl/lib/rm_pm_hal_sbl.am62x.r5f.ti-arm-clang.release.lib
       devices.obj                              0       6928      2737      
       clocks.obj                               0       7636      1448      
       rm_udmap.obj                             6458    156       0         
       psc.obj                                  4384    32        4         
       clk_pll_16fft.obj                        3550    290       0         
       boardcfg-user.obj                        346     0         2812      
       rm_ra.obj                                2768    20        0         
       pll.obj                                  2602    0         0         
       device_clk.obj                           2294    0         0         
       clk_div.obj                              1842    108       0         
       rm_irq.obj                               1750    0         4         
       rm_ia.obj                                1628    0         0         
       clk.obj                                  1620    0         0         
       rm_core.obj                              974     0         493       
       device_psc.obj                           1330    0         0         
       clock.obj                                1224    0         0         
       rm_ir.obj                                1020    0         0         
       udmap_cfg.obj                            0       446       264       
       device_process.obj                       624     0         0         
       device.obj                               596     0         8         
       clk_mux.obj                              554     32        0         
       ra_cfg.obj                               0       252       312       
       ia_cfg.obj                               0       160       284       
       device_pm.obj                            306     0         8         
       host_idx_mapping.obj                     0       255       0         
       map.obj                                  250     0         0         
       device_prepare.obj                       208     0         0         
       init.obj                                 180     12        0         
       div64.obj                                182     0         0         
       ir_cfg.obj                               0       64        112       
       mmr_lock.obj                             160     0         0         
       clk_dev.obj                              124     24        0         
       dmsc.obj                                 114     20        1         
       clk_pllctrl.obj                          102     32        0         
       resource.obj                             130     4         0         
       trace.obj                                80      8         16        
       clk_soc_hfosc0.obj                       40      48        0         
       itoa.obj                                 88      0         0         
       clk_fixed.obj                            52      24        0         
       fw_caps.obj                              44      32        0         
       ia_pe_conf.obj                           0       54        0         
       trace-uart.obj                           48      5         0         
       clk_soc_lfosc0.obj                       28      24        0         
       rm.obj                                   52      0         0         
       irq_cfg.obj                              0       38        0         
       sys-reset.obj                            32      0         4         
       osal_glue.obj                            34      0         0         
       sleep.obj                                28      0         4         
       core.obj                                 30      0         0         
       notifier.obj                             28      0         0         
       ioremap.obj                              2       0         0         
    +--+----------------------------------------+-------+---------+------------+
       Total:                                   37906   16704     8511      
                                                                            
    /nightlybuilds/mcupsdk_internal/jenkins/mcu_plus_sdk_am62x_09_01_00_39/source/drivers/device_manager/sciclient_direct/sbl/lib/sciclient_direct_sbl.am62x.r5f.ti-arm-clang.release.lib
       sciclient.obj                            2122    0         1232      
       sciclient_boardcfg.obj                   340     1960      0         
       sciclient_pm.obj                         1452    0         0         
       sciclient_direct.obj                     1440    8         0         
       uart_print.obj                           524     30        0         
       sciclient_procboot.obj                   534     0         0         
       sciclient_direct_wrapper.obj             164     71        96        
       sciclient_secureproxy.obj                292     0         0         
       sciclient_secureProxyCfg.obj             0       0         36        
    +--+----------------------------------------+-------+---------+------------+
       Total:                                   6868    2069      1364      
                                                                            
    /nightlybuilds/mcupsdk_internal/jenkins/mcu_plus_sdk_am62x_09_01_00_39/source/drivers/lib/drivers.am62x.r5f.ti-arm-clang.release.lib
       uart_v0.obj                              4350    273       156       
       bootloader_soc.obj                       1972    1020      388       
       bootloader.obj                           1974    367       0         
       ddr.obj                                  1102    418       36        
       xmodem.obj                               1014    0         0         
       lpddr4_am6x.obj                          614     306       0         
       bootloader_dma.obj                       526     127       0         
       ddr_soc.obj                              564     0         0         
       soc.obj                                  564     0         0         
       crc16.obj                                44      512       0         
       lpddr4.obj                               494     0         0         
       uart_dma.obj                             280     75        0         
       bootloader_xmodem.obj                    224     0         4         
       sciclient_fmwSecureProxyMap.obj          0       220       0         
       udma_ring_common.obj                     188     0         0         
       pinmux.obj                               144     0         0         
       csl_emif.obj                             136     0         0         
       bootloader_mem.obj                       104     0         24        
       utils.obj                                98      0         0         
       udma_ch.obj                              80      0         0         
       gtc_soc.obj                              50      0         0         
       gtc.obj                                  18      0         0         
       csl_sec_proxy.obj                        10      0         0         
       udma_utils.obj                           4       0         0         
    +--+----------------------------------------+-------+---------+------------+
       Total:                                   14554   3318      608       
                                                                            
    /nightlybuilds/mcupsdk_internal/jenkins/mcu_plus_sdk_am62x_09_01_00_39/source/kernel/nortos/lib/nortos.am62x.r5f.ti-arm-clang.release.lib
       HwiP_armv7r_vim.obj                      1032    0         4108      
       printf.obj                               4002    98        0         
       ClockP_nortos.obj                        718     90        56        
       CacheP_armv7r_asm.obj                    848     0         0         
       TimerP.obj                               526     270       0         
       HwiP_armv7r_handlers_nortos.obj          544     0         0         
       MpuP_armv7r.obj                          440     0         0         
       ClockP_nortos_r5.obj                     260     176       0         
       SemaphoreP_nortos.obj                    328     107       0         
       boot_armv7r_asm.obj                      252     0         0         
       CacheP_armv7r.obj                        216     8         0         
       DebugP_log.obj                           154     42        4         
       HwiP_armv7r_asm.obj                      160     0         0         
       MpuP_armv7r_asm.obj                      136     0         0         
       HwiP_armv7r_handlers_nortos_asm.obj      120     0         0         
       AddrTranslateP.obj                       104     0         12        
       DebugP_uartLogWriter.obj                 70      0         4         
       HwiP_armv7r_vectors_nortos_asm.obj       64      0         0         
       HwiP_armv7r_vectors_nortos_sbl_asm.obj   64      0         0         
       DebugP_nortos.obj                        56      0         0         
       boot_armv7r.obj                          28      0         0         
       TaskP_nortos.obj                         2       0         0         
    +--+----------------------------------------+-------+---------+------------+
       Total:                                   10124   791       4184      
                                                                            
       Stack:                                   0       0         16384     
    +--+----------------------------------------+-------+---------+------------+
       Grand Total:                             71102   23020     1073781892

VENEERS

callee name               veneer name
   callee addr  veneer addr  call addr  call info
--------------  -----------  ---------  ----------------
HwiP_disable              $Ven$TA$L$PI$$HwiP_disable
   43c12590     43c107a0     43c105d0   ti_dpl_config.obj (.text.Dpl_deinit)
HwiP_enable               $Ven$TA$L$PI$$HwiP_enable
   43c125b0     43c107a8     43c0e942   ti_dpl_config.obj (.text.Dpl_init)
HwiP_restore              $Ven$TA$L$PI$$HwiP_restore
   43c125d0     43c107b0     43c0d880   rm_pm_hal_sbl.am62x.r5f.ti-arm-clang.release.lib : mmr_lock.obj (.text.mmr_unlock_all)
                             43c0e902   nortos.am62x.r5f.ti-arm-clang.release.lib : ClockP_nortos.obj (.text.ClockP_stop)
                             43c0ee50                                             : ClockP_nortos.obj (.text.ClockP_destruct)
                             43c0f15c                                             : ClockP_nortos.obj (.text.ClockP_start)
                             43c0f3c6                                             : SemaphoreP_nortos.obj (.text.SemaphoreP_post)
__aeabi_memcpy            $Ven$TA$L$PI$$__aeabi_memcpy
   43c1076c     43c107b8     43c0d09e   drivers.am62x.r5f.ti-arm-clang.release.lib : utils.obj (.text.Utils_memcpyWord)
HwiP_enableFIQ            $Ven$TA$L$PI$$HwiP_enableFIQ
   43c125c0     43c12600     43c122e2   nortos.am62x.r5f.ti-arm-clang.release.lib : HwiP_armv7r_vim.obj (.text.hwi)
CacheP_invL1d             $Ven$TA$L$PI$$CacheP_invL1d
   43c12678     43c12a20     43c12a1c   nortos.am62x.r5f.ti-arm-clang.release.lib : CacheP_armv7r.obj (.text.cache)
CacheP_enableL1p          $Ven$TA$L$PI$$CacheP_enableL1p
   43c12660     43c12a28     43c129f6   nortos.am62x.r5f.ti-arm-clang.release.lib : CacheP_armv7r.obj (.text.cache)
HwiP_restore              $Ven$TA$L$PI$$HwiP_restore
   43c125d0     43c12a30     43c129d6   nortos.am62x.r5f.ti-arm-clang.release.lib : CacheP_armv7r.obj (.text.cache)
MpuP_setRegionAsm         $Ven$TA$L$PI$$MpuP_setRegionAsm
   43c12c54     43c12c68     43c12b6e   nortos.am62x.r5f.ti-arm-clang.release.lib : MpuP_armv7r.obj (.text.mpu)
HwiP_restore              $Ven$TA$L$PI$$HwiP_restore
   43c125d0     43c12c70     43c12b24   nortos.am62x.r5f.ti-arm-clang.release.lib : MpuP_armv7r.obj (.text.mpu)
                             43c12b64                                             : MpuP_armv7r.obj (.text.mpu)
MpuP_isEnableAsm          $Ven$TA$L$PI$$MpuP_isEnableAsm
   43c12c40     43c12c78     43c12af4   nortos.am62x.r5f.ti-arm-clang.release.lib : MpuP_armv7r.obj (.text.mpu)

[11 trampolines]
[16 trampoline calls]


GLOBAL SYMBOLS: SORTED ALPHABETICALLY BY Name 

address   name                                 
-------   ----                                 
43c0c91f  AddrTranslateP_getLocalAddr          
43c08fcd  App_loadImages                       
43c0dfb1  App_runCpus                          
43c01ebb  Board_deinit                         
43c03155  Board_driversOpen                    
43c03c73  Board_init                           
43c0f0f9  Bootloader_BootImageInfo_init        
43c10147  Bootloader_JumpSelfCpu               
43c105f1  Bootloader_Params_init               
43c104f9  Bootloader_close                     
43c087b7  Bootloader_dmaCopy                   
43c0dfff  Bootloader_findSeq                   
43c0b033  Bootloader_getMsgLen                 
43c10509  Bootloader_isCorePresent             
43c0dcdf  Bootloader_loadCpu                   
43c0b1f1  Bootloader_loadSelfCpu               
43c0ede1  Bootloader_open                      
43c06eb9  Bootloader_parseMultiCoreAppImage    
43c07c73  Bootloader_rprcImageLoad             
43c0dd2f  Bootloader_rprcImageParseEntryPoint  
43c0d225  Bootloader_runCpu                    
43c102e5  Bootloader_socAuthImage              
43c10163  Bootloader_socCpuGetClkDefault       
43c0cbf7  Bootloader_socCpuGetClock            
43c0fb15  Bootloader_socCpuPowerOnReset        
43c0c4d5  Bootloader_socCpuPowerOnResetA53     
43c07b5d  Bootloader_socCpuPowerOnResetHSMM4f  
43c07d85  Bootloader_socCpuPowerOnResetM4f     
43c0c987  Bootloader_socCpuRelease             
43c0cb91  Bootloader_socCpuRequest             
43c05f91  Bootloader_socCpuResetRelease        
43c0be25  Bootloader_socCpuSetClock            
43c105b9  Bootloader_socCpuSetEntryPoint       
43c0ff6f  Bootloader_socGetCoreName            
43c10651  Bootloader_socGetSBLMem              
43c1017f  Bootloader_socIsAuthRequired         
43c0f5a9  Bootloader_socIsMCUResetIsoEnabled   
43c1065b  Bootloader_socIsSmpEnable            
43c0cc5b  Bootloader_socMemInitCpu             
43c0f8bb  Bootloader_socRprcToCslCoreId        
43c105fd  Bootloader_socSelfCPUjump            
43c0ec01  Bootloader_socTranslateSectionAddr   
43c1073b  Bootloader_socWaitForFWBoot          
43c043d1  Bootloader_verifyMulticoreImage      
43c0f335  Bootloader_xmodemReceive             
43c0f367  Bootloader_xmodemTransmit            
43c1072c  C$$EXIT                              
43c1073f  CPS_UncachedRead32                   
43c10743  CPS_UncachedWrite32                  
43c104b1  CSL_emifClearECCInterruptStatus      
43c0ccbf  CSL_emifConfig                       
43c104c3  CSL_emifEnableECCInterrupts          
43c10665  CSL_secProxyGetDataAddr              
43c12918  CacheP_configForceWrThru             
43c129a1  CacheP_disable                       
43c12608  CacheP_disableL1d                    
43c12630  CacheP_disableL1p                    
43c129db  CacheP_enable                        
43c12648  CacheP_enableL1d                     
43c12660  CacheP_enableL1p                     
43c1290c  CacheP_getCacheLevelInfo             
43c128d4  CacheP_getEnabled                    
43c12949  CacheP_init                          
43c129fb  CacheP_inv                           
43c12678  CacheP_invL1d                        
43c126ec  CacheP_invL1dAll                     
43c126b0  CacheP_invL1p                        
43c126f4  CacheP_invL1pAll                     
43c12938  CacheP_setDLFO                       
43c126fc  CacheP_wb                            
43c12774  CacheP_wbAll                         
43c12738  CacheP_wbInv                         
43c1281c  CacheP_wbInvAll                      
43c12834  CacheP_wbInvAllAsm                   
43c1066f  ClockP_Params_init                   
43c0ddcf  ClockP_construct                     
43c0fe3d  ClockP_deinit                        
43c0ee1b  ClockP_destruct                      
43c10609  ClockP_getTicks                      
43c0e549  ClockP_getTimeUsec                   
43c10747  ClockP_getTimerCount                 
43c084d1  ClockP_init                          
43c10679  ClockP_isActive                      
43c0fb3b  ClockP_sleep                         
43c0f12d  ClockP_start                         
43c0e8c7  ClockP_stop                          
43c10519  ClockP_ticksToUsec                   
43c1074b  ClockP_timerClearOverflowInt         
43c0d283  ClockP_timerTickIsr                  
43c0ec3d  ClockP_usleep                        
43c14090  DDRSS_ctlReg                         
43c15086  DDRSS_ctlRegNum                      
43c1472c  DDRSS_phyIndepReg                    
43c153d4  DDRSS_phyIndepRegNum                 
43c138a4  DDRSS_phyReg                         
43c14c90  DDRSS_phyRegNum                      
43c0fe5f  DDR_ResetDDR_PLL                     
43c022f9  DDR_init                             
43c0c5b9  DDR_programHSDIV                     
43c0613f  DDR_programPLL                       
43c0461b  DDR_socEnableVttRegulator            
43c0ff8f  DebugP_logZoneEnable                 
43c0ee55  DebugP_uartLogWriterPutChar          
43c10615  DebugP_uartSetDrvIndex               
43c105c7  Dpl_deinit                           
43c0e907  Dpl_init                             
43c100b1  Drivers_close                        
43c1074f  Drivers_open                         
43c0d995  Drivers_uartOpen                     
43c105d5  GTC_enable                           
43c104d5  GTC_init                             
43c0fc1f  GTC_setFID                           
43c11fe9  HwiP_Params_init                     
43c11fa1  HwiP_clearInt                        
43c11ffb  HwiP_construct                       
43c124eb  HwiP_data_abort_handler              
43c12145  HwiP_destruct                        
43c12590  HwiP_disable                         
43c125a0  HwiP_disableFIQ                      
43c11f19  HwiP_disableInt                      
43c125e8  HwiP_disableVIC                      
43c125b0  HwiP_enable                          
43c125c0  HwiP_enableFIQ                       
43c11ef1  HwiP_enableInt                       
43c125d8  HwiP_enableVIC                       
43c1237f  HwiP_fiq_handler                     
43c125f8  HwiP_getCPSR                         
43c122e7  HwiP_inISR                           
43c12217  HwiP_init                            
43c12518  HwiP_irq_handler                     
43c122f9  HwiP_irq_handler_c                   
43c11fc1  HwiP_post                            
43c124bd  HwiP_prefetch_abort_handler          
43c12433  HwiP_reserved_handler                
43c125d0  HwiP_restore                         
43c11f4b  HwiP_restoreInt                      
43c1248f  HwiP_svc_handler                     
43c12461  HwiP_undefined_handler               
43c07e97  LPDDR4_AckCtlInterrupt               
43c075c7  LPDDR4_CheckCtlInterrupt             
43c0f161  LPDDR4_EnablePIInitiator             
43c102fd  LPDDR4_Init                          
43c0f195  LPDDR4_PollCtlIrq                    
43c10529  LPDDR4_Probe                         
43c0e04d  LPDDR4_ReadReg                       
43c0c627  LPDDR4_Start                         
43c0e947  LPDDR4_WriteCtlConfig                
43c0e58f  LPDDR4_WritePhyConfig                
43c0e429  LPDDR4_WritePhyIndepConfig           
43c0f51f  Module_clockDisable                  
43c0f54d  Module_clockEnable                   
43c0f08d  Module_clockSetFrequency             
43c12a39  MpuP_RegionAttrs_init                
43c12af9  MpuP_disable                         
43c12bf0  MpuP_disableAsm                      
43c12c08  MpuP_disableBRAsm                    
43c12b2b  MpuP_enable                          
43c12c18  MpuP_enableAsm                       
43c12c30  MpuP_enableBRAsm                     
43c12b73  MpuP_init                            
43c12af5  MpuP_isEnable                        
43c12c40  MpuP_isEnableAsm                     
43c12b69  MpuP_resetRegion                     
43c12a47  MpuP_setRegion                       
43c12c54  MpuP_setRegionAsm                    
43c0e5d5  Pinmux_config                        
43c0fe81  Pinmux_init                          
43c0e395  Pinmux_unlockMMR                     
43c1075b  PowerClock_deinit                    
43c105e3  PowerClock_init                      
43c0f83d  SOC_controlModuleLockMMR             
43c0e3df  SOC_controlModuleUnlockMMR           
43c0c695  SOC_moduleClockEnable                
43c106dd  SOC_moduleGetClockFrequency          
43c06999  SOC_moduleSetClockFrequency          
43c06c2d  Sciclient_ProcessPmMessage           
43c083d1  Sciclient_ProcessRmMessage           
43c0de1f  Sciclient_abiCheck                   
43c09dad  Sciclient_boardCfgParseHeader        
43c0b911  Sciclient_boardCfgPm                 
43c0b995  Sciclient_boardCfgRm                 
43c0c549  Sciclient_configPrmsInit             
43c0e0e9  Sciclient_deinit                     
43c0d0a5  Sciclient_direct_init                
43c0f5d5  Sciclient_flush                      
43c0de71  Sciclient_getCurrentContext          
43c0e135  Sciclient_getDefaultBoardCfgInfo     
43c05a51  Sciclient_init                       
43c0ba19  Sciclient_pmGetModuleClkFreq         
43c0b805  Sciclient_pmGetModuleClkNumParent    
43c0b88b  Sciclient_pmGetModuleClkParent       
43c0bb21  Sciclient_pmGetModuleState           
43c0bea3  Sciclient_pmModuleClkRequest         
43c0ba9d  Sciclient_pmModuleGetClkStatus       
43c09abd  Sciclient_pmQueryModuleClkFreq       
43c0a6c9  Sciclient_pmSetModuleClkFreq         
43c0bf21  Sciclient_pmSetModuleClkParent       
43c0da41  Sciclient_pmSetModuleRst             
43c0d105  Sciclient_pmSetModuleState           
43c0d2e1  Sciclient_procBootAuthAndStart       
43c0d67b  Sciclient_procBootGetProcessorState  
43c0d33f  Sciclient_procBootReleaseProcessor   
43c0da95  Sciclient_procBootRequestProcessor   
43c0e181  Sciclient_procBootSetProcessorCfg    
43c0cd23  Sciclient_procBootSetSequenceCtrl    
43c0ffaf  Sciclient_query_fw_caps_handler      
43c101b9  Sciclient_readThread32               
43c103e9  Sciclient_readThreadCount            
43c0bc25  Sciclient_sendMessage                
43c0587d  Sciclient_service                    
43c0af05  Sciclient_serviceGetThreadIds        
43c0c289  Sciclient_servicePrepareHeader       
43c02e39  Sciclient_serviceSecureProxy         
43c0cf7d  Sciclient_setDebugConfig             
43c10539  Sciclient_threadStatusReg            
43c103fd  Sciclient_verifyThread               
43c0e735  Sciclient_waitForBootNotification    
43c0fc45  Sciclient_waitThread                 
43c0e987  SemaphoreP_constructBinary           
43c0eb09  SemaphoreP_constructMutex            
43c052af  SemaphoreP_destruct                  
43c0af9d  SemaphoreP_pend                      
43c0f399  SemaphoreP_post                      
43c0ffcf  System_deinit                        
43c0f1c9  System_init                          
43c10260  TI_memcpy_small                      
43c1038c  TI_memset_small                      
43c0684b  TaskP_yield                          
43c0ffef  TimerP_Params_init                   
43c104e7  TimerP_clearOverflowInt              
43c1075f  TimerP_getCount                      
43c10763  TimerP_getReloadCount                
43c05c21  TimerP_setup                         
43c10683  TimerP_start                         
43c1068d  TimerP_stop                          
43c06d73  UART_close                           
43c1027d  UART_deinit                          
43c0dae9  UART_dmaClose                        
43c0d9eb  UART_dmaDisableChannel               
43c0ee8f  UART_dmaOpen                         
43c09f1d  UART_flushTxFifo                     
43c0f3cb  UART_getHandle                       
43c0b0c7  UART_init                            
43c019c9  UART_open                            
43c0684d  UART_printf                          
43c039e3  UART_read                            
43c10297  UART_readInterruptDma                
43c050b1  UART_write                           
43c102b1  UART_writeInterruptDma               
43c0f933  Udma_chGetCqRingHandle               
43c0f95b  Udma_chGetFqRingHandle               
43c10767  Udma_defaultVirtToPhyFxn             
43c0d621  Udma_ringDequeueRaw                  
43c0cfdf  Udma_ringQueueRaw                    
43c0d041  Utils_memcpyWord                     
43c0d39b  _DebugP_assert                       
43c12d7d  _DebugP_assertNoLog                  
43c0ef03  _DebugP_logZone                      
43c22090  __ABORT_STACK_END                    
00000100  __ABORT_STACK_SIZE                   
43c21f90  __ABORT_STACK_START                  
43c20d90  __BSS_END                            
43c1e480  __BSS_START                          
43c21e90  __FIQ_STACK_END                      
00000100  __FIQ_STACK_SIZE                     
43c21d90  __FIQ_STACK_START                    
43c21d90  __IRQ_STACK_END                      
00001000  __IRQ_STACK_SIZE                     
43c20d90  __IRQ_STACK_START                    
43c1e480  __STACK_END                          
00004000  __STACK_SIZE                         
43c21f90  __SVC_STACK_END                      
00000100  __SVC_STACK_SIZE                     
43c21e90  __SVC_STACK_START                    
00000000  __TI_ATRegion0_region_sz             
00000000  __TI_ATRegion0_src_addr              
00000000  __TI_ATRegion0_trg_addr              
00000000  __TI_ATRegion1_region_sz             
00000000  __TI_ATRegion1_src_addr              
00000000  __TI_ATRegion1_trg_addr              
00000000  __TI_ATRegion2_region_sz             
00000000  __TI_ATRegion2_src_addr              
00000000  __TI_ATRegion2_trg_addr              
UNDEFED   __TI_CINIT_Base                      
UNDEFED   __TI_CINIT_Limit                     
UNDEFED   __TI_Handler_Table_Base              
UNDEFED   __TI_Handler_Table_Limit             
43c0d93c  __TI_auto_init_nobinit_nopinit       
ffffffff  __TI_pprof_out_hndl                  
ffffffff  __TI_prof_data_size                  
ffffffff  __TI_prof_data_start                 
43c00000  __TI_static_base__                   
43c22190  __UNDEFINED_STACK_END                
00000100  __UNDEFINED_STACK_SIZE               
43c22090  __UNDEFINED_STACK_START              
43c10770  __aeabi_ldiv0                        
43c0f984  __aeabi_llsl                         
43c0f9ac  __aeabi_llsr                         
43c10620  __aeabi_memclr                       
43c10620  __aeabi_memclr4                      
43c10620  __aeabi_memclr8                      
43c1076c  __aeabi_memcpy                       
43c1076c  __aeabi_memcpy4                      
43c1076c  __aeabi_memcpy8                      
43c10558  __aeabi_memset                       
43c10558  __aeabi_memset4                      
43c10558  __aeabi_memset8                      
43c0fc68  __aeabi_uldivmod                     
43c0f984  __ashldi3                            
ffffffff  __binit__                            
43c0f9ac  __lshrdi3                            
43c12d9b  __mpu_init                           
43c1a480  __stack                              
43c00100  __start___llvm_prf_bits              
43c00100  __start___llvm_prf_cnts              
43c00100  __stop___llvm_prf_bits               
43c00100  __stop___llvm_prf_cnts               
43c07a44  __udivmoddi4                         
43c12ca4  _c_int00                             
43c12c80  _c_int00_sbl                         
43c20ccc  _freertosresetvectors                
43c0e61b  _inbyte                              
43c0f0c3  _outbyte                             
UNDEFED   _system_post_cinit                   
43c101d5  _system_pre_init                     
43c00000  _vectors                             
43c00040  _vectors_sbl                         
43c1072c  abort                                
ffffffff  binit                                
43c0fc8d  boardcfg_get_rm_devgrp               
43c10411  boardcfg_get_rm_resasg               
43c10315  boardcfg_get_rm_resasg_size          
43c0f601  boardcfg_memcpy_rm                   
43c0eec9  boardcfg_pm_receive_and_validate     
43c0a96d  boardcfg_rm_receive_and_validate     
43c20c40  bootCpuInfo                          
43c20d80  bootHandle                           
43c103a5  clk_div_get_freq                     
43c0db3d  clk_div_init                         
43c088a9  clk_div_notify_freq                  
43c0cd89  clk_div_reg_get_div                  
43c0d3f9  clk_div_reg_go_get_div               
43c0a1f9  clk_div_reg_go_set_div               
43c0bca5  clk_div_reg_set_div                  
43c03c75  clk_div_set_freq                     
43c09575  clk_div_set_freq_static_parent       
43c0ef3d  clk_drop_pwr_up_en                   
43c1869c  clk_drv_div_fixed                    
43c186c0  clk_drv_div_pll_16fft_hsdiv          
43c186e4  clk_drv_div_pll_16fft_postdiv        
43c18708  clk_drv_div_reg                      
43c1872c  clk_drv_div_reg_go                   
43c18b68  clk_drv_fixed                        
43c18b80  clk_drv_from_device                  
43c18884  clk_drv_mux_reg                      
43c18b98  clk_drv_pll_16fft                    
43c188a4  clk_drv_pllctrl_mux_reg_ro           
43c18bb0  clk_drv_soc_hfosc0                   
43c18bc8  clk_drv_soc_lfosc0                   
43c106ed  clk_freq_change_allow                
43c106f5  clk_freq_change_block                
43c0ad2f  clk_generic_set_freq_parent          
43c0c3ed  clk_get                              
43c0f62d  clk_get_div                          
43c0f461  clk_get_freq                         
43c0e9c9  clk_get_parent                       
43c0f491  clk_get_parent_freq                  
43c0e7bd  clk_get_state                        
43c06ae5  clk_init                             
43c10697  clk_notify_children_freq             
43c0d165  clk_notify_freq                      
43c0bfa1  clk_notify_sibling_freq              
43c0e4b9  clk_put                              
43c08c51  clk_set_freq                         
43c097bd  clk_set_parent                       
43c0f231  clk_set_state                        
43c0fea3  clk_ssc_allow                        
43c10031  clk_ssc_block                        
43c0f9d5  clk_value_get_freq                   
43c0efad  clk_value_set_freq                   
43c0f761  crc16_ccitt                          
43c1035d  dev_get_clk                          
43c0e843  device_clk_disable                   
43c0e885  device_clk_enable                    
43c0efe5  device_clk_get_freq                  
43c10439  device_clk_get_freq_change           
43c0d4b1  device_clk_get_hw_ready              
43c10789  device_clk_get_hw_ssc                
43c1044d  device_clk_get_input_term            
43c0eb47  device_clk_get_num_parents           
43c082cd  device_clk_get_parent                
43c10461  device_clk_get_ssc                   
43c10475  device_clk_get_sw_gated              
43c0c771  device_clk_init                      
43c10569  device_clk_query_freq                
43c103d1  device_clk_set_freq                  
43c0d6d5  device_clk_set_freq_change           
43c08d31  device_clk_set_gated                 
43c0fec5  device_clk_set_input_term            
43c09639  device_clk_set_parent                
43c0d72d  device_clk_set_ssc                   
43c0ec79  device_disable                       
43c0fcf9  device_prepare_exclusive             
43c1062d  device_prepare_nonexclusive          
43c100cf  device_resource_mem                  
43c0f3fd  device_set_retention                 
43c0b281  device_set_state                     
43c0fd1d  device_suspend                       
43c04eb1  devices_init                         
43c0f265  devices_init_rw                      
43c0fd41  dmsc_init                            
43c19c1e  evt_rt_srcs                          
43c19c24  evt_rt_srcs_count                    
43c160a8  gAddrTranslateConfig                 
43c15a9c  gAddrTranslateInfo                   
84000000  gAppImageBuf                         
43c16074  gBootloader0Args                     
43c15f38  gBootloaderConfig                    
43c15efc  gBootloaderConfigNum                 
43c15fd8  gBootloaderMemFxns                   
43c15f58  gBootloaderUdmaArgs                  
43c160dc  gCacheConfig                         
43c19c28  gCacheL1dCacheLineSize               
43c19c2c  gCacheL1pCacheLineSize               
43c15ff0  gClockConfig                         
43c20d10  gClockCtrl                           
43c15b60  gCoreBootInfo                        
43c160a4  gDebugLogZone                        
43c160fc  gDebugP_uartDrvIndex                 
43c16100  gEndOfFilesTransferWord              
43c16104  gHwiConfig                           
43c1e480  gHwiCtrl                             
43c16084  gMemBootloaderArgs                   
43c15f78  gMemBootloaderConfig                 
43c160b4  gMpuConfig                           
43c15ca4  gMpuRegionConfig                     
43c16050  gResMemSection                       
43c17e20  gSOC_r5fVectors                      
43c15da8  gSciclientHandle                     
43c17a78  gSciclientMap                        
43c15f98  gSciclientRomSecProxyCfg             
43c19c80  gSciclient_boardCfgLow               
43c1a400  gSciclient_boardCfgLow_pm            
43c19d00  gSciclient_boardCfgLow_rm            
43c1a280  gSciclient_boardCfgLow_sec           
43c15fb8  gSciclient_secProxyCfg               
43c16094  gSocModules                          
43c16020  gSocModulesClockFrequency            
43c160c0  gUartConfig                          
43c16108  gUartConfigNum                       
43c12da8  gUartDmaConfig                       
43c1610c  gUartDmaConfigNum                    
43c20d84  gUartHandle                          
43c15e60  gUartParams                          
43c199bc  gcSciclientDirectExtBootX509MagicWord
43c0987d  get_clock_handler                    
43c0c099  get_clock_parent_handler             
43c0c7dd  get_dev_clk                          
43c0e501  get_dev_clk_data                     
43c0aab1  get_device_handler                   
43c0d50d  get_freq_handler                     
43c0c115  get_num_clock_parents_handler        
43c15e04  ia_inst                              
43c17ff2  ia_soc_pe_init_list                  
43c076e7  ioremap_internal                     
43c15d34  ir_inst                              
43c18984  irq_global_event_types               
43c0d7dd  lib_itoa                             
43c106fd  lpsc_module_get                      
43c0db91  lpsc_module_get_local_reset          
43c10705  lpsc_module_get_module_reset         
43c0e219  lpsc_module_get_reset_iso            
43c0f7e5  lpsc_module_get_state                
43c0f9fd  lpsc_module_idx                      
43c1070d  lpsc_module_put                      
43c10715  lpsc_module_ret_get                  
43c1071d  lpsc_module_ret_put                  
43c0b3a1  lpsc_module_set_local_reset          
43c0b77d  lpsc_module_set_module_reset         
43c0c849  lpsc_module_set_reset_iso            
43c08e11  lpsc_module_wait                     
43c07fa9  main                                 
43c0a08d  map_add                              
43c07927  mmr_lock_all                         
43c0ed2d  mmr_unlock                           
43c0d835  mmr_unlock_all                       
43c1020d  notifier_call                        
43c16110  operatingMode                        
43c0ff09  osal_delay                           
43c16114  pSciclient_secProxyCfg               
43c00101  pll_calc                             
43c0d88d  pll_init                             
43c10589  pm_devgroup_is_enabled               
43c10599  pm_devgroup_set_enabled              
43c0a143  pm_div64                             
43c0a2ad  pm_init                              
43c0c301  psc_drop_pwr_up_ref                  
43c195b0  psc_drv                              
43c0f299  psc_lookup                           
43c0ea09  psc_lookup_lpsc                      
43c0f2cd  psc_lookup_pd                        
43c08995  psc_pd_get                           
43c0fd65  psc_pd_idx                           
43c09241  psc_pd_put                           
43c0b665  psc_pd_wait                          
43c10791  putchar_                             
43c09fd5  query_freq_handler                   
43c0f811  query_fw_caps_handler                
43c15874  ra_inst                              
43c19c50  ra_inst_count                        
43c15688  resasg_indexer                       
43c080b5  rm_core_get_resource_range           
43c0ab51  rm_core_init                         
43c105a9  rm_core_map_region                   
43c10725  rm_core_param_is_valid               
43c0cf19  rm_core_resasg_get_utype_index       
43c09b79  rm_core_resasg_validate_resource     
43c10489  rm_core_unmap_region                 
43c0cac1  rm_core_validate_devgrp              
43c094ad  rm_ia_init                           
43c0ea49  rm_ia_is_managed_resasg_utype        
43c0fa4d  rm_ia_validate_vint                  
43c0fd89  rm_ia_vint_get_info                  
43c081c1  rm_ia_vint_map                       
43c086c5  rm_ia_vint_unmap                     
43c0f301  rm_init                              
43c0ae69  rm_ir_clear                          
43c065a1  rm_ir_configure                      
43c0cb29  rm_ir_get_outp                       
43c0f01d  rm_ir_init                           
43c0fa75  rm_ir_is_managed_resasg_utype        
43c0fa9d  rm_ir_validate_output                
43c0fdad  rm_irq_init                          
43c0f055  rm_irq_is_managed_resasg_utype       
43c0dbe5  rm_irq_oes_src_register              
43c04865  rm_irq_release                       
43c052b1  rm_irq_set                           
43c01ebd  rm_ra_cfg                            
43c0a411  rm_ra_init                           
43c0c191  rm_ra_is_managed_resasg_utype        
43c08ef1  rm_ra_mon_cfg                        
43c0abf1  rm_ra_validate_ring_index            
43c03469  rm_udmap_flow_cfg                    
43c09311  rm_udmap_flow_delegate               
43c10795  rm_udmap_flow_size_thresh_cfg        
43c062e1  rm_udmap_gcfg_cfg                    
43c0a61d  rm_udmap_init                        
43c08a81  rm_udmap_is_managed_resasg_utype     
43c00e6d  rm_udmap_rx_ch_cfg                   
43c00841  rm_udmap_tx_ch_cfg                   
43c16120  selfcoreEntry                        
43c099fd  set_clock_handler                    
43c0bda5  set_clock_parent_handler             
43c06445  set_device_handler                   
43c0c461  set_device_resets_handler            
43c09c35  set_freq_handler                     
43c10245  sleep_modes_register                 
43c160f4  socCpuCores                          
43c19c54  soc_clock_count                      
43c16128  soc_clock_data                       
43c17c50  soc_clock_freq_defaults              
43c18624  soc_clock_ranges                     
43c208a8  soc_clock_values                     
43c1fe94  soc_clocks                           
43c19c58  soc_devgroup_count                   
43c17e68  soc_devgroups                        
43c19c5c  soc_device_count                     
43c17138  soc_device_data_arr                  
43c0d5c5  soc_device_disable                   
43c0dc39  soc_device_enable                    
43c0df11  soc_device_get_context_loss_count    
43c0ed69  soc_device_get_reset_iso             
43c0e2b1  soc_device_get_resets                
43c0d1c5  soc_device_get_state                 
43c09cf1  soc_device_init                      
43c10799  soc_device_init_complete             
43c0e2fd  soc_device_ret_disable               
43c0e349  soc_device_ret_enable                
43c0ea89  soc_device_set_reset_iso             
43c0df61  soc_device_set_resets                
43c20298  soc_devices                          
43c188c8  soc_fw_caps                          
43c1797a  soc_host_indexes                     
43c17d1d  soc_host_indexes_sz                  
43c176c8  soc_pll_table                        
43c16128  soc_psc_multiple_domains             
43c1010b  sys_reset_handler                    
43c10639  sys_reset_handler_register           
43c1049d  system_reset                         
43c1079d  trace_debug                          
43c0f4c1  trace_debug_uart                     
43c10645  trace_reconfigure                    
43c088a7  u32_get_bytes                        
43c10129  u32map_get                           
43c159ac  udmap_inst                           
43c19c6c  udmap_inst_count                     
43c0fe19  vprintf_                             
43c04ca9  xmodemReceive                        
43c054ad  xmodemTransmit                       


GLOBAL SYMBOLS: SORTED BY Symbol Address 

address   name                                 
-------   ----                                 
00000000  __TI_ATRegion0_region_sz             
00000000  __TI_ATRegion0_src_addr              
00000000  __TI_ATRegion0_trg_addr              
00000000  __TI_ATRegion1_region_sz             
00000000  __TI_ATRegion1_src_addr              
00000000  __TI_ATRegion1_trg_addr              
00000000  __TI_ATRegion2_region_sz             
00000000  __TI_ATRegion2_src_addr              
00000000  __TI_ATRegion2_trg_addr              
00000100  __ABORT_STACK_SIZE                   
00000100  __FIQ_STACK_SIZE                     
00000100  __SVC_STACK_SIZE                     
00000100  __UNDEFINED_STACK_SIZE               
00001000  __IRQ_STACK_SIZE                     
00004000  __STACK_SIZE                         
43c00000  __TI_static_base__                   
43c00000  _vectors                             
43c00040  _vectors_sbl                         
43c00100  __start___llvm_prf_bits              
43c00100  __start___llvm_prf_cnts              
43c00100  __stop___llvm_prf_bits               
43c00100  __stop___llvm_prf_cnts               
43c00101  pll_calc                             
43c00841  rm_udmap_tx_ch_cfg                   
43c00e6d  rm_udmap_rx_ch_cfg                   
43c019c9  UART_open                            
43c01ebb  Board_deinit                         
43c01ebd  rm_ra_cfg                            
43c022f9  DDR_init                             
43c02e39  Sciclient_serviceSecureProxy         
43c03155  Board_driversOpen                    
43c03469  rm_udmap_flow_cfg                    
43c039e3  UART_read                            
43c03c73  Board_init                           
43c03c75  clk_div_set_freq                     
43c043d1  Bootloader_verifyMulticoreImage      
43c0461b  DDR_socEnableVttRegulator            
43c04865  rm_irq_release                       
43c04ca9  xmodemReceive                        
43c04eb1  devices_init                         
43c050b1  UART_write                           
43c052af  SemaphoreP_destruct                  
43c052b1  rm_irq_set                           
43c054ad  xmodemTransmit                       
43c0587d  Sciclient_service                    
43c05a51  Sciclient_init                       
43c05c21  TimerP_setup                         
43c05f91  Bootloader_socCpuResetRelease        
43c0613f  DDR_programPLL                       
43c062e1  rm_udmap_gcfg_cfg                    
43c06445  set_device_handler                   
43c065a1  rm_ir_configure                      
43c0684b  TaskP_yield                          
43c0684d  UART_printf                          
43c06999  SOC_moduleSetClockFrequency          
43c06ae5  clk_init                             
43c06c2d  Sciclient_ProcessPmMessage           
43c06d73  UART_close                           
43c06eb9  Bootloader_parseMultiCoreAppImage    
43c075c7  LPDDR4_CheckCtlInterrupt             
43c076e7  ioremap_internal                     
43c07927  mmr_lock_all                         
43c07a44  __udivmoddi4                         
43c07b5d  Bootloader_socCpuPowerOnResetHSMM4f  
43c07c73  Bootloader_rprcImageLoad             
43c07d85  Bootloader_socCpuPowerOnResetM4f     
43c07e97  LPDDR4_AckCtlInterrupt               
43c07fa9  main                                 
43c080b5  rm_core_get_resource_range           
43c081c1  rm_ia_vint_map                       
43c082cd  device_clk_get_parent                
43c083d1  Sciclient_ProcessRmMessage           
43c084d1  ClockP_init                          
43c086c5  rm_ia_vint_unmap                     
43c087b7  Bootloader_dmaCopy                   
43c088a7  u32_get_bytes                        
43c088a9  clk_div_notify_freq                  
43c08995  psc_pd_get                           
43c08a81  rm_udmap_is_managed_resasg_utype     
43c08c51  clk_set_freq                         
43c08d31  device_clk_set_gated                 
43c08e11  lpsc_module_wait                     
43c08ef1  rm_ra_mon_cfg                        
43c08fcd  App_loadImages                       
43c09241  psc_pd_put                           
43c09311  rm_udmap_flow_delegate               
43c094ad  rm_ia_init                           
43c09575  clk_div_set_freq_static_parent       
43c09639  device_clk_set_parent                
43c097bd  clk_set_parent                       
43c0987d  get_clock_handler                    
43c099fd  set_clock_handler                    
43c09abd  Sciclient_pmQueryModuleClkFreq       
43c09b79  rm_core_resasg_validate_resource     
43c09c35  set_freq_handler                     
43c09cf1  soc_device_init                      
43c09dad  Sciclient_boardCfgParseHeader        
43c09f1d  UART_flushTxFifo                     
43c09fd5  query_freq_handler                   
43c0a08d  map_add                              
43c0a143  pm_div64                             
43c0a1f9  clk_div_reg_go_set_div               
43c0a2ad  pm_init                              
43c0a411  rm_ra_init                           
43c0a61d  rm_udmap_init                        
43c0a6c9  Sciclient_pmSetModuleClkFreq         
43c0a96d  boardcfg_rm_receive_and_validate     
43c0aab1  get_device_handler                   
43c0ab51  rm_core_init                         
43c0abf1  rm_ra_validate_ring_index            
43c0ad2f  clk_generic_set_freq_parent          
43c0ae69  rm_ir_clear                          
43c0af05  Sciclient_serviceGetThreadIds        
43c0af9d  SemaphoreP_pend                      
43c0b033  Bootloader_getMsgLen                 
43c0b0c7  UART_init                            
43c0b1f1  Bootloader_loadSelfCpu               
43c0b281  device_set_state                     
43c0b3a1  lpsc_module_set_local_reset          
43c0b665  psc_pd_wait                          
43c0b77d  lpsc_module_set_module_reset         
43c0b805  Sciclient_pmGetModuleClkNumParent    
43c0b88b  Sciclient_pmGetModuleClkParent       
43c0b911  Sciclient_boardCfgPm                 
43c0b995  Sciclient_boardCfgRm                 
43c0ba19  Sciclient_pmGetModuleClkFreq         
43c0ba9d  Sciclient_pmModuleGetClkStatus       
43c0bb21  Sciclient_pmGetModuleState           
43c0bc25  Sciclient_sendMessage                
43c0bca5  clk_div_reg_set_div                  
43c0bda5  set_clock_parent_handler             
43c0be25  Bootloader_socCpuSetClock            
43c0bea3  Sciclient_pmModuleClkRequest         
43c0bf21  Sciclient_pmSetModuleClkParent       
43c0bfa1  clk_notify_sibling_freq              
43c0c099  get_clock_parent_handler             
43c0c115  get_num_clock_parents_handler        
43c0c191  rm_ra_is_managed_resasg_utype        
43c0c289  Sciclient_servicePrepareHeader       
43c0c301  psc_drop_pwr_up_ref                  
43c0c3ed  clk_get                              
43c0c461  set_device_resets_handler            
43c0c4d5  Bootloader_socCpuPowerOnResetA53     
43c0c549  Sciclient_configPrmsInit             
43c0c5b9  DDR_programHSDIV                     
43c0c627  LPDDR4_Start                         
43c0c695  SOC_moduleClockEnable                
43c0c771  device_clk_init                      
43c0c7dd  get_dev_clk                          
43c0c849  lpsc_module_set_reset_iso            
43c0c91f  AddrTranslateP_getLocalAddr          
43c0c987  Bootloader_socCpuRelease             
43c0cac1  rm_core_validate_devgrp              
43c0cb29  rm_ir_get_outp                       
43c0cb91  Bootloader_socCpuRequest             
43c0cbf7  Bootloader_socCpuGetClock            
43c0cc5b  Bootloader_socMemInitCpu             
43c0ccbf  CSL_emifConfig                       
43c0cd23  Sciclient_procBootSetSequenceCtrl    
43c0cd89  clk_div_reg_get_div                  
43c0cf19  rm_core_resasg_get_utype_index       
43c0cf7d  Sciclient_setDebugConfig             
43c0cfdf  Udma_ringQueueRaw                    
43c0d041  Utils_memcpyWord                     
43c0d0a5  Sciclient_direct_init                
43c0d105  Sciclient_pmSetModuleState           
43c0d165  clk_notify_freq                      
43c0d1c5  soc_device_get_state                 
43c0d225  Bootloader_runCpu                    
43c0d283  ClockP_timerTickIsr                  
43c0d2e1  Sciclient_procBootAuthAndStart       
43c0d33f  Sciclient_procBootReleaseProcessor   
43c0d39b  _DebugP_assert                       
43c0d3f9  clk_div_reg_go_get_div               
43c0d4b1  device_clk_get_hw_ready              
43c0d50d  get_freq_handler                     
43c0d5c5  soc_device_disable                   
43c0d621  Udma_ringDequeueRaw                  
43c0d67b  Sciclient_procBootGetProcessorState  
43c0d6d5  device_clk_set_freq_change           
43c0d72d  device_clk_set_ssc                   
43c0d7dd  lib_itoa                             
43c0d835  mmr_unlock_all                       
43c0d88d  pll_init                             
43c0d93c  __TI_auto_init_nobinit_nopinit       
43c0d995  Drivers_uartOpen                     
43c0d9eb  UART_dmaDisableChannel               
43c0da41  Sciclient_pmSetModuleRst             
43c0da95  Sciclient_procBootRequestProcessor   
43c0dae9  UART_dmaClose                        
43c0db3d  clk_div_init                         
43c0db91  lpsc_module_get_local_reset          
43c0dbe5  rm_irq_oes_src_register              
43c0dc39  soc_device_enable                    
43c0dcdf  Bootloader_loadCpu                   
43c0dd2f  Bootloader_rprcImageParseEntryPoint  
43c0ddcf  ClockP_construct                     
43c0de1f  Sciclient_abiCheck                   
43c0de71  Sciclient_getCurrentContext          
43c0df11  soc_device_get_context_loss_count    
43c0df61  soc_device_set_resets                
43c0dfb1  App_runCpus                          
43c0dfff  Bootloader_findSeq                   
43c0e04d  LPDDR4_ReadReg                       
43c0e0e9  Sciclient_deinit                     
43c0e135  Sciclient_getDefaultBoardCfgInfo     
43c0e181  Sciclient_procBootSetProcessorCfg    
43c0e219  lpsc_module_get_reset_iso            
43c0e2b1  soc_device_get_resets                
43c0e2fd  soc_device_ret_disable               
43c0e349  soc_device_ret_enable                
43c0e395  Pinmux_unlockMMR                     
43c0e3df  SOC_controlModuleUnlockMMR           
43c0e429  LPDDR4_WritePhyIndepConfig           
43c0e4b9  clk_put                              
43c0e501  get_dev_clk_data                     
43c0e549  ClockP_getTimeUsec                   
43c0e58f  LPDDR4_WritePhyConfig                
43c0e5d5  Pinmux_config                        
43c0e61b  _inbyte                              
43c0e735  Sciclient_waitForBootNotification    
43c0e7bd  clk_get_state                        
43c0e843  device_clk_disable                   
43c0e885  device_clk_enable                    
43c0e8c7  ClockP_stop                          
43c0e907  Dpl_init                             
43c0e947  LPDDR4_WriteCtlConfig                
43c0e987  SemaphoreP_constructBinary           
43c0e9c9  clk_get_parent                       
43c0ea09  psc_lookup_lpsc                      
43c0ea49  rm_ia_is_managed_resasg_utype        
43c0ea89  soc_device_set_reset_iso             
43c0eb09  SemaphoreP_constructMutex            
43c0eb47  device_clk_get_num_parents           
43c0ec01  Bootloader_socTranslateSectionAddr   
43c0ec3d  ClockP_usleep                        
43c0ec79  device_disable                       
43c0ed2d  mmr_unlock                           
43c0ed69  soc_device_get_reset_iso             
43c0ede1  Bootloader_open                      
43c0ee1b  ClockP_destruct                      
43c0ee55  DebugP_uartLogWriterPutChar          
43c0ee8f  UART_dmaOpen                         
43c0eec9  boardcfg_pm_receive_and_validate     
43c0ef03  _DebugP_logZone                      
43c0ef3d  clk_drop_pwr_up_en                   
43c0efad  clk_value_set_freq                   
43c0efe5  device_clk_get_freq                  
43c0f01d  rm_ir_init                           
43c0f055  rm_irq_is_managed_resasg_utype       
43c0f08d  Module_clockSetFrequency             
43c0f0c3  _outbyte                             
43c0f0f9  Bootloader_BootImageInfo_init        
43c0f12d  ClockP_start                         
43c0f161  LPDDR4_EnablePIInitiator             
43c0f195  LPDDR4_PollCtlIrq                    
43c0f1c9  System_init                          
43c0f231  clk_set_state                        
43c0f265  devices_init_rw                      
43c0f299  psc_lookup                           
43c0f2cd  psc_lookup_pd                        
43c0f301  rm_init                              
43c0f335  Bootloader_xmodemReceive             
43c0f367  Bootloader_xmodemTransmit            
43c0f399  SemaphoreP_post                      
43c0f3cb  UART_getHandle                       
43c0f3fd  device_set_retention                 
43c0f461  clk_get_freq                         
43c0f491  clk_get_parent_freq                  
43c0f4c1  trace_debug_uart                     
43c0f51f  Module_clockDisable                  
43c0f54d  Module_clockEnable                   
43c0f5a9  Bootloader_socIsMCUResetIsoEnabled   
43c0f5d5  Sciclient_flush                      
43c0f601  boardcfg_memcpy_rm                   
43c0f62d  clk_get_div                          
43c0f761  crc16_ccitt                          
43c0f7e5  lpsc_module_get_state                
43c0f811  query_fw_caps_handler                
43c0f83d  SOC_controlModuleLockMMR             
43c0f8bb  Bootloader_socRprcToCslCoreId        
43c0f933  Udma_chGetCqRingHandle               
43c0f95b  Udma_chGetFqRingHandle               
43c0f984  __aeabi_llsl                         
43c0f984  __ashldi3                            
43c0f9ac  __aeabi_llsr                         
43c0f9ac  __lshrdi3                            
43c0f9d5  clk_value_get_freq                   
43c0f9fd  lpsc_module_idx                      
43c0fa4d  rm_ia_validate_vint                  
43c0fa75  rm_ir_is_managed_resasg_utype        
43c0fa9d  rm_ir_validate_output                
43c0fb15  Bootloader_socCpuPowerOnReset        
43c0fb3b  ClockP_sleep                         
43c0fc1f  GTC_setFID                           
43c0fc45  Sciclient_waitThread                 
43c0fc68  __aeabi_uldivmod                     
43c0fc8d  boardcfg_get_rm_devgrp               
43c0fcf9  device_prepare_exclusive             
43c0fd1d  device_suspend                       
43c0fd41  dmsc_init                            
43c0fd65  psc_pd_idx                           
43c0fd89  rm_ia_vint_get_info                  
43c0fdad  rm_irq_init                          
43c0fe19  vprintf_                             
43c0fe3d  ClockP_deinit                        
43c0fe5f  DDR_ResetDDR_PLL                     
43c0fe81  Pinmux_init                          
43c0fea3  clk_ssc_allow                        
43c0fec5  device_clk_set_input_term            
43c0ff09  osal_delay                           
43c0ff6f  Bootloader_socGetCoreName            
43c0ff8f  DebugP_logZoneEnable                 
43c0ffaf  Sciclient_query_fw_caps_handler      
43c0ffcf  System_deinit                        
43c0ffef  TimerP_Params_init                   
43c10031  clk_ssc_block                        
43c100b1  Drivers_close                        
43c100cf  device_resource_mem                  
43c1010b  sys_reset_handler                    
43c10129  u32map_get                           
43c10147  Bootloader_JumpSelfCpu               
43c10163  Bootloader_socCpuGetClkDefault       
43c1017f  Bootloader_socIsAuthRequired         
43c101b9  Sciclient_readThread32               
43c101d5  _system_pre_init                     
43c1020d  notifier_call                        
43c10245  sleep_modes_register                 
43c10260  TI_memcpy_small                      
43c1027d  UART_deinit                          
43c10297  UART_readInterruptDma                
43c102b1  UART_writeInterruptDma               
43c102e5  Bootloader_socAuthImage              
43c102fd  LPDDR4_Init                          
43c10315  boardcfg_get_rm_resasg_size          
43c1035d  dev_get_clk                          
43c1038c  TI_memset_small                      
43c103a5  clk_div_get_freq                     
43c103d1  device_clk_set_freq                  
43c103e9  Sciclient_readThreadCount            
43c103fd  Sciclient_verifyThread               
43c10411  boardcfg_get_rm_resasg               
43c10439  device_clk_get_freq_change           
43c1044d  device_clk_get_input_term            
43c10461  device_clk_get_ssc                   
43c10475  device_clk_get_sw_gated              
43c10489  rm_core_unmap_region                 
43c1049d  system_reset                         
43c104b1  CSL_emifClearECCInterruptStatus      
43c104c3  CSL_emifEnableECCInterrupts          
43c104d5  GTC_init                             
43c104e7  TimerP_clearOverflowInt              
43c104f9  Bootloader_close                     
43c10509  Bootloader_isCorePresent             
43c10519  ClockP_ticksToUsec                   
43c10529  LPDDR4_Probe                         
43c10539  Sciclient_threadStatusReg            
43c10558  __aeabi_memset                       
43c10558  __aeabi_memset4                      
43c10558  __aeabi_memset8                      
43c10569  device_clk_query_freq                
43c10589  pm_devgroup_is_enabled               
43c10599  pm_devgroup_set_enabled              
43c105a9  rm_core_map_region                   
43c105b9  Bootloader_socCpuSetEntryPoint       
43c105c7  Dpl_deinit                           
43c105d5  GTC_enable                           
43c105e3  PowerClock_init                      
43c105f1  Bootloader_Params_init               
43c105fd  Bootloader_socSelfCPUjump            
43c10609  ClockP_getTicks                      
43c10615  DebugP_uartSetDrvIndex               
43c10620  __aeabi_memclr                       
43c10620  __aeabi_memclr4                      
43c10620  __aeabi_memclr8                      
43c1062d  device_prepare_nonexclusive          
43c10639  sys_reset_handler_register           
43c10645  trace_reconfigure                    
43c10651  Bootloader_socGetSBLMem              
43c1065b  Bootloader_socIsSmpEnable            
43c10665  CSL_secProxyGetDataAddr              
43c1066f  ClockP_Params_init                   
43c10679  ClockP_isActive                      
43c10683  TimerP_start                         
43c1068d  TimerP_stop                          
43c10697  clk_notify_children_freq             
43c106dd  SOC_moduleGetClockFrequency          
43c106ed  clk_freq_change_allow                
43c106f5  clk_freq_change_block                
43c106fd  lpsc_module_get                      
43c10705  lpsc_module_get_module_reset         
43c1070d  lpsc_module_put                      
43c10715  lpsc_module_ret_get                  
43c1071d  lpsc_module_ret_put                  
43c10725  rm_core_param_is_valid               
43c1072c  C$$EXIT                              
43c1072c  abort                                
43c1073b  Bootloader_socWaitForFWBoot          
43c1073f  CPS_UncachedRead32                   
43c10743  CPS_UncachedWrite32                  
43c10747  ClockP_getTimerCount                 
43c1074b  ClockP_timerClearOverflowInt         
43c1074f  Drivers_open                         
43c1075b  PowerClock_deinit                    
43c1075f  TimerP_getCount                      
43c10763  TimerP_getReloadCount                
43c10767  Udma_defaultVirtToPhyFxn             
43c1076c  __aeabi_memcpy                       
43c1076c  __aeabi_memcpy4                      
43c1076c  __aeabi_memcpy8                      
43c10770  __aeabi_ldiv0                        
43c10789  device_clk_get_hw_ssc                
43c10791  putchar_                             
43c10795  rm_udmap_flow_size_thresh_cfg        
43c10799  soc_device_init_complete             
43c1079d  trace_debug                          
43c11ef1  HwiP_enableInt                       
43c11f19  HwiP_disableInt                      
43c11f4b  HwiP_restoreInt                      
43c11fa1  HwiP_clearInt                        
43c11fc1  HwiP_post                            
43c11fe9  HwiP_Params_init                     
43c11ffb  HwiP_construct                       
43c12145  HwiP_destruct                        
43c12217  HwiP_init                            
43c122e7  HwiP_inISR                           
43c122f9  HwiP_irq_handler_c                   
43c1237f  HwiP_fiq_handler                     
43c12433  HwiP_reserved_handler                
43c12461  HwiP_undefined_handler               
43c1248f  HwiP_svc_handler                     
43c124bd  HwiP_prefetch_abort_handler          
43c124eb  HwiP_data_abort_handler              
43c12518  HwiP_irq_handler                     
43c12590  HwiP_disable                         
43c125a0  HwiP_disableFIQ                      
43c125b0  HwiP_enable                          
43c125c0  HwiP_enableFIQ                       
43c125d0  HwiP_restore                         
43c125d8  HwiP_enableVIC                       
43c125e8  HwiP_disableVIC                      
43c125f8  HwiP_getCPSR                         
43c12608  CacheP_disableL1d                    
43c12630  CacheP_disableL1p                    
43c12648  CacheP_enableL1d                     
43c12660  CacheP_enableL1p                     
43c12678  CacheP_invL1d                        
43c126b0  CacheP_invL1p                        
43c126ec  CacheP_invL1dAll                     
43c126f4  CacheP_invL1pAll                     
43c126fc  CacheP_wb                            
43c12738  CacheP_wbInv                         
43c12774  CacheP_wbAll                         
43c1281c  CacheP_wbInvAll                      
43c12834  CacheP_wbInvAllAsm                   
43c128d4  CacheP_getEnabled                    
43c1290c  CacheP_getCacheLevelInfo             
43c12918  CacheP_configForceWrThru             
43c12938  CacheP_setDLFO                       
43c12949  CacheP_init                          
43c129a1  CacheP_disable                       
43c129db  CacheP_enable                        
43c129fb  CacheP_inv                           
43c12a39  MpuP_RegionAttrs_init                
43c12a47  MpuP_setRegion                       
43c12af5  MpuP_isEnable                        
43c12af9  MpuP_disable                         
43c12b2b  MpuP_enable                          
43c12b69  MpuP_resetRegion                     
43c12b73  MpuP_init                            
43c12bf0  MpuP_disableAsm                      
43c12c08  MpuP_disableBRAsm                    
43c12c18  MpuP_enableAsm                       
43c12c30  MpuP_enableBRAsm                     
43c12c40  MpuP_isEnableAsm                     
43c12c54  MpuP_setRegionAsm                    
43c12c80  _c_int00_sbl                         
43c12ca4  _c_int00                             
43c12d7d  _DebugP_assertNoLog                  
43c12d9b  __mpu_init                           
43c12da8  gUartDmaConfig                       
43c138a4  DDRSS_phyReg                         
43c14090  DDRSS_ctlReg                         
43c1472c  DDRSS_phyIndepReg                    
43c14c90  DDRSS_phyRegNum                      
43c15086  DDRSS_ctlRegNum                      
43c153d4  DDRSS_phyIndepRegNum                 
43c15688  resasg_indexer                       
43c15874  ra_inst                              
43c159ac  udmap_inst                           
43c15a9c  gAddrTranslateInfo                   
43c15b60  gCoreBootInfo                        
43c15ca4  gMpuRegionConfig                     
43c15d34  ir_inst                              
43c15da8  gSciclientHandle                     
43c15e04  ia_inst                              
43c15e60  gUartParams                          
43c15efc  gBootloaderConfigNum                 
43c15f38  gBootloaderConfig                    
43c15f58  gBootloaderUdmaArgs                  
43c15f78  gMemBootloaderConfig                 
43c15f98  gSciclientRomSecProxyCfg             
43c15fb8  gSciclient_secProxyCfg               
43c15fd8  gBootloaderMemFxns                   
43c15ff0  gClockConfig                         
43c16020  gSocModulesClockFrequency            
43c16050  gResMemSection                       
43c16074  gBootloader0Args                     
43c16084  gMemBootloaderArgs                   
43c16094  gSocModules                          
43c160a4  gDebugLogZone                        
43c160a8  gAddrTranslateConfig                 
43c160b4  gMpuConfig                           
43c160c0  gUartConfig                          
43c160dc  gCacheConfig                         
43c160f4  socCpuCores                          
43c160fc  gDebugP_uartDrvIndex                 
43c16100  gEndOfFilesTransferWord              
43c16104  gHwiConfig                           
43c16108  gUartConfigNum                       
43c1610c  gUartDmaConfigNum                    
43c16110  operatingMode                        
43c16114  pSciclient_secProxyCfg               
43c16120  selfcoreEntry                        
43c16128  soc_clock_data                       
43c16128  soc_psc_multiple_domains             
43c17138  soc_device_data_arr                  
43c176c8  soc_pll_table                        
43c1797a  soc_host_indexes                     
43c17a78  gSciclientMap                        
43c17c50  soc_clock_freq_defaults              
43c17d1d  soc_host_indexes_sz                  
43c17e20  gSOC_r5fVectors                      
43c17e68  soc_devgroups                        
43c17ff2  ia_soc_pe_init_list                  
43c18624  soc_clock_ranges                     
43c1869c  clk_drv_div_fixed                    
43c186c0  clk_drv_div_pll_16fft_hsdiv          
43c186e4  clk_drv_div_pll_16fft_postdiv        
43c18708  clk_drv_div_reg                      
43c1872c  clk_drv_div_reg_go                   
43c18884  clk_drv_mux_reg                      
43c188a4  clk_drv_pllctrl_mux_reg_ro           
43c188c8  soc_fw_caps                          
43c18984  irq_global_event_types               
43c18b68  clk_drv_fixed                        
43c18b80  clk_drv_from_device                  
43c18b98  clk_drv_pll_16fft                    
43c18bb0  clk_drv_soc_hfosc0                   
43c18bc8  clk_drv_soc_lfosc0                   
43c195b0  psc_drv                              
43c199bc  gcSciclientDirectExtBootX509MagicWord
43c19c1e  evt_rt_srcs                          
43c19c24  evt_rt_srcs_count                    
43c19c28  gCacheL1dCacheLineSize               
43c19c2c  gCacheL1pCacheLineSize               
43c19c50  ra_inst_count                        
43c19c54  soc_clock_count                      
43c19c58  soc_devgroup_count                   
43c19c5c  soc_device_count                     
43c19c6c  udmap_inst_count                     
43c19c80  gSciclient_boardCfgLow               
43c19d00  gSciclient_boardCfgLow_rm            
43c1a280  gSciclient_boardCfgLow_sec           
43c1a400  gSciclient_boardCfgLow_pm            
43c1a480  __stack                              
43c1e480  __BSS_START                          
43c1e480  __STACK_END                          
43c1e480  gHwiCtrl                             
43c1fe94  soc_clocks                           
43c20298  soc_devices                          
43c208a8  soc_clock_values                     
43c20c40  bootCpuInfo                          
43c20ccc  _freertosresetvectors                
43c20d10  gClockCtrl                           
43c20d80  bootHandle                           
43c20d84  gUartHandle                          
43c20d90  __BSS_END                            
43c20d90  __IRQ_STACK_START                    
43c21d90  __FIQ_STACK_START                    
43c21d90  __IRQ_STACK_END                      
43c21e90  __FIQ_STACK_END                      
43c21e90  __SVC_STACK_START                    
43c21f90  __ABORT_STACK_START                  
43c21f90  __SVC_STACK_END                      
43c22090  __ABORT_STACK_END                    
43c22090  __UNDEFINED_STACK_START              
43c22190  __UNDEFINED_STACK_END                
84000000  gAppImageBuf                         
ffffffff  __TI_pprof_out_hndl                  
ffffffff  __TI_prof_data_size                  
ffffffff  __TI_prof_data_start                 
ffffffff  __binit__                            
ffffffff  binit                                
UNDEFED   __TI_CINIT_Base                      
UNDEFED   __TI_CINIT_Limit                     
UNDEFED   __TI_Handler_Table_Base              
UNDEFED   __TI_Handler_Table_Limit             
UNDEFED   _system_post_cinit                   

[599 symbols]
