******************************************************************************
            TI ARM Clang Linker Unix v3.2.2                    
******************************************************************************
>> Linked Thu Jun  6 10:58:44 2024

OUTPUT FILE NAME:   <sbl_null.debug.out>
ENTRY POINT SYMBOL: "_vectors_sbl"  address: 70000000


MEMORY CONFIGURATION

         name            origin    length      used     unused   attr    fill
----------------------  --------  ---------  --------  --------  ----  --------
  R5F_VECS              00000000   00000040  00000000  00000040  RWIX
  R5F_TCMA              00000040   00007fc0  00000000  00007fc0  RWIX
  R5F_TCMB0             41010000   00008000  00000000  00008000  RWIX
  MSRAM_VECS            70000000   00000100  00000040  000000c0  RWIX
  MSRAM_0               70000100   0004ff00  0001a9d0  00035530  RWIX
  MSRAM_1               70050000   00030000  00006800  00029800  RWIX


SEGMENT ALLOCATION MAP

run origin  load origin   length   init length attrs members
----------  ----------- ---------- ----------- ----- -------
70000000    70000000    00000040   00000040    r-x
  70000000    70000000    00000040   00000040    r-x .vectors
70000100    70000100    00016e20   00016e20    r-x
  70000100    70000100    00015aa0   00015aa0    r-x .text
  70015ba0    70015ba0    00000ae0   00000ae0    r-x .text.hwi
  70016680    70016680    000004a0   000004a0    r-x .text.cache
  70016b20    70016b20    000002c0   000002c0    r-x .text.mpu
  70016de0    70016de0    00000140   00000140    r-x .text.boot
70016f20    70016f20    00002430   00002430    rw-
  70016f20    70016f20    00002430   00002430    rw- .data
70019350    70019350    00001780   00001780    r--
  70019350    70019350    00001780   00001780    r-- .rodata
70050000    70050000    00005400   00000000    rw-
  70050000    70050000    00004000   00000000    rw- .stack
  70054000    70054000    00001400   00000000    rw- .bss
70055400    70055400    00001400   00000000    r--
  70055400    70055400    00001000   00000000    r-- .irqstack
  70056400    70056400    00000100   00000000    r-- .fiqstack
  70056500    70056500    00000100   00000000    r-- .svcstack
  70056600    70056600    00000100   00000000    r-- .abortstack
  70056700    70056700    00000100   00000000    r-- .undefinedstack


SECTION ALLOCATION MAP

 output                                  attributes/
section   page    origin      length       input sections
--------  ----  ----------  ----------   ----------------
.vectors   0    70000000    00000040     
                  70000000    00000040     nortos.am64x.r5f.ti-arm-clang.debug.lib : HwiP_armv7r_vectors_nortos_sbl_asm.obj (.vectors)

.text      0    70000100    00015aa0     
                  70000100    00000a34     nortos.am64x.r5f.ti-arm-clang.debug.lib : printf.obj (.text._vsnprintf)
                  70000b34    0000000c     libclang_rt.builtins.a : aeabi_memset.S.obj (.text.__aeabi_memclr)
                  70000b40    000005f4     drivers.am64x.r5f.ti-arm-clang.debug.lib : sciclient_rm_irq.obj (.text.Sciclient_rmIrqRouteValidate)
                  70001134    00000008     libc.a : exit.c.obj (.text:abort)
                  7000113c    00000004     libclang_rt.builtins.a : aeabi_memcpy.S.obj (.text.__aeabi_memcpy)
                  70001140    0000051e     nortos.am64x.r5f.ti-arm-clang.debug.lib : printf.obj (.text._ftoa)
                  7000165e    00000002     --HOLE-- [fill = 0]
                  70001660    00000478                                             : printf.obj (.text._etoa)
                  70001ad8    00000008     --HOLE-- [fill = 0]
                  70001ae0    0000042c     drivers.am64x.r5f.ti-arm-clang.debug.lib : uart_v0.obj (.text.UART_open)
                  70001f0c    00000004     --HOLE-- [fill = 0]
                  70001f10    0000039c                                              : udma_ch.obj (.text.Udma_chAllocResource)
                  700022ac    00000004     --HOLE-- [fill = 0]
                  700022b0    00000360                                              : udma_ch.obj (.text.Udma_chDisableTxChan)
                  70002610    0000035a                                              : udma_event.obj (.text.Udma_eventConfig)
                  7000296a    00000006     --HOLE-- [fill = 0]
                  70002970    00000306                                              : sciclient_rm_irq.obj (.text.Sciclient_rmIrqGetRoute)
                  70002c76    0000000a     --HOLE-- [fill = 0]
                  70002c80    000002f4                                              : udma_event.obj (.text.Udma_eventReset)
                  70002f74    0000000c     --HOLE-- [fill = 0]
                  70002f80    000002da                                              : sciclient.obj (.text.Sciclient_service)
                  7000325a    00000006     --HOLE-- [fill = 0]
                  70003260    000002c8                                              : udma_ch.obj (.text.Udma_chDisableRxChan)
                  70003528    00000008     --HOLE-- [fill = 0]
                  70003530    00000294                                              : csl_bcdma.obj (.text.CSL_bcdmaChanOpCfgChan)
                  700037c4    0000000c     --HOLE-- [fill = 0]
                  700037d0    0000027a     nortos.am64x.r5f.ti-arm-clang.debug.lib : TimerP.obj (.text.TimerP_setup)
                  70003a4a    00000006     --HOLE-- [fill = 0]
                  70003a50    0000026a     drivers.am64x.r5f.ti-arm-clang.debug.lib : lpddr4_16bit.obj (.text.LPDDR4_INTR_SanityFunction1)
                  70003cba    00000006     --HOLE-- [fill = 0]
                  70003cc0    00000260                                              : udma_ch.obj (.text.Udma_chConfigRx)
                  70003f20    0000025a                                              : lpddr4_16bit.obj (.text.LPDDR4_INTR_SanityFunction2)
                  7000417a    00000006     --HOLE-- [fill = 0]
                  70004180    00000248                                              : sciclient_rm_irq.obj (.text.Sciclient_rmIrqFindRoute)
                  700043c8    00000008     --HOLE-- [fill = 0]
                  700043d0    00000242                                              : uart_v0_lld.obj (.text.UART_fifoConfig)
                  70004612    0000000e     --HOLE-- [fill = 0]
                  70004620    0000023e     nortos.am64x.r5f.ti-arm-clang.debug.lib : printf.obj (.text._ntoa_format)
                  7000485e    00000002     --HOLE-- [fill = 0]
                  70004860    00000222     drivers.am64x.r5f.ti-arm-clang.debug.lib : udma_event.obj (.text.Udma_eventRegister)
                  70004a82    0000000e     --HOLE-- [fill = 0]
                  70004a90    0000021e                                              : udma_event.obj (.text.Udma_eventAllocResource)
                  70004cae    00000002     --HOLE-- [fill = 0]
                  70004cb0    0000020c                                              : udma_ch.obj (.text.Udma_chFreeResource)
                  70004ebc    00000004     --HOLE-- [fill = 0]
                  70004ec0    0000020a                                              : bootloader_soc.obj (.text.Bootloader_socCpuPowerOnResetR5f)
                  700050ca    00000006     --HOLE-- [fill = 0]
                  700050d0    0000020a                                              : udma_ring_common.obj (.text.Udma_ringAlloc)
                  700052da    00000006     --HOLE-- [fill = 0]
                  700052e0    000001f6                                              : bootloader_soc.obj (.text.Bootloader_socCpuResetRelease)
                  700054d6    0000000a     --HOLE-- [fill = 0]
                  700054e0    000001e6                                              : udma_ch.obj (.text.Udma_chDisableBlkCpyChan)
                  700056c6    0000000a     --HOLE-- [fill = 0]
                  700056d0    000001dc                                              : bootloader_soc.obj (.text.Bootloader_socCpuResetReleaseSelf)
                  700058ac    00000004     --HOLE-- [fill = 0]
                  700058b0    000001d8                                              : udma_flow.obj (.text.Udma_flowConfig)
                  70005a88    00000008     --HOLE-- [fill = 0]
                  70005a90    000001ca     main.obj (.text.main)
                  70005c5a    00000006     --HOLE-- [fill = 0]
                  70005c60    000001be     drivers.am64x.r5f.ti-arm-clang.debug.lib : ddr.obj (.text.DDR_inlineECCCfg)
                  70005e1e    00000002     --HOLE-- [fill = 0]
                  70005e20    000001b4                                              : soc.obj (.text.SOC_moduleSetClockFrequency)
                  70005fd4    0000000c     --HOLE-- [fill = 0]
                  70005fe0    000001b2                                              : uart_v0.obj (.text.UART_close)
                  70006192    0000000e     --HOLE-- [fill = 0]
                  700061a0    000001a8                                              : uart_v0_lld.obj (.text.UART_lld_controllerIsr)
                  70006348    00000008     --HOLE-- [fill = 0]
                  70006350    000001a2                                              : uart_v0.obj (.text.UART_write)
                  700064f2    0000000e     --HOLE-- [fill = 0]
                  70006500    00000198                                              : sciclient_rm_irq.obj (.text.Sciclient_rmClearInterruptRoute)
                  70006698    00000008     --HOLE-- [fill = 0]
                  700066a0    00000196                                              : udma_ch.obj (.text.Udma_chConfigTx)
                  70006836    0000000a     --HOLE-- [fill = 0]
                  70006840    0000018a                                              : sciclient_rm_irq.obj (.text.Sciclient_rmIrqDeleteRoute)
                  700069ca    00000006     --HOLE-- [fill = 0]
                  700069d0    0000018a                                              : sciclient_rm_irq.obj (.text.Sciclient_rmProgramInterruptRoute)
                  70006b5a    00000006     --HOLE-- [fill = 0]
                  70006b60    00000186                                              : sciclient_rm_irq.obj (.text.Sciclient_rmIrqProgramRoute)
                  70006ce6    0000000a     --HOLE-- [fill = 0]
                  70006cf0    00000182                                              : udma_ch.obj (.text.Udma_chEnableLocal)
                  70006e72    0000000e     --HOLE-- [fill = 0]
                  70006e80    0000017e                                              : udma_ch.obj (.text.Udma_chConfigPdma)
                  70006ffe    00000002     --HOLE-- [fill = 0]
                  70007000    0000016c                                              : csl_bcdma.obj (.text.CSL_bcdmaChanOpTeardownChan)
                  7000716c    00000004     --HOLE-- [fill = 0]
                  70007170    00000168                                              : csl_bcdma.obj (.text.CSL_bcdmaChanOp)
                  700072d8    00000008     --HOLE-- [fill = 0]
                  700072e0    00000168                                              : udma_ch.obj (.text.Udma_chOpen)
                  70007448    00000008     --HOLE-- [fill = 0]
                  70007450    00000162                                              : lpddr4.obj (.text.LPDDR4_INTR_SanityFunction3)
                  700075b2    0000000e     --HOLE-- [fill = 0]
                  700075c0    0000015a                                              : udma_rm.obj (.text.Udma_rmAllocMappedRxCh)
                  7000771a    00000006     --HOLE-- [fill = 0]
                  70007720    0000015a                                              : udma_rm.obj (.text.Udma_rmAllocMappedTxCh)
                  7000787a    00000006     --HOLE-- [fill = 0]
                  70007880    00000158                                              : csl_bcdma.obj (.text.CSL_bcdmaChanOpGetChanStats)
                  700079d8    00000008     --HOLE-- [fill = 0]
                  700079e0    00000152                                              : lpddr4.obj (.text.LPDDR4_INTR_SanityFunction4)
                  70007b32    0000000e     --HOLE-- [fill = 0]
                  70007b40    00000152                                              : uart_v0_lld.obj (.text.UART_lld_initDma)
                  70007c92    0000000e     --HOLE-- [fill = 0]
                  70007ca0    00000146                                              : udma_ch.obj (.text.Udma_chAssignRegOverlay)
                  70007de6    0000000a     --HOLE-- [fill = 0]
                  70007df0    00000142                                              : sciclient.obj (.text.Sciclient_sendMessage)
                  70007f32    0000000e     --HOLE-- [fill = 0]
                  70007f40    00000140                                              : sciclient_rm_irq.obj (.text.Sciclient_rmIaValidateMapping)
                  70008080    00000140                                              : udma_rm.obj (.text.Udma_rmAllocMappedRing)
                  700081c0    0000013e                                              : lpddr4_16bit.obj (.text.LPDDR4_AckCtlInterrupt_4)
                  700082fe    00000002     --HOLE-- [fill = 0]
                  70008300    0000013e                                              : uart_v0_lld.obj (.text.UART_procLineStatusErr)
                  7000843e    00000002     --HOLE-- [fill = 0]
                  70008440    0000013c     nortos.am64x.r5f.ti-arm-clang.debug.lib : ClockP_nortos_r5.obj (.text.ClockP_init)
                  7000857c    00000004     --HOLE-- [fill = 0]
                  70008580    0000013a     drivers.am64x.r5f.ti-arm-clang.debug.lib : lpddr4_16bit.obj (.text.LPDDR4_AckCtlInterrupt)
                  700086ba    00000006     --HOLE-- [fill = 0]
                  700086c0    00000138     nortos.am64x.r5f.ti-arm-clang.debug.lib : printf.obj (.text._ntoa_long_long)
                  700087f8    00000008     --HOLE-- [fill = 0]
                  70008800    00000136     drivers.am64x.r5f.ti-arm-clang.debug.lib : ddr.obj (.text.DDR_start)
                  70008936    0000000a     --HOLE-- [fill = 0]
                  70008940    00000136                                              : sciclient_rm_irq.obj (.text.Sciclient_rmIrqVintDelete)
                  70008a76    0000000a     --HOLE-- [fill = 0]
                  70008a80    00000134                                              : uart_v0_lld.obj (.text.UART_writePolling)
                  70008bb4    0000000c     --HOLE-- [fill = 0]
                  70008bc0    00000130                                              : sciclient.obj (.text.Sciclient_recvMessage)
                  70008cf0    0000012e                                              : udma_rm.obj (.text.Udma_rmAllocIrIntr)
                  70008e1e    00000002     --HOLE-- [fill = 0]
                  70008e20    0000012c                                              : uart_v0_lld.obj (.text.UART_lld_init)
                  70008f4c    00000004     --HOLE-- [fill = 0]
                  70008f50    0000012a                                              : sciclient_pm.obj (.text.Sciclient_pmQueryModuleClkFreq)
                  7000907a    00000006     --HOLE-- [fill = 0]
                  70009080    00000122                                              : bootloader.obj (.text.Bootloader_rprcImageLoad)
                  700091a2    0000000e     --HOLE-- [fill = 0]
                  700091b0    00000122                                              : udma_rm.obj (.text.Udma_rmAllocBlkCopyCh)
                  700092d2    0000000e     --HOLE-- [fill = 0]
                  700092e0    00000122                                              : udma_rm.obj (.text.Udma_rmAllocBlkCopyHcCh)
                  70009402    0000000e     --HOLE-- [fill = 0]
                  70009410    00000122                                              : udma_rm.obj (.text.Udma_rmAllocBlkCopyUhcCh)
                  70009532    0000000e     --HOLE-- [fill = 0]
                  70009540    00000122                                              : udma_rm.obj (.text.Udma_rmAllocRxCh)
                  70009662    0000000e     --HOLE-- [fill = 0]
                  70009670    00000122                                              : udma_rm.obj (.text.Udma_rmAllocRxHcCh)
                  70009792    0000000e     --HOLE-- [fill = 0]
                  700097a0    00000122                                              : udma_rm.obj (.text.Udma_rmAllocRxUhcCh)
                  700098c2    0000000e     --HOLE-- [fill = 0]
                  700098d0    00000122                                              : udma_rm.obj (.text.Udma_rmAllocTxCh)
                  700099f2    0000000e     --HOLE-- [fill = 0]
                  70009a00    00000122                                              : udma_rm.obj (.text.Udma_rmAllocTxHcCh)
                  70009b22    0000000e     --HOLE-- [fill = 0]
                  70009b30    00000122                                              : udma_rm.obj (.text.Udma_rmAllocTxUhcCh)
                  70009c52    0000000e     --HOLE-- [fill = 0]
                  70009c60    0000011e                                              : sciclient_rm_irq.obj (.text.Sciclient_rmIaValidateEvt)
                  70009d7e    00000002     --HOLE-- [fill = 0]
                  70009d80    0000011e                                              : sciclient_rm_irq.obj (.text.Sciclient_rmIrqVintAdd)
                  70009e9e    00000002     --HOLE-- [fill = 0]
                  70009ea0    00000118                                              : lpddr4_16bit.obj (.text.LPDDR4_CheckCtlInterrupt)
                  70009fb8    00000118     libclang_rt.builtins.a : udivmoddi4.S.obj (.text)
                  7000a0d0    00000116     drivers.am64x.r5f.ti-arm-clang.debug.lib : csl_bcdma.obj (.text.CSL_bcdmaChanOpDecChanStats)
                  7000a1e6    0000000a     --HOLE-- [fill = 0]
                  7000a1f0    00000116                                              : uart_v0_lld.obj (.text.UART_divisorLatchWrite)
                  7000a306    0000000a     --HOLE-- [fill = 0]
                  7000a310    00000114     nortos.am64x.r5f.ti-arm-clang.debug.lib : printf.obj (.text._ntoa_long)
                  7000a424    0000000c     --HOLE-- [fill = 0]
                  7000a430    00000110     drivers.am64x.r5f.ti-arm-clang.debug.lib : sciclient_pm.obj (.text.Sciclient_pmSetModuleClkFreq)
                  7000a540    0000010e                                              : ddr.obj (.text.DDR_changeFreqAck)
                  7000a64e    00000002     --HOLE-- [fill = 0]
                  7000a650    0000010c                                              : bootloader.obj (.text.Bootloader_loadSelfCpu)
                  7000a75c    00000004     --HOLE-- [fill = 0]
                  7000a760    00000106                                              : lpddr4_16bit.obj (.text.LPDDR4_AckCtlInterrupt_3)
                  7000a866    0000000a     --HOLE-- [fill = 0]
                  7000a870    00000106                                              : udma_event.obj (.text.Udma_eventCheckParams)
                  7000a976    0000000a     --HOLE-- [fill = 0]
                  7000a980    00000104                                              : csl_pktdma.obj (.text.CSL_pktdmaTeardownChan)
                  7000aa84    0000000c     --HOLE-- [fill = 0]
                  7000aa90    00000104                                              : uart_v0_lld.obj (.text.UART_configInstance)
                  7000ab94    0000000c     --HOLE-- [fill = 0]
                  7000aba0    00000104                                              : uart_dma_udma.obj (.text.UART_udmaInitRxCh)
                  7000aca4    0000000c     --HOLE-- [fill = 0]
                  7000acb0    00000104                                              : uart_dma_udma.obj (.text.UART_udmaInitTxCh)
                  7000adb4    0000000c     --HOLE-- [fill = 0]
                  7000adc0    000000fe                                              : sciclient_rm_irq.obj (.text.Sciclient_rmIrGetOutp)
                  7000aebe    00000002     --HOLE-- [fill = 0]
                  7000aec0    000000f6     nortos.am64x.r5f.ti-arm-clang.debug.lib : SemaphoreP_nortos.obj (.text.SemaphoreP_pend)
                  7000afb6    0000000a     --HOLE-- [fill = 0]
                  7000afc0    000000f4     drivers.am64x.r5f.ti-arm-clang.debug.lib : sciclient.obj (.text.Sciclient_getVersionCheck)
                  7000b0b4    0000000c     --HOLE-- [fill = 0]
                  7000b0c0    000000f2                                              : bootloader_soc.obj (.text.Bootloader_socCpuPowerOnResetM4f)
                  7000b1b2    0000000e     --HOLE-- [fill = 0]
                  7000b1c0    000000ec                                              : udma_event.obj (.text.Udma_eventIsrFxn)
                  7000b2ac    00000004     --HOLE-- [fill = 0]
                  7000b2b0    000000ea     nortos.am64x.r5f.ti-arm-clang.debug.lib : AddrTranslateP.obj (.text.AddrTranslateP_getLocalAddr)
                  7000b39a    00000006     --HOLE-- [fill = 0]
                  7000b3a0    000000ea     drivers.am64x.r5f.ti-arm-clang.debug.lib : lpddr4_16bit.obj (.text.LPDDR4_CheckCtlInterrupt_2)
                  7000b48a    00000006     --HOLE-- [fill = 0]
                  7000b490    000000e8                                              : lpddr4_16bit.obj (.text.LPDDR4_AckCtlInterrupt_2)
                  7000b578    00000008     --HOLE-- [fill = 0]
                  7000b580    000000e8                                              : udma_event.obj (.text.Udma_eventFreeResource)
                  7000b668    00000008     --HOLE-- [fill = 0]
                  7000b670    000000e2                                              : sciclient_rm_irq.obj (.text.Sciclient_rmIrqGetNode)
                  7000b752    0000000e     --HOLE-- [fill = 0]
                  7000b760    000000de                                              : sciclient.obj (.text.Sciclient_waitForMessage)
                  7000b83e    00000002     --HOLE-- [fill = 0]
                  7000b840    000000de                                              : uart_v0_lld.obj (.text.UART_intrEnable)
                  7000b91e    00000002     --HOLE-- [fill = 0]
                  7000b920    000000da                                              : csl_emif.obj (.text.CSL_emifConfigController)
                  7000b9fa    00000006     --HOLE-- [fill = 0]
                  7000ba00    000000da                                              : sciclient_rm_irq.obj (.text.Sciclient_rmIrInpIsFree)
                  7000bada    00000006     --HOLE-- [fill = 0]
                  7000bae0    000000da                                              : uart_v0_lld.obj (.text.UART_intrDisable)
                  7000bbba    00000006     --HOLE-- [fill = 0]
                  7000bbc0    000000d8                                              : uart_dma_udma.obj (.text.UART_udmaConfigPdmaTx)
                  7000bc98    00000008     --HOLE-- [fill = 0]
                  7000bca0    000000d4                                              : bootloader_soc.obj (.text.Bootloader_socOpenFirewalls)
                  7000bd74    0000000c     --HOLE-- [fill = 0]
                  7000bd80    000000d4                                              : csl_bcdma.obj (.text.CSL_bcdmaChanOpGetChanRT)
                  7000be54    0000000c     --HOLE-- [fill = 0]
                  7000be60    000000d4                                              : pinmux.obj (.text.Pinmux_unlockMMR)
                  7000bf34    0000000c     --HOLE-- [fill = 0]
                  7000bf40    000000d4                                              : sciclient_procboot.obj (.text.Sciclient_procBootWaitProcessorState)
                  7000c014    0000000c     --HOLE-- [fill = 0]
                  7000c020    000000d2                                              : uart_v0_lld.obj (.text.UART_lld_write)
                  7000c0f2    0000000e     --HOLE-- [fill = 0]
                  7000c100    000000d2                                              : uart_dma_udma.obj (.text.UART_udmaDeInitCh)
                  7000c1d2    0000000e     --HOLE-- [fill = 0]
                  7000c1e0    000000d2                                              : uart_dma_udma.obj (.text.UART_udmaHpdInit)
                  7000c2b2    0000000e     --HOLE-- [fill = 0]
                  7000c2c0    000000cc                                              : udma_rm.obj (.text.Udma_rmAllocVintrBit)
                  7000c38c    00000004     --HOLE-- [fill = 0]
                  7000c390    000000ca                                              : csl_bcdma.obj (.text.CSL_bcdmaChanOpSetBurstSize)
                  7000c45a    00000006     --HOLE-- [fill = 0]
                  7000c460    000000ca                                              : udma_ring_common.obj (.text.Udma_ringCheckParams)
                  7000c52a    00000006     --HOLE-- [fill = 0]
                  7000c530    000000c8                                              : uart_v0_lld.obj (.text.UART_lld_writeDma)
                  7000c5f8    00000008     --HOLE-- [fill = 0]
                  7000c600    000000c8                                              : udma_event.obj (.text.Udma_eventCheckUnRegister)
                  7000c6c8    00000008     --HOLE-- [fill = 0]
                  7000c6d0    000000c8                                              : udma_ring_common.obj (.text.Udma_ringFree)
                  7000c798    00000008     --HOLE-- [fill = 0]
                  7000c7a0    000000c6                                              : soc.obj (.text.SOC_isR5FDualCoreMode)
                  7000c866    0000000a     --HOLE-- [fill = 0]
                  7000c870    000000c6                                              : uart_v0_lld.obj (.text.UART_lld_writeIntr)
                  7000c936    0000000a     --HOLE-- [fill = 0]
                  7000c940    000000c6                                              : udma_event.obj (.text.Udma_eventUnRegister)
                  7000ca06    0000000a     --HOLE-- [fill = 0]
                  7000ca10    000000c4                                              : sciclient_rm_irq.obj (.text.Sciclient_rmIrqIsVintRouteSet)
                  7000cad4    0000000c     --HOLE-- [fill = 0]
                  7000cae0    000000c4                                              : uart_v0.obj (.text.UART_flushTxFifo)
                  7000cba4    0000000c     --HOLE-- [fill = 0]
                  7000cbb0    000000c2                                              : udma_ch.obj (.text.Udma_chClose)
                  7000cc72    0000000e     --HOLE-- [fill = 0]
                  7000cc80    000000c0                                              : csl_bcdma.obj (.text.CSL_bcdmaChanOpAccessRemotePeerReg)
                  7000cd40    000000c0                                              : lpddr4_16bit.obj (.text.LPDDR4_CheckCtlInterrupt_4)
                  7000ce00    000000c0                                              : lpddr4.obj (.text.LPDDR4_ReadReg)
                  7000cec0    000000c0     nortos.am64x.r5f.ti-arm-clang.debug.lib : printf.obj (.text._out_rev)
                  7000cf80    000000be                                             : ClockP_nortos.obj (.text.ClockP_timerTickIsr)
                  7000d03e    00000002     --HOLE-- [fill = 0]
                  7000d040    000000bc     drivers.am64x.r5f.ti-arm-clang.debug.lib : ddr.obj (.text.DDR_setClock)
                  7000d0fc    00000004     --HOLE-- [fill = 0]
                  7000d100    000000ba     nortos.am64x.r5f.ti-arm-clang.debug.lib : ClockP_nortos.obj (.text.ClockP_stop)
                  7000d1ba    00000006     --HOLE-- [fill = 0]
                  7000d1c0    000000b8     drivers.am64x.r5f.ti-arm-clang.debug.lib : lpddr4.obj (.text.LPDDR4_WriteReg)
                  7000d278    00000008     --HOLE-- [fill = 0]
                  7000d280    000000b6                                              : csl_pktdma.obj (.text.CSL_pktdmaAccessChanPeerReg)
                  7000d336    0000000a     --HOLE-- [fill = 0]
                  7000d340    000000b6                                              : uart_v0_lld.obj (.text.UART_fifoWrite)
                  7000d3f6    0000000a     --HOLE-- [fill = 0]
                  7000d400    000000b2                                              : ddr.obj (.text.DDR_initDrv)
                  7000d4b2    0000000e     --HOLE-- [fill = 0]
                  7000d4c0    000000b2                                              : sciclient.obj (.text.Sciclient_getCurrentContext)
                  7000d572    0000000e     --HOLE-- [fill = 0]
                  7000d580    000000b0                                              : uart_v0.obj (.text.UART_init)
                  7000d630    000000b0                                              : udma_ch.obj (.text.Udma_chCheckParams)
                  7000d6e0    000000ae                                              : udma_soc.obj (.text.Udma_getMappedChRingAttributes)
                  7000d78e    00000002     --HOLE-- [fill = 0]
                  7000d790    000000ac                                              : udma_ch.obj (.text.UdmaChRxPrms_init)
                  7000d83c    00000004     --HOLE-- [fill = 0]
                  7000d840    000000ac                                              : udma_ch.obj (.text.UdmaChTxPrms_init)
                  7000d8ec    00000004     --HOLE-- [fill = 0]
                  7000d8f0    000000ac                                              : udma_ch.obj (.text.Udma_chDisable)
                  7000d99c    00000004     --HOLE-- [fill = 0]
                  7000d9a0    000000aa                                              : csl_bcdma.obj (.text.CSL_bcdmaChanOpSetChanPause)
                  7000da4a    00000006     --HOLE-- [fill = 0]
                  7000da50    000000aa                                              : csl_bcdma.obj (.text.CSL_bcdmaChanOpSetChanRT)
                  7000dafa    00000006     --HOLE-- [fill = 0]
                  7000db00    000000a8     nortos.am64x.r5f.ti-arm-clang.debug.lib : ClockP_nortos.obj (.text.ClockP_addToList)
                  7000dba8    00000008     --HOLE-- [fill = 0]
                  7000dbb0    000000a8                                             : ClockP_nortos.obj (.text.ClockP_destruct)
                  7000dc58    00000008     --HOLE-- [fill = 0]
                  7000dc60    000000a8     ti_drivers_open_close.obj (.text.Drivers_uartOpen)
                  7000dd08    00000008     --HOLE-- [fill = 0]
                  7000dd10    000000a8     drivers.am64x.r5f.ti-arm-clang.debug.lib : sciclient_rm_irq.obj (.text.Sciclient_rmIrInpRomMapped)
                  7000ddb8    00000008     --HOLE-- [fill = 0]
                  7000ddc0    000000a8                                              : sciclient_rm_irq.obj (.text.Sciclient_rmIrOutpRomMapped)
                  7000de68    00000008     --HOLE-- [fill = 0]
                  7000de70    000000a6                                              : sciclient_pm.obj (.text.Sciclient_pmGetModuleClkNumParent)
                  7000df16    0000000a     --HOLE-- [fill = 0]
                  7000df20    000000a4                                              : bootloader_soc.obj (.text.Bootloader_socOpenFirewallRegion)
                  7000dfc4    0000000c     --HOLE-- [fill = 0]
                  7000dfd0    000000a4                                              : csl_intaggr.obj (.text.CSL_intaggrIsIntrPending)
                  7000e074    0000000c     --HOLE-- [fill = 0]
                  7000e080    000000a4                                              : sciclient_rm_irq.obj (.text.Sciclient_rmIrqCheckLoop)
                  7000e124    0000000c     --HOLE-- [fill = 0]
                  7000e130    000000a4                                              : uart_v0_lld.obj (.text.UART_IsBaseAddrValid)
                  7000e1d4    0000000c     --HOLE-- [fill = 0]
                  7000e1e0    000000a2                                              : ddr.obj (.text.DDR_init)
                  7000e282    0000000e     --HOLE-- [fill = 0]
                  7000e290    000000a0                                              : udma_rm.obj (.text.Udma_rmAllocEvent)
                  7000e330    000000a0                                              : udma_rm.obj (.text.Udma_rmAllocVintr)
                  7000e3d0    0000009e                                              : bootloader_soc.obj (.text.Bootloader_socCpuSetEntryPoint)
                  7000e46e    00000002     --HOLE-- [fill = 0]
                  7000e470    0000009e                                              : sciclient_soc_priv.obj (.text.Sciclient_getContext)
                  7000e50e    00000002     --HOLE-- [fill = 0]
                  7000e510    0000009c                                              : pinmux.obj (.text.Pinmux_config)
                  7000e5ac    00000004     --HOLE-- [fill = 0]
                  7000e5b0    0000009a                                              : bootloader_soc.obj (.text.Bootloader_socCpuSetClock)
                  7000e64a    00000006     --HOLE-- [fill = 0]
                  7000e650    0000009a                                              : bootloader_soc.obj (.text.Bootloader_socTranslateSectionAddr)
                  7000e6ea    00000006     --HOLE-- [fill = 0]
                  7000e6f0    0000009a                                              : soc.obj (.text.SOC_controlModuleUnlockMMR)
                  7000e78a    00000006     --HOLE-- [fill = 0]
                  7000e790    0000009a                                              : sciclient_pm.obj (.text.Sciclient_pmGetModuleClkFreq)
                  7000e82a    00000006     --HOLE-- [fill = 0]
                  7000e830    0000009a                                              : sciclient_pm.obj (.text.Sciclient_pmGetModuleClkParent)
                  7000e8ca    00000006     --HOLE-- [fill = 0]
                  7000e8d0    0000009a                                              : sciclient_pm.obj (.text.Sciclient_pmSetModuleClkParent)
                  7000e96a    00000006     --HOLE-- [fill = 0]
                  7000e970    0000009a                                              : sciclient_procboot.obj (.text.Sciclient_procBootSetSequenceCtrl)
                  7000ea0a    00000006     --HOLE-- [fill = 0]
                  7000ea10    0000009a                                              : sciclient_rm_irq.obj (.text.Sciclient_rmIrOutpIsFree)
                  7000eaaa    00000006     --HOLE-- [fill = 0]
                  7000eab0    0000009a                                              : udma_ring_common.obj (.text.Udma_ringQueueRaw)
                  7000eb4a    00000006     --HOLE-- [fill = 0]
                  7000eb50    00000098                                              : csl_bcdma.obj (.text.CSL_bcdmaChanOpSetChanEnable)
                  7000ebe8    00000008     --HOLE-- [fill = 0]
                  7000ebf0    00000098                                              : sciclient_boardcfg.obj (.text.Sciclient_boardCfgPm)
                  7000ec88    00000008     --HOLE-- [fill = 0]
                  7000ec90    00000098                                              : sciclient_boardcfg.obj (.text.Sciclient_boardCfgRm)
                  7000ed28    00000008     --HOLE-- [fill = 0]
                  7000ed30    00000098                                              : sciclient_pm.obj (.text.Sciclient_pmModuleGetClkStatus)
                  7000edc8    00000008     --HOLE-- [fill = 0]
                  7000edd0    00000096                                              : bootloader.obj (.text.Bootloader_runCpu)
                  7000ee66    0000000a     --HOLE-- [fill = 0]
                  7000ee70    00000096                                              : sciclient.obj (.text.Sciclient_init)
                  7000ef06    0000000a     --HOLE-- [fill = 0]
                  7000ef10    00000096                                              : uart_v0_lld.obj (.text.UART_subConfigTCRTLRModeEn)
                  7000efa6    0000000a     --HOLE-- [fill = 0]
                  7000efb0    00000096                                              : uart_dma_udma.obj (.text.UART_udmaIsrRx)
                  7000f046    0000000a     --HOLE-- [fill = 0]
                  7000f050    00000096                                              : uart_dma_udma.obj (.text.UART_udmaIsrTx)
                  7000f0e6    0000000a     --HOLE-- [fill = 0]
                  7000f0f0    00000096                                              : udma_flow.obj (.text.UdmaFlowPrms_init)
                  7000f186    0000000a     --HOLE-- [fill = 0]
                  7000f190    00000096                                              : udma_ring_common.obj (.text.Udma_ringDequeueRaw)
                  7000f226    0000000a     --HOLE-- [fill = 0]
                  7000f230    00000094                                              : sciclient.obj (.text.Sciclient_waitForBootNotification)
                  7000f2c4    0000000c     --HOLE-- [fill = 0]
                  7000f2d0    00000094                                              : uart_dma_udma.obj (.text.UART_lld_dmaDisableChannel)
                  7000f364    0000000c     --HOLE-- [fill = 0]
                  7000f370    00000092     nortos.am64x.r5f.ti-arm-clang.debug.lib : ClockP_nortos.obj (.text.ClockP_getTimeUsec)
                  7000f402    0000000e     --HOLE-- [fill = 0]
                  7000f410    00000092     drivers.am64x.r5f.ti-arm-clang.debug.lib : soc.obj (.text.SOC_moduleClockEnable)
                  7000f4a2    0000000e     --HOLE-- [fill = 0]
                  7000f4b0    00000092                                              : sciclient_rm_irq.obj (.text.Sciclient_rmPsPop)
                  7000f542    0000000e     --HOLE-- [fill = 0]
                  7000f550    0000008e                                              : udma_rm.obj (.text.Udma_rmFreeMappedRing)
                  7000f5de    00000002     --HOLE-- [fill = 0]
                  7000f5e0    0000008c                                              : ddr.obj (.text.DDR_initHwRegs)
                  7000f66c    00000004     --HOLE-- [fill = 0]
                  7000f670    0000008c                                              : sciclient_pm.obj (.text.Sciclient_pmGetModuleState)
                  7000f6fc    00000004     --HOLE-- [fill = 0]
                  7000f700    0000008c                                              : sciclient_pm.obj (.text.Sciclient_pmModuleClkRequest)
                  7000f78c    00000004     --HOLE-- [fill = 0]
                  7000f790    0000008c                                              : sciclient_pm.obj (.text.Sciclient_pmSetModuleState)
                  7000f81c    00000004     --HOLE-- [fill = 0]
                  7000f820    0000008c                                              : sciclient_rm_irq.obj (.text.Sciclient_rmIaEvtRomMapped)
                  7000f8ac    00000004     --HOLE-- [fill = 0]
                  7000f8b0    0000008c                                              : uart_v0_lld.obj (.text.UART_writeCancelNoCB)
                  7000f93c    00000004     --HOLE-- [fill = 0]
                  7000f940    0000008a                                              : lpddr4.obj (.text.LPDDR4_PollCtlIrq)
                  7000f9ca    00000006     --HOLE-- [fill = 0]
                  7000f9d0    0000008a                                              : lpddr4.obj (.text.LPDDR4_PollPhyIndepIrq)
                  7000fa5a    00000006     --HOLE-- [fill = 0]
                  7000fa60    0000008a                                              : udma_ring_common.obj (.text.Udma_ringFlushRaw)
                  7000faea    00000006     --HOLE-- [fill = 0]
                  7000faf0    00000088                                              : bootloader_soc.obj (.text.Bootloader_socCpuGetClock)
                  7000fb78    00000008     --HOLE-- [fill = 0]
                  7000fb80    00000088                                              : csl_bcdma.obj (.text.CSL_bcdmaGetCfg)
                  7000fc08    00000008     --HOLE-- [fill = 0]
                  7000fc10    00000088                                              : sciclient_procboot.obj (.text.Sciclient_procBootReleaseProcessor)
                  7000fc98    00000008     --HOLE-- [fill = 0]
                  7000fca0    00000088                                              : udma_rm.obj (.text.Udma_rmFreeVintrBit)
                  7000fd28    00000008     --HOLE-- [fill = 0]
                  7000fd30    00000086                                              : lpddr4_16bit.obj (.text.LPDDR4_CheckCtlInterrupt_3)
                  7000fdb6    0000000a     --HOLE-- [fill = 0]
                  7000fdc0    00000086                                              : uart_v0_lld.obj (.text.UART_lld_flushTxFifo)
                  7000fe46    0000000a     --HOLE-- [fill = 0]
                  7000fe50    00000086                                              : uart_v0_lld.obj (.text.UART_tcrTlrBitValRestore)
                  7000fed6    0000000a     --HOLE-- [fill = 0]
                  7000fee0    00000082                                              : uart_dma_udma.obj (.text.CSL_udmapCppi5SetReturnPolicy)
                  7000ff62    0000000e     --HOLE-- [fill = 0]
                  7000ff70    00000082                                              : udma_ch.obj (.text.Udma_chPair)
                  7000fff2    0000000e     --HOLE-- [fill = 0]
                  70010000    00000082                                              : udma_ch.obj (.text.Udma_chUnpair)
                  70010082    0000000e     --HOLE-- [fill = 0]
                  70010090    00000080                                              : uart_v0_lld.obj (.text.UART_moduleReset)
                  70010110    0000007e                                              : csl_bcdma.obj (.text.CSL_bcdmaChanOpIsChanEnabled)
                  7001018e    00000002     --HOLE-- [fill = 0]
                  70010190    0000007e                                              : csl_bcdma.obj (.text.CSL_bcdmaChanOpIsValidChanIdx)
                  7001020e    00000002     --HOLE-- [fill = 0]
                  70010210    0000007e                                              : csl_bcdma.obj (.text.CSL_bcdmaMapChanIdx)
                  7001028e    00000002     --HOLE-- [fill = 0]
                  70010290    0000007e                                              : lpddr4.obj (.text.LPDDR4_StartSequenceController)
                  7001030e    00000002     --HOLE-- [fill = 0]
                  70010310    0000007e                                              : uart_v0_lld.obj (.text.UART_readData)
                  7001038e    00000002     --HOLE-- [fill = 0]
                  70010390    0000007c     nortos.am64x.r5f.ti-arm-clang.debug.lib : DebugP_log.obj (.text._DebugP_assert)
                  7001040c    00000004     --HOLE-- [fill = 0]
                  70010410    0000007a     drivers.am64x.r5f.ti-arm-clang.debug.lib : uart_v0.obj (.text.UART_Params_init)
                  7001048a    00000006     --HOLE-- [fill = 0]
                  70010490    00000076                                              : csl_bcdma.obj (.text.CSL_bcdmaChanOpClearError)
                  70010506    0000000a     --HOLE-- [fill = 0]
                  70010510    00000076                                              : csl_bcdma.obj (.text.CSL_bcdmaDoChanOp)
                  70010586    0000000a     --HOLE-- [fill = 0]
                  70010590    00000076                                              : udma_ch.obj (.text.Udma_chGetCqRingHandle)
                  70010606    0000000a     --HOLE-- [fill = 0]
                  70010610    00000076                                              : udma_ch.obj (.text.Udma_chGetFqRingHandle)
                  70010686    0000000a     --HOLE-- [fill = 0]
                  70010690    00000074                                              : udma_ch.obj (.text.Udma_chEnable)
                  70010704    0000000c     --HOLE-- [fill = 0]
                  70010710    00000072                                              : csl_bcdma.obj (.text.CSL_bcdmaChanOpTriggerChan)
                  70010782    0000000e     --HOLE-- [fill = 0]
                  70010790    00000072     nortos.am64x.r5f.ti-arm-clang.debug.lib : ClockP_nortos.obj (.text.ClockP_usleep)
                  70010802    0000000e     --HOLE-- [fill = 0]
                  70010810    00000070     drivers.am64x.r5f.ti-arm-clang.debug.lib : bootloader.obj (.text.Bootloader_open)
                  70010880    00000070                                              : csl_intaggr.obj (.text.CSL_intaggrClrIntr)
                  700108f0    00000070     nortos.am64x.r5f.ti-arm-clang.debug.lib : ClockP_nortos.obj (.text.ClockP_construct)
                  70010960    00000070     drivers.am64x.r5f.ti-arm-clang.debug.lib : sciclient_rm.obj (.text.Sciclient_rmGetResourceRange)
                  700109d0    00000070                                              : udma_rm.obj (.text.Udma_rmFreeMappedRxCh)
                  70010a40    00000070                                              : udma_rm.obj (.text.Udma_rmFreeMappedTxCh)
                  70010ab0    0000006e                                              : bootloader_soc.obj (.text.Bootloader_socCpuPowerOnResetA53)
                  70010b1e    00000002     --HOLE-- [fill = 0]
                  70010b20    0000006e                                              : bootloader_soc.obj (.text.Bootloader_socGetR5fBtcmAddrAndSize)
                  70010b8e    00000002     --HOLE-- [fill = 0]
                  70010b90    0000006e                                              : lpddr4_16bit.obj (.text.LPDDR4_EnablePIInitiator)
                  70010bfe    00000002     --HOLE-- [fill = 0]
                  70010c00    0000006e                                              : sciclient_rm_irq.obj (.text.Sciclient_rmIaVintGetInfo)
                  70010c6e    00000002     --HOLE-- [fill = 0]
                  70010c70    0000006c                                              : bootloader.obj (.text.Bootloader_bootSelfCpu)
                  70010cdc    00000004     --HOLE-- [fill = 0]
                  70010ce0    0000006c                                              : bootloader_soc.obj (.text.Bootloader_socGetR5fAtcmAddrAndSize)
                  70010d4c    00000004     --HOLE-- [fill = 0]
                  70010d50    0000006c                                              : ddr_soc.obj (.text.DDR_socEnableVttRegulator)
                  70010dbc    00000004     --HOLE-- [fill = 0]
                  70010dc0    0000006c                                              : udma_ch.obj (.text.UdmaChPrms_init)
                  70010e2c    00000004     --HOLE-- [fill = 0]
                  70010e30    0000006a                                              : lpddr4.obj (.text.LPDDR4_WriteCtlConfig)
                  70010e9a    00000006     --HOLE-- [fill = 0]
                  70010ea0    0000006a                                              : lpddr4.obj (.text.LPDDR4_WritePhyConfig)
                  70010f0a    00000006     --HOLE-- [fill = 0]
                  70010f10    0000006a                                              : lpddr4.obj (.text.LPDDR4_WritePhyIndepConfig)
                  70010f7a    00000006     --HOLE-- [fill = 0]
                  70010f80    0000006a                                              : pinmux.obj (.text.Pinmux_lockMMR)
                  70010fea    00000006     --HOLE-- [fill = 0]
                  70010ff0    00000068                                              : bootloader.obj (.text.Bootloader_loadCpu)
                  70011058    00000008     --HOLE-- [fill = 0]
                  70011060    00000068                                              : bootloader_soc.obj (.text.Bootloader_socCpuRelease)
                  700110c8    00000008     --HOLE-- [fill = 0]
                  700110d0    00000068                                              : sciclient_rm_irq.obj (.text.Sciclient_rmIrqCfgIsDirectEvent)
                  70011138    00000008     --HOLE-- [fill = 0]
                  70011140    00000068                                              : sciclient_rm_irq.obj (.text.Sciclient_rmIrqCfgIsDirectNonEvent)
                  700111a8    00000008     --HOLE-- [fill = 0]
                  700111b0    00000068                                              : sciclient_rm_irq.obj (.text.Sciclient_rmIrqCfgIsEventToVintMappingOnly)
                  70011218    00000008     --HOLE-- [fill = 0]
                  70011220    00000068                                              : sciclient_rm_irq.obj (.text.Sciclient_rmIrqCfgIsOesOnly)
                  70011288    00000008     --HOLE-- [fill = 0]
                  70011290    00000068                                              : sciclient_rm_irq.obj (.text.Sciclient_rmIrqCfgIsUnmappedVintDirectEvent)
                  700112f8    00000008     --HOLE-- [fill = 0]
                  70011300    00000068                                              : uart_v0_lld.obj (.text.UART_divisorValCompute)
                  70011368    00000008     --HOLE-- [fill = 0]
                  70011370    00000066                                              : bootloader_soc.obj (.text.Bootloader_socCpuRequest)
                  700113d6    0000000a     --HOLE-- [fill = 0]
                  700113e0    00000066                                              : bootloader_soc.obj (.text.Bootloader_socInitR5FAtcmBtcm)
                  70011446    0000000a     --HOLE-- [fill = 0]
                  70011450    00000066                                              : uart_dma_udma.obj (.text.CSL_udmapCppi5SetIds)
                  700114b6    0000000a     --HOLE-- [fill = 0]
                  700114c0    00000066                                              : sciclient_pm.obj (.text.Sciclient_pmSetModuleRst_flags)
                  70011526    0000000a     --HOLE-- [fill = 0]
                  70011530    00000064                                              : sciclient_procboot.obj (.text.Sciclient_procBootGetProcessorState)
                  70011594    0000000c     --HOLE-- [fill = 0]
                  700115a0    00000064                                              : sciclient_rm_irq.obj (.text.Sciclient_rmIrGetInst)
                  70011604    0000000c     --HOLE-- [fill = 0]
                  70011610    00000064                                              : uart_v0_lld.obj (.text.UART_fifoRegisterWrite)
                  70011674    0000000c     --HOLE-- [fill = 0]
                  70011680    00000064                                              : uart_v0_lld.obj (.text.UART_lld_deInitDma)
                  700116e4    0000000c     --HOLE-- [fill = 0]
                  700116f0    00000064                                              : udma_rm.obj (.text.Udma_rmFreeEvent)
                  70011754    0000000c     --HOLE-- [fill = 0]
                  70011760    00000064                                              : udma_rm.obj (.text.Udma_rmFreeIrIntr)
                  700117c4    0000000c     --HOLE-- [fill = 0]
                  700117d0    00000064                                              : udma_rm.obj (.text.Udma_rmFreeVintr)
                  70011834    0000000c     --HOLE-- [fill = 0]
                  70011840    00000062                                              : ddr.obj (.text.DDR_probe)
                  700118a2    0000000e     --HOLE-- [fill = 0]
                  700118b0    00000062                                              : udma_event.obj (.text.UdmaEventPrms_init)
                  70011912    0000000e     --HOLE-- [fill = 0]
                  70011920    00000062                                              : udma_rm.obj (.text.Udma_rmFreeBlkCopyCh)
                  70011982    0000000e     --HOLE-- [fill = 0]
                  70011990    00000062                                              : udma_rm.obj (.text.Udma_rmFreeBlkCopyHcCh)
                  700119f2    0000000e     --HOLE-- [fill = 0]
                  70011a00    00000062                                              : udma_rm.obj (.text.Udma_rmFreeBlkCopyUhcCh)
                  70011a62    0000000e     --HOLE-- [fill = 0]
                  70011a70    00000062                                              : udma_rm.obj (.text.Udma_rmFreeRxCh)
                  70011ad2    0000000e     --HOLE-- [fill = 0]
                  70011ae0    00000062                                              : udma_rm.obj (.text.Udma_rmFreeRxHcCh)
                  70011b42    0000000e     --HOLE-- [fill = 0]
                  70011b50    00000062                                              : udma_rm.obj (.text.Udma_rmFreeRxUhcCh)
                  70011bb2    0000000e     --HOLE-- [fill = 0]
                  70011bc0    00000062                                              : udma_rm.obj (.text.Udma_rmFreeTxCh)
                  70011c22    0000000e     --HOLE-- [fill = 0]
                  70011c30    00000062                                              : udma_rm.obj (.text.Udma_rmFreeTxHcCh)
                  70011c92    0000000e     --HOLE-- [fill = 0]
                  70011ca0    00000062                                              : udma_rm.obj (.text.Udma_rmFreeTxUhcCh)
                  70011d02    0000000e     --HOLE-- [fill = 0]
                  70011d10    00000060                                              : uart_v0_lld.obj (.text.UART_getChar)
                  70011d70    00000060                                              : uart_v0_lld.obj (.text.UART_writeData)
                  70011dd0    00000060                                              : udma_utils.obj (.text.Udma_virtToPhyFxn)
                  70011e30    0000005e                                              : lpddr4.obj (.text.LPDDR4_PollAndAckIrq)
                  70011e8e    00000002     --HOLE-- [fill = 0]
                  70011e90    0000005e                                              : sciclient_pm.obj (.text.Sciclient_pmSetModuleRst)
                  70011eee    00000002     --HOLE-- [fill = 0]
                  70011ef0    0000005e                                              : sciclient_procboot.obj (.text.Sciclient_procBootRequestProcessor)
                  70011f4e    00000002     --HOLE-- [fill = 0]
                  70011f50    0000005e     nortos.am64x.r5f.ti-arm-clang.debug.lib : SemaphoreP_nortos.obj (.text.SemaphoreP_post)
                  70011fae    00000002     --HOLE-- [fill = 0]
                  70011fb0    0000005c     drivers.am64x.r5f.ti-arm-clang.debug.lib : lpddr4.obj (.text.LPDDR4_CheckPhyIndepInterrupt)
                  7001200c    00000004     --HOLE-- [fill = 0]
                  70012010    0000005c                                              : lpddr4.obj (.text.LPDDR4_SanityFunction4)
                  7001206c    00000004     --HOLE-- [fill = 0]
                  70012070    0000005c     ti_power_clock_config.obj (.text.Module_clockSetFrequency)
                  700120cc    00000004     --HOLE-- [fill = 0]
                  700120d0    0000005c     drivers.am64x.r5f.ti-arm-clang.debug.lib : sciclient_rm_irq.obj (.text.Sciclient_rmIaGetInst)
                  7001212c    00000004     --HOLE-- [fill = 0]
                  70012130    0000005c                                              : sciclient_rm_irq.obj (.text.Sciclient_rmPsPush)
                  7001218c    00000004     --HOLE-- [fill = 0]
                  70012190    0000005c                                              : sciclient.obj (.text.Sciclient_triggerSecHandover)
                  700121ec    00000004     --HOLE-- [fill = 0]
                  700121f0    0000005c                                              : uart_v0_lld.obj (.text.UART_lld_deInit)
                  7001224c    00000004     --HOLE-- [fill = 0]
                  70012250    0000005c                                              : uart_v0.obj (.text.UART_lld_writeCompleteCallback)
                  700122ac    00000004     --HOLE-- [fill = 0]
                  700122b0    0000005a                                              : sciclient_rm_irq.obj (.text.Sciclient_rmIaValidateGlobalEvt)
                  7001230a    00000006     --HOLE-- [fill = 0]
                  70012310    0000005a                                              : uart_v0.obj (.text.UART_lld_readCompleteCallback)
                  7001236a    00000006     --HOLE-- [fill = 0]
                  70012370    0000005a                                              : uart_v0_lld.obj (.text.UART_regConfigModeEnable)
                  700123ca    00000006     --HOLE-- [fill = 0]
                  700123d0    00000058                                              : bootloader_soc.obj (.text.Bootloader_socEnableICSSCores)
                  70012428    00000008     --HOLE-- [fill = 0]
                  70012430    00000058                                              : sciclient_firewall.obj (.text.Sciclient_firewallChangeOwnerInfo)
                  70012488    00000008     --HOLE-- [fill = 0]
                  70012490    00000058                                              : sciclient_firewall.obj (.text.Sciclient_firewallSetRegion)
                  700124e8    00000008     --HOLE-- [fill = 0]
                  700124f0    00000058                                              : sciclient_rm.obj (.text.Sciclient_rmIrqSetRaw)
                  70012548    00000008     --HOLE-- [fill = 0]
                  70012550    00000058                                              : sciclient_rm_irq.obj (.text.Sciclient_rmIrqUnmappedVintRouteDelete)
                  700125a8    00000008     --HOLE-- [fill = 0]
                  700125b0    00000058                                              : sciclient_rm.obj (.text.Sciclient_rmRingCfg)
                  70012608    00000008     --HOLE-- [fill = 0]
                  70012610    00000058                                              : sciclient_rm.obj (.text.Sciclient_rmUdmapFlowCfg)
                  70012668    00000008     --HOLE-- [fill = 0]
                  70012670    00000058                                              : sciclient_rm.obj (.text.Sciclient_rmUdmapFlowSizeThreshCfg)
                  700126c8    00000008     --HOLE-- [fill = 0]
                  700126d0    00000058                                              : sciclient_rm.obj (.text.Sciclient_rmUdmapRxChCfg)
                  70012728    00000008     --HOLE-- [fill = 0]
                  70012730    00000058                                              : sciclient_rm.obj (.text.Sciclient_rmUdmapTxChCfg)
                  70012788    00000058     libc.a : autoinit.c.obj (.text:__TI_auto_init_nobinit_nopinit)
                  700127e0    00000056     drivers.am64x.r5f.ti-arm-clang.debug.lib : bootloader.obj (.text.Bootloader_BootImageInfo_init)
                  70012836    0000000a     --HOLE-- [fill = 0]
                  70012840    00000056                                              : sciclient_rm.obj (.text.Sciclient_rmIrqReleaseRaw)
                  70012896    0000000a     --HOLE-- [fill = 0]
                  700128a0    00000056                                              : sciclient_rm.obj (.text.Sciclient_rmPsilPair)
                  700128f6    0000000a     --HOLE-- [fill = 0]
                  70012900    00000056                                              : sciclient_rm.obj (.text.Sciclient_rmPsilUnpair)
                  70012956    0000000a     --HOLE-- [fill = 0]
                  70012960    00000056                                              : udma_ch.obj (.text.Udma_chSetPeerReg)
                  700129b6    0000000a     --HOLE-- [fill = 0]
                  700129c0    00000056                                              : udma_event.obj (.text.Udma_eventGetGlobalHandle)
                  70012a16    0000000a     --HOLE-- [fill = 0]
                  70012a20    00000054                                              : csl_pktdma.obj (.text.CSL_pktdmaIsValidChanIdx)
                  70012a74    0000000c     --HOLE-- [fill = 0]
                  70012a80    00000054                                              : sciclient_procboot.obj (.text.Sciclient_procBootSetProcessorCfg)
                  70012ad4    0000000c     --HOLE-- [fill = 0]
                  70012ae0    00000054                                              : sciclient_rm_irq.obj (.text.Sciclient_rmUnmappedVintRouteCreate)
                  70012b34    0000000c     --HOLE-- [fill = 0]
                  70012b40    00000054                                              : uart_v0_lld.obj (.text.UART_OperModeValid)
                  70012b94    0000000c     --HOLE-- [fill = 0]
                  70012ba0    00000054                                              : udma_ring_common.obj (.text.UdmaRingPrms_init)
                  70012bf4    0000000c     --HOLE-- [fill = 0]
                  70012c00    00000052                                              : lpddr4.obj (.text.LPDDR4_AckPhyIndepInterrupt)
                  70012c52    0000000e     --HOLE-- [fill = 0]
                  70012c60    00000052                                              : soc.obj (.text.SOC_controlModuleLockMMR)
                  70012cb2    0000000e     --HOLE-- [fill = 0]
                  70012cc0    00000052     nortos.am64x.r5f.ti-arm-clang.debug.lib : SemaphoreP_nortos.obj (.text.SemaphoreP_construct)
                  70012d12    0000000e     --HOLE-- [fill = 0]
                  70012d20    00000052     drivers.am64x.r5f.ti-arm-clang.debug.lib : udma_ch.obj (.text.Udma_chInitRegs)
                  70012d72    0000000e     --HOLE-- [fill = 0]
                  70012d80    00000050                                              : bootloader_soc.obj (.text.Bootloader_socCpuPowerOnReset)
                  70012dd0    00000050     ti_drivers_open_close.obj (.text.Drivers_uartClose)
                  70012e20    00000050     drivers.am64x.r5f.ti-arm-clang.debug.lib : uart_v0_lld.obj (.text.UART_checkCharsAvailInFifo)
                  70012e70    0000004e                                              : csl_pktdma.obj (.text.CSL_pktdmaIsChanEnabled)
                  70012ebe    00000002     --HOLE-- [fill = 0]
                  70012ec0    0000004e                                              : uart_v0.obj (.text.UART_getHandle)
                  70012f0e    00000002     --HOLE-- [fill = 0]
                  70012f10    0000004c                                              : lpddr4.obj (.text.LPDDR4_SanityFunction5)
                  70012f5c    00000004     --HOLE-- [fill = 0]
                  70012f60    0000004c     ti_power_clock_config.obj (.text.Module_clockDisable)
                  70012fac    00000004     --HOLE-- [fill = 0]
                  70012fb0    0000004c     ti_power_clock_config.obj (.text.Module_clockEnable)
                  70012ffc    00000004     --HOLE-- [fill = 0]
                  70013000    0000004c     drivers.am64x.r5f.ti-arm-clang.debug.lib : sciclient_rm_irq.obj (.text.Sciclient_rmPsSetInp)
                  7001304c    00000004     --HOLE-- [fill = 0]
                  70013050    0000004c                                              : sciclient_rm_irq.obj (.text.Sciclient_rmPsSetOutp)
                  7001309c    00000004     --HOLE-- [fill = 0]
                  700130a0    0000004c                                              : udma_event.obj (.text.Udma_eventGetId)
                  700130ec    00000004     --HOLE-- [fill = 0]
                  700130f0    0000004a                                              : csl_pktdma.obj (.text.CSL_pktdmaGetRxRT)
                  7001313a    00000006     --HOLE-- [fill = 0]
                  70013140    0000004a                                              : csl_pktdma.obj (.text.CSL_pktdmaGetTxRT)
                  7001318a    00000006     --HOLE-- [fill = 0]
                  70013190    0000004a     ti_dpl_config.obj (.text.Dpl_init)
                  700131da    00000006     --HOLE-- [fill = 0]
                  700131e0    0000004a     drivers.am64x.r5f.ti-arm-clang.debug.lib : sciclient_soc_priv.obj (.text.Sciclient_getDevId)
                  7001322a    00000006     --HOLE-- [fill = 0]
                  70013230    0000004a                                              : uart_v0_lld.obj (.text.UART_getIntrIdentityStatus)
                  7001327a    00000006     --HOLE-- [fill = 0]
                  70013280    0000004a                                              : uart_v0_lld.obj (.text.UART_lineCharConfig)
                  700132ca    00000006     --HOLE-- [fill = 0]
                  700132d0    0000004a                                              : uart_dma_udma.obj (.text.UART_lld_dmaInit)
                  7001331a    00000006     --HOLE-- [fill = 0]
                  70013320    00000048                                              : lpddr4.obj (.text.LPDDR4_Init)
                  70013368    00000008     --HOLE-- [fill = 0]
                  70013370    00000048                                              : uart_v0_lld.obj (.text.UART_resetModule)
                  700133b8    00000008     --HOLE-- [fill = 0]
                  700133c0    00000046                                              : bootloader_soc.obj (.text.Bootloader_socGetCoreVariant)
                  70013406    0000000a     --HOLE-- [fill = 0]
                  70013410    00000046                                              : bootloader_soc.obj (.text.Bootloader_socIsR5FSSDual)
                  70013456    0000000a     --HOLE-- [fill = 0]
                  70013460    00000046                                              : csl_bcdma.obj (.text.CSL_bcdmaTeardownRxChan)
                  700134a6    0000000a     --HOLE-- [fill = 0]
                  700134b0    00000046                                              : csl_bcdma.obj (.text.CSL_bcdmaTeardownTxChan)
                  700134f6    0000000a     --HOLE-- [fill = 0]
                  70013500    00000046     nortos.am64x.r5f.ti-arm-clang.debug.lib : DebugP_uartLogWriter.obj (.text.DebugP_uartLogWriterPutChar)
                  70013546    0000000a     --HOLE-- [fill = 0]
                  70013550    00000046     drivers.am64x.r5f.ti-arm-clang.debug.lib : soc.obj (.text.SOC_getWarmResetCauseMcuDomain)
                  70013596    0000000a     --HOLE-- [fill = 0]
                  700135a0    00000046                                              : uart_v0_lld.obj (.text.UART_readLineStatus)
                  700135e6    0000000a     --HOLE-- [fill = 0]
                  700135f0    00000044                                              : csl_bcdma.obj (.text.CSL_bcdmaGetChanPeerReg)
                  70013634    0000000c     --HOLE-- [fill = 0]
                  70013640    00000044                                              : ddr.obj (.text.DDR_setFreq)
                  70013684    0000000c     --HOLE-- [fill = 0]
                  70013690    00000044                                              : soc.obj (.text.SOC_generateSwWarmResetMcuDomain)
                  700136d4    0000000c     --HOLE-- [fill = 0]
                  700136e0    00000044     nortos.am64x.r5f.ti-arm-clang.debug.lib : DebugP_nortos.obj (.text._DebugP_logZone)
                  70013724    0000000c     --HOLE-- [fill = 0]
                  70013730    00000044                                             : printf.obj (.text._strnlen_s)
                  70013774    0000000c     --HOLE-- [fill = 0]
                  70013780    00000042     drivers.am64x.r5f.ti-arm-clang.debug.lib : uart_dma_udma.obj (.text.CSL_udmapCppi5SetPktLen)
                  700137c2    0000000e     --HOLE-- [fill = 0]
                  700137d0    00000042     nortos.am64x.r5f.ti-arm-clang.debug.lib : ClockP_nortos.obj (.text.ClockP_start)
                  70013812    0000000e     --HOLE-- [fill = 0]
                  70013820    00000042     drivers.am64x.r5f.ti-arm-clang.debug.lib : sciclient_rm_irq.obj (.text.Sciclient_rmIrqGetNodeItf)
                  70013862    0000000e     --HOLE-- [fill = 0]
                  70013870    00000042                                              : uart_v0.obj (.text.UART_checkOpenParams)
                  700138b2    0000000e     --HOLE-- [fill = 0]
                  700138c0    00000042                                              : udma_utils.obj (.text.UdmaUtils_getRingMemSize)
                  70013902    0000000e     --HOLE-- [fill = 0]
                  70013910    00000040                                              : csl_lcdma_ringacc.obj (.text.CSL_lcdma_ringaccIsTeardownComplete)
                  70013950    00000040                                              : sciclient_rm_irq.obj (.text.Sciclient_rmIrqProgramOesRegister)
                  70013990    00000040                                              : sciclient_rm_irq.obj (.text.Sciclient_rmPsGetIfIdx)
                  700139d0    00000040                                              : sciclient_rm_irq.obj (.text.Sciclient_rmPsGetInp)
                  70013a10    00000040                                              : sciclient_rm_irq.obj (.text.Sciclient_rmPsGetOutp)
                  70013a50    0000003e                                              : bootloader_soc.obj (.text.Bootloader_enableMCUPLL)
                  70013a8e    00000002     --HOLE-- [fill = 0]
                  70013a90    0000003e                                              : csl_emif.obj (.text.CSL_emifDisableECC)
                  70013ace    00000002     --HOLE-- [fill = 0]
                  70013ad0    0000003e                                              : csl_emif.obj (.text.CSL_emifEnableECC)
                  70013b0e    00000002     --HOLE-- [fill = 0]
                  70013b10    0000003e                                              : ddr.obj (.text.DDR_isEnabled)
                  70013b4e    00000002     --HOLE-- [fill = 0]
                  70013b50    0000003e                                              : soc.obj (.text.SOC_clearResetCauseMainMcuDomain)
                  70013b8e    00000002     --HOLE-- [fill = 0]
                  70013b90    0000003e                                              : sciclient.obj (.text.Sciclient_secProxyWaitThread)
                  70013bce    00000002     --HOLE-- [fill = 0]
                  70013bd0    0000003e                                              : uart_v0_lld.obj (.text.UART_IsHWFlowCtrlValid)
                  70013c0e    00000002     --HOLE-- [fill = 0]
                  70013c10    0000003e                                              : uart_v0_lld.obj (.text.UART_IsRxTrigLvlValid)
                  70013c4e    00000002     --HOLE-- [fill = 0]
                  70013c50    0000003e                                              : uart_v0_lld.obj (.text.UART_IsTxTrigLvlValid)
                  70013c8e    00000002     --HOLE-- [fill = 0]
                  70013c90    0000003e                                              : uart_v0_lld.obj (.text.UART_i2310WA)
                  70013cce    00000002     --HOLE-- [fill = 0]
                  70013cd0    0000003e                                              : uart_v0_lld.obj (.text.UART_spaceAvail)
                  70013d0e    00000002     --HOLE-- [fill = 0]
                  70013d10    0000003c                                              : csl_bcdma.obj (.text.CSL_bcdmaSetChanPeerReg)
                  70013d4c    00000004     --HOLE-- [fill = 0]
                  70013d50    0000003c                                              : csl_intaggr.obj (.text.CSL_intaggrIsValidStatusBitNum)
                  70013d8c    00000004     --HOLE-- [fill = 0]
                  70013d90    0000003c                                              : csl_pktdma.obj (.text.CSL_pktdmaSetRxRT)
                  70013dcc    00000004     --HOLE-- [fill = 0]
                  70013dd0    0000003c                                              : csl_pktdma.obj (.text.CSL_pktdmaSetTxRT)
                  70013e0c    00000004     --HOLE-- [fill = 0]
                  70013e10    0000003c                                              : sciclient_rm_irq.obj (.text.Sciclient_rmIrqClearOesRegister)
                  70013e4c    00000004     --HOLE-- [fill = 0]
                  70013e50    0000003c     ti_drivers_config.obj (.text.System_init)
                  70013e8c    00000004     --HOLE-- [fill = 0]
                  70013e90    0000003c     drivers.am64x.r5f.ti-arm-clang.debug.lib : uart_v0_lld.obj (.text.UART_IsParityTypeValid)
                  70013ecc    00000004     --HOLE-- [fill = 0]
                  70013ed0    0000003c                                              : uart_v0_lld.obj (.text.UART_IsTxRxFifoEmpty)
                  70013f0c    00000004     --HOLE-- [fill = 0]
                  70013f10    0000003c                                              : uart_v0_lld.obj (.text.UART_enhanFuncEnable)
                  70013f4c    00000004     --HOLE-- [fill = 0]
                  70013f50    0000003c                                              : uart_dma_udma.obj (.text.UART_lld_dmaDeInit)
                  70013f8c    00000004     --HOLE-- [fill = 0]
                  70013f90    0000003a                                              : bootloader.obj (.text.Bootloader_rprcImageParseEntryPoint)
                  70013fca    00000006     --HOLE-- [fill = 0]
                  70013fd0    0000003a                                              : bootloader_soc.obj (.text.Bootloader_socIsMCUResetIsoEnabled)
                  7001400a    00000006     --HOLE-- [fill = 0]
                  70014010    0000003a                                              : lpddr4.obj (.text.LPDDR4_SanityFunction2)
                  7001404a    00000006     --HOLE-- [fill = 0]
                  70014050    0000003a     nortos.am64x.r5f.ti-arm-clang.debug.lib : printf.obj (.text._atoi)
                  7001408a    00000006     --HOLE-- [fill = 0]
                  70014090    00000038     drivers.am64x.r5f.ti-arm-clang.debug.lib : csl_bcdma.obj (.text.CSL_REG32_FINS_RAW)
                  700140c8    00000008     --HOLE-- [fill = 0]
                  700140d0    00000038                                              : soc.obj (.text.CSL_REG32_FINS_RAW)
                  70014108    00000008     --HOLE-- [fill = 0]
                  70014110    00000038                                              : bootloader_mem.obj (.text.Mem_imgRead)
                  70014148    00000008     --HOLE-- [fill = 0]
                  70014150    00000038                                              : sciclient.obj (.text.Sciclient_secProxyFlush)
                  70014188    00000008     --HOLE-- [fill = 0]
                  70014190    00000038                                              : uart_v0_lld.obj (.text.UART_writeDataPolling)
                  700141c8    00000008     --HOLE-- [fill = 0]
                  700141d0    00000036                                              : bootloader_mem.obj (.text.Mem_imgOpen)
                  70014206    0000000a     --HOLE-- [fill = 0]
                  70014210    00000034                                              : bootloader.obj (.text.Bootloader_close)
                  70014244    0000000c     --HOLE-- [fill = 0]
                  70014250    00000034                                              : bootloader_soc.obj (.text.Bootloader_socGetSciclientCpuClkId)
                  70014284    0000000c     --HOLE-- [fill = 0]
                  70014290    00000034                                              : bootloader_soc.obj (.text.Bootloader_socGetSciclientCpuDevId)
                  700142c4    0000000c     --HOLE-- [fill = 0]
                  700142d0    00000034                                              : csl_pktdma.obj (.text.CSL_pktdmaTeardownRxChan)
                  70014304    0000000c     --HOLE-- [fill = 0]
                  70014310    00000034                                              : csl_pktdma.obj (.text.CSL_pktdmaTeardownTxChan)
                  70014344    0000000c     --HOLE-- [fill = 0]
                  70014350    00000034                                              : lpddr4.obj (.text.LPDDR4_SanityFunction1)
                  70014384    0000000c     --HOLE-- [fill = 0]
                  70014390    00000034     nortos.am64x.r5f.ti-arm-clang.debug.lib : TimerP.obj (.text.TimerP_Params_init)
                  700143c4    0000000c     --HOLE-- [fill = 0]
                  700143d0    00000034     drivers.am64x.r5f.ti-arm-clang.debug.lib : uart_v0_lld.obj (.text.UART_IsDataLengthValid)
                  70014404    0000000c     --HOLE-- [fill = 0]
                  70014410    00000034                                              : uart_v0_lld.obj (.text.UART_checkTransaction)
                  70014444    0000000c     --HOLE-- [fill = 0]
                  70014450    00000032                                              : bootloader_soc.obj (.text.Bootloader_socGetSciclientCpuProcId)
                  70014482    0000000e     --HOLE-- [fill = 0]
                  70014490    00000032                                              : bootloader_soc.obj (.text.Bootloader_socMemInitCpu)
                  700144c2    0000000e     --HOLE-- [fill = 0]
                  700144d0    00000032                                              : uart_v0_lld.obj (.text.HW_WR_FIELD32_RAW)
                  70014502    0000000e     --HOLE-- [fill = 0]
                  70014510    00000032                                              : uart_v0_lld.obj (.text.UART_enhanFuncBitValRestore)
                  70014542    0000000e     --HOLE-- [fill = 0]
                  70014550    00000032                                              : uart_v0_lld.obj (.text.UART_hardwareFlowCtrlOptSet)
                  70014582    0000000e     --HOLE-- [fill = 0]
                  70014590    00000030                                              : bootloader.obj (.text.Bootloader_runSelfCpu)
                  700145c0    00000030                                              : csl_emif.obj (.text.CSL_emifConfig)
                  700145f0    00000030                                              : csl_pktdma.obj (.text.CSL_pktdmaGetChanPeerReg)
                  70014620    00000030                                              : csl_pktdma.obj (.text.CSL_pktdmaSetChanPeerReg)
                  70014650    00000030                                              : lpddr4.obj (.text.LPDDR4_Start)
                  70014680    00000030                                              : uart_v0_lld.obj (.text.UART_flowCtrlTrigLvlConfig)
                  700146b0    0000002e                                              : bootloader.obj (.text.Bootloader_bootCpu)
                  700146de    00000002     --HOLE-- [fill = 0]
                  700146e0    0000002e                                              : bootloader_soc.obj (.text.Bootloader_socCpuGetClkDefault)
                  7001470e    00000002     --HOLE-- [fill = 0]
                  70014710    0000002e                                              : bootloader_soc.obj (.text.Bootloader_socGetCoreName)
                  7001473e    00000002     --HOLE-- [fill = 0]
                  70014740    0000002e                                              : sciclient.obj (.text.CSL_secProxyGetMaxMsgSize)
                  7001476e    00000002     --HOLE-- [fill = 0]
                  70014770    0000002e                                              : sciclient_rm_irq.obj (.text.Sciclient_rmIaIsIa)
                  7001479e    00000002     --HOLE-- [fill = 0]
                  700147a0    0000002e                                              : sciclient_rm_irq.obj (.text.Sciclient_rmIrIsIr)
                  700147ce    00000002     --HOLE-- [fill = 0]
                  700147d0    0000002e                                              : sciclient.obj (.text.Sciclient_secProxyReadThread32)
                  700147fe    00000002     --HOLE-- [fill = 0]
                  70014800    0000002e                                              : uart_v0.obj (.text.UART_deinit)
                  7001482e    00000002     --HOLE-- [fill = 0]
                  70014830    0000002e     nortos.am64x.r5f.ti-arm-clang.debug.lib : printf.obj (.text._is_digit)
                  7001485e    00000002     --HOLE-- [fill = 0]
                  70014860    0000002c     drivers.am64x.r5f.ti-arm-clang.debug.lib : lpddr4.obj (.text.CPS_FldSet)
                  7001488c    00000004     --HOLE-- [fill = 0]
                  70014890    0000002c                                              : lpddr4_16bit.obj (.text.CPS_FldSet)
                  700148bc    00000004     --HOLE-- [fill = 0]
                  700148c0    0000002c                                              : csl_bcdma.obj (.text.CSL_bcdmaGetRxRT)
                  700148ec    00000004     --HOLE-- [fill = 0]
                  700148f0    0000002c                                              : csl_bcdma.obj (.text.CSL_bcdmaGetTxRT)
                  7001491c    00000004     --HOLE-- [fill = 0]
                  70014920    0000002c                                              : csl_bcdma.obj (.text.CSL_bcdmaSetRxRT)
                  7001494c    00000004     --HOLE-- [fill = 0]
                  70014950    0000002c                                              : csl_bcdma.obj (.text.CSL_bcdmaSetTxRT)
                  7001497c    00000004     --HOLE-- [fill = 0]
                  70014980    0000002c                                              : csl_emif.obj (.text.CSL_emifClearECCInterruptStatus)
                  700149ac    00000004     --HOLE-- [fill = 0]
                  700149b0    0000002c                                              : csl_emif.obj (.text.CSL_emifEnableECCInterrupts)
                  700149dc    00000004     --HOLE-- [fill = 0]
                  700149e0    0000002c                                              : csl_emif.obj (.text.CSL_emifIsEmifConfigValid)
                  70014a0c    00000004     --HOLE-- [fill = 0]
                  70014a10    0000002c     nortos.am64x.r5f.ti-arm-clang.debug.lib : DebugP_log.obj (.text.DebugP_logZoneEnable)
                  70014a3c    00000004     --HOLE-- [fill = 0]
                  70014a40    0000002c     drivers.am64x.r5f.ti-arm-clang.debug.lib : sciclient_rm_irq.obj (.text.Sciclient_getIrAddr)
                  70014a6c    00000004     --HOLE-- [fill = 0]
                  70014a70    0000002c     nortos.am64x.r5f.ti-arm-clang.debug.lib : SemaphoreP_nortos.obj (.text.SemaphoreP_constructBinary)
                  70014a9c    00000004     --HOLE-- [fill = 0]
                  70014aa0    0000002c                                             : TimerP.obj (.text.TimerP_clearOverflowInt)
                  70014acc    00000004     --HOLE-- [fill = 0]
                  70014ad0    0000002a     drivers.am64x.r5f.ti-arm-clang.debug.lib : bootloader_soc.obj (.text.Bootloader_socGetSelfCpuList)
                  70014afa    00000006     --HOLE-- [fill = 0]
                  70014b00    0000002a                                              : bootloader_soc.obj (.text.Bootloader_socInitM4fIram)
                  70014b2a    00000006     --HOLE-- [fill = 0]
                  70014b30    0000002a                                              : bootloader_soc.obj (.text.Bootloader_socResetWorkaround)
                  70014b5a    00000006     --HOLE-- [fill = 0]
                  70014b60    0000002a     nortos.am64x.r5f.ti-arm-clang.debug.lib : ClockP_nortos.obj (.text.ClockP_sleepTicks)
                  70014b8a    00000006     --HOLE-- [fill = 0]
                  70014b90    0000002a     drivers.am64x.r5f.ti-arm-clang.debug.lib : ddr.obj (.text.DDR_enableInlineECC)
                  70014bba    00000006     --HOLE-- [fill = 0]
                  70014bc0    0000002a                                              : sciclient_rm_irq.obj (.text.Sciclient_rmParamIsValid)
                  70014bea    00000006     --HOLE-- [fill = 0]
                  70014bf0    0000002a                                              : sciclient_rm_irq.obj (.text.Sciclient_rmPsIsEmpty)
                  70014c1a    00000006     --HOLE-- [fill = 0]
                  70014c20    0000002a     ti_drivers_config.obj (.text.System_deinit)
                  70014c4a    00000006     --HOLE-- [fill = 0]
                  70014c50    0000002a     drivers.am64x.r5f.ti-arm-clang.debug.lib : uart_v0.obj (.text.UART_Transaction_init)
                  70014c7a    00000006     --HOLE-- [fill = 0]
                  70014c80    0000002a                                              : uart_v0_lld.obj (.text.UART_intr2Disable)
                  70014caa    00000006     --HOLE-- [fill = 0]
                  70014cb0    0000002a                                              : uart_v0_lld.obj (.text.UART_lld_Transaction_init)
                  70014cda    00000006     --HOLE-- [fill = 0]
                  70014ce0    0000002a                                              : uart_dma_udma.obj (.text.UART_lld_dmaWrite)
                  70014d0a    00000006     --HOLE-- [fill = 0]
                  70014d10    0000002a                                              : uart_v0_lld.obj (.text.UART_operatingModeSelect)
                  70014d3a    00000006     --HOLE-- [fill = 0]
                  70014d40    0000002a                                              : udma_event.obj (.text.Udma_eventProgramSteering)
                  70014d6a    00000006     --HOLE-- [fill = 0]
                  70014d70    0000002a                                              : udma_event.obj (.text.Udma_eventResetSteering)
                  70014d9a    00000006     --HOLE-- [fill = 0]
                  70014da0    00000028                                              : lpddr4_16bit.obj (.text.CPS_FldWrite)
                  70014dc8    00000008     --HOLE-- [fill = 0]
                  70014dd0    00000028                                              : sciclient.obj (.text.Sciclient_secProxyVerifyThread)
                  70014df8    00000008     --HOLE-- [fill = 0]
                  70014e00    00000028     nortos.am64x.r5f.ti-arm-clang.debug.lib : printf.obj (.text.vprintf_)
                  70014e28    00000008     --HOLE-- [fill = 0]
                  70014e30    00000026     drivers.am64x.r5f.ti-arm-clang.debug.lib : lpddr4.obj (.text.LPDDR4_Probe)
                  70014e56    0000000a     --HOLE-- [fill = 0]
                  70014e60    00000026                                              : udma_ring_common.obj (.text.Udma_ringGetForwardRingOcc)
                  70014e86    0000000a     --HOLE-- [fill = 0]
                  70014e90    00000026                                              : udma_ring_common.obj (.text.Udma_ringGetReverseRingOcc)
                  70014eb6    0000000a     --HOLE-- [fill = 0]
                  70014ec0    00000024                                              : bootloader.obj (.text.Bootloader_CpuInfo_init)
                  70014ee4    0000000c     --HOLE-- [fill = 0]
                  70014ef0    00000024                                              : csl_bcdma.obj (.text.CSL_REG32_FEXT_RAW)
                  70014f14    0000000c     --HOLE-- [fill = 0]
                  70014f20    00000024                                              : csl_lcdma_ringacc.obj (.text.CSL_REG32_FEXT_RAW)
                  70014f44    0000000c     --HOLE-- [fill = 0]
                  70014f50    00000024                                              : csl_pktdma.obj (.text.CSL_REG32_FEXT_RAW)
                  70014f74    0000000c     --HOLE-- [fill = 0]
                  70014f80    00000024                                              : sciclient.obj (.text.CSL_REG32_FEXT_RAW)
                  70014fa4    0000000c     --HOLE-- [fill = 0]
                  70014fb0    00000024                                              : sciclient_rm_irq.obj (.text.CSL_REG32_FEXT_RAW)
                  70014fd4    0000000c     --HOLE-- [fill = 0]
                  70014fe0    00000024     nortos.am64x.r5f.ti-arm-clang.debug.lib : SemaphoreP_nortos.obj (.text.SemaphoreP_constructMutex)
                  70015004    0000000c     --HOLE-- [fill = 0]
                  70015010    00000024     drivers.am64x.r5f.ti-arm-clang.debug.lib : uart_v0_lld.obj (.text.UART_IsStopBitsValid)
                  70015034    00000024     libclang_rt.builtins.a : aeabi_uldivmod.S.obj (.text.__aeabi_uldivmod)
                  70015058    00000008     --HOLE-- [fill = 0]
                  70015060    00000024     nortos.am64x.r5f.ti-arm-clang.debug.lib : printf.obj (.text._out_char)
                  70015084    0000000c     --HOLE-- [fill = 0]
                  70015090    00000024                                             : boot_armv7r.obj (.text._system_pre_init)
                  700150b4    0000000c     --HOLE-- [fill = 0]
                  700150c0    00000022     drivers.am64x.r5f.ti-arm-clang.debug.lib : lpddr4.obj (.text.LPDDR4_SanityFunction3)
                  700150e2    0000000e     --HOLE-- [fill = 0]
                  700150f0    00000022                                              : udma_rm.obj (.text.Udma_rmTranslateCoreIntrInput)
                  70015112    0000000e     --HOLE-- [fill = 0]
                  70015120    00000022                                              : udma_rm.obj (.text.Udma_rmTranslateIrOutput)
                  70015142    0000000e     --HOLE-- [fill = 0]
                  70015150    00000020                                              : bootloader_soc.obj (.text.Bootloader_socNotifyFirewallOpen)
                  70015170    00000020     nortos.am64x.r5f.ti-arm-clang.debug.lib : ClockP_nortos.obj (.text.ClockP_isActive)
                  70015190    00000020                                             : ClockP_nortos.obj (.text.ClockP_usecToTicks)
                  700151b0    00000020     drivers.am64x.r5f.ti-arm-clang.debug.lib : uart_v0_lld.obj (.text.HW_RD_FIELD32_RAW)
                  700151d0    00000020     ti_pinmux_config.obj (.text.Pinmux_init)
                  700151f0    0000001e     drivers.am64x.r5f.ti-arm-clang.debug.lib : uart_dma_udma.obj (.text.CSL_udmapCppi5SetEpiDataPresent)
                  7001520e    00000002     --HOLE-- [fill = 0]
                  70015210    0000001e     nortos.am64x.r5f.ti-arm-clang.debug.lib : ClockP_nortos.obj (.text.ClockP_Params_init)
                  7001522e    00000002     --HOLE-- [fill = 0]
                  70015230    0000001e     drivers.am64x.r5f.ti-arm-clang.debug.lib : sciclient_rm_irq.obj (.text.Sciclient_rmPsGetIrqNode)
                  7001524e    00000002     --HOLE-- [fill = 0]
                  70015250    0000001e                                              : sciclient_rm_irq.obj (.text.Sciclient_rmPsInit)
                  7001526e    00000002     --HOLE-- [fill = 0]
                  70015270    0000001e                                              : uart_v0_lld.obj (.text.UART_breakCtl)
                  7001528e    00000002     --HOLE-- [fill = 0]
                  70015290    0000001e                                              : uart_v0_lld.obj (.text.UART_lld_Transaction_deInit)
                  700152ae    00000002     --HOLE-- [fill = 0]
                  700152b0    0000001e                                              : uart_v0_lld.obj (.text.UART_writeInterrupt)
                  700152ce    00000002     --HOLE-- [fill = 0]
                  700152d0    0000001e                                              : udma_ch.obj (.text.UdmaChPdmaPrms_init)
                  700152ee    00000002     --HOLE-- [fill = 0]
                  700152f0    0000001c                                              : csl_sec_proxy.obj (.text.CSL_secProxyGetDataAddr)
                  7001530c    00000004     --HOLE-- [fill = 0]
                  70015310    0000001c                                              : uart_v0_lld.obj (.text.UART_IsParameter)
                  7001532c    0000001c     libc.a : memcpy32.S.obj (.text:TI_memcpy_small)
                  70015348    00000008     --HOLE-- [fill = 0]
                  70015350    0000001a     drivers.am64x.r5f.ti-arm-clang.debug.lib : lpddr4_16bit.obj (.text.CPS_FldRead)
                  7001536a    00000006     --HOLE-- [fill = 0]
                  70015370    0000001a                                              : uart_dma_udma.obj (.text.CSL_udmapCppi5SetDescType)
                  7001538a    00000006     --HOLE-- [fill = 0]
                  70015390    0000001a                                              : lpddr4.obj (.text.LPDDR4_AddOffset)
                  700153aa    00000006     --HOLE-- [fill = 0]
                  700153b0    0000001a                                              : lpddr4.obj (.text.LPDDR4_ConfigSF)
                  700153ca    00000006     --HOLE-- [fill = 0]
                  700153d0    0000001a                                              : lpddr4.obj (.text.LPDDR4_PrivateDataSF)
                  700153ea    00000006     --HOLE-- [fill = 0]
                  700153f0    0000001a                                              : uart_v0_lld.obj (.text.UART_fifoCharGet)
                  7001540a    00000006     --HOLE-- [fill = 0]
                  70015410    0000001a                                              : uart_v0_lld.obj (.text.UART_timeGuardConfig)
                  7001542a    00000006     --HOLE-- [fill = 0]
                  70015430    00000018                                              : uart_dma_udma.obj (.text.CSL_udmapCppi5SetPsDataLen)
                  70015448    00000008     --HOLE-- [fill = 0]
                  70015450    00000018                                              : sciclient_rm.obj (.text.Sciclient_rmIrqSet)
                  70015468    00000008     --HOLE-- [fill = 0]
                  70015470    00000018                                              : sciclient.obj (.text.Sciclient_secProxyThreadStatusReg)
                  70015488    00000008     --HOLE-- [fill = 0]
                  70015490    00000018     nortos.am64x.r5f.ti-arm-clang.debug.lib : SemaphoreP_nortos.obj (.text.SemaphoreP_Params_init)
                  700154a8    00000008     --HOLE-- [fill = 0]
                  700154b0    00000018                                             : TimerP.obj (.text.TimerP_start)
                  700154c8    00000008     --HOLE-- [fill = 0]
                  700154d0    00000018                                             : TimerP.obj (.text.TimerP_stop)
                  700154e8    00000008     --HOLE-- [fill = 0]
                  700154f0    00000018     drivers.am64x.r5f.ti-arm-clang.debug.lib : uart_v0_lld.obj (.text.UART_divisorLatchDisable)
                  70015508    00000008     --HOLE-- [fill = 0]
                  70015510    00000018                                              : uart_v0_lld.obj (.text.UART_modemControlReset)
                  70015528    00000008     --HOLE-- [fill = 0]
                  70015530    00000018                                              : uart_v0_lld.obj (.text.UART_putChar)
                  70015548    00000018     libc.a : memset32.S.obj (.text:TI_memset_small)
                  70015560    00000016     drivers.am64x.r5f.ti-arm-clang.debug.lib : csl_intaggr.obj (.text.CSL_REG64_WR_RAW)
                  70015576    0000000a     --HOLE-- [fill = 0]
                  70015580    00000016                                              : uart_dma_udma.obj (.text.CSL_udmapCppi5LinkDesc)
                  70015596    0000000a     --HOLE-- [fill = 0]
                  700155a0    00000016                                              : uart_dma_udma.obj (.text.CSL_udmapCppi5SetBufferAddr)
                  700155b6    0000000a     --HOLE-- [fill = 0]
                  700155c0    00000016                                              : uart_dma_udma.obj (.text.CSL_udmapCppi5SetBufferLen)
                  700155d6    0000000a     --HOLE-- [fill = 0]
                  700155e0    00000016                                              : uart_dma_udma.obj (.text.CSL_udmapCppi5SetOrgBufferAddr)
                  700155f6    0000000a     --HOLE-- [fill = 0]
                  70015600    00000016                                              : uart_dma_udma.obj (.text.CSL_udmapCppi5SetPsDataLoc)
                  70015616    0000000a     --HOLE-- [fill = 0]
                  70015620    00000016                                              : uart_dma_udma.obj (.text.CSL_udmapCppi5SetPsFlags)
                  70015636    0000000a     --HOLE-- [fill = 0]
                  70015640    00000016                                              : sciclient_rm.obj (.text.Sciclient_rmIrqRelease)
                  70015656    0000000a     --HOLE-- [fill = 0]
                  70015660    00000016                                              : sciclient.obj (.text.Sciclient_secProxyReadThreadCount)
                  70015676    0000000a     --HOLE-- [fill = 0]
                  70015680    00000016                                              : uart_v0_lld.obj (.text.UART_divideRoundCloset)
                  70015696    0000000a     --HOLE-- [fill = 0]
                  700156a0    00000016                                              : uart_v0_lld.obj (.text.UART_regConfModeRestore)
                  700156b6    0000000a     --HOLE-- [fill = 0]
                  700156c0    00000014                                              : bootloader.obj (.text.Bootloader_Params_init)
                  700156d4    0000000c     --HOLE-- [fill = 0]
                  700156e0    00000014                                              : bootloader_soc.obj (.text.Bootloader_socSecHandover)
                  700156f4    0000000c     --HOLE-- [fill = 0]
                  70015700    00000014                                              : lpddr4.obj (.text.CPS_RegWrite)
                  70015714    0000000c     --HOLE-- [fill = 0]
                  70015720    00000014                                              : lpddr4_16bit.obj (.text.CPS_RegWrite)
                  70015734    0000000c     --HOLE-- [fill = 0]
                  70015740    00000014     nortos.am64x.r5f.ti-arm-clang.debug.lib : DebugP_uartLogWriter.obj (.text.DebugP_uartSetDrvIndex)
                  70015754    0000000c     --HOLE-- [fill = 0]
                  70015760    00000014     drivers.am64x.r5f.ti-arm-clang.debug.lib : bootloader_mem.obj (.text.Mem_imgSeek)
                  70015774    0000000c     --HOLE-- [fill = 0]
                  70015780    00000014                                              : sciclient_rm_irq.obj (.text.Sciclient_rmIrIntControlReg)
                  70015794    0000000c     --HOLE-- [fill = 0]
                  700157a0    00000014                                              : udma_rm.obj (.text.Udma_rmAllocFreeRing)
                  700157b4    0000000c     --HOLE-- [fill = 0]
                  700157c0    00000014     ti_dpl_config.obj (.text.putchar_)
                  700157d4    0000000c     --HOLE-- [fill = 0]
                  700157e0    00000012     drivers.am64x.r5f.ti-arm-clang.debug.lib : uart_dma_udma.obj (.text.CSL_udmapCppi5SetSrcTag)
                  700157f2    0000000e     --HOLE-- [fill = 0]
                  70015800    00000012     nortos.am64x.r5f.ti-arm-clang.debug.lib : TimerP.obj (.text.TimerP_getCount)
                  70015812    0000000e     --HOLE-- [fill = 0]
                  70015820    00000012                                             : TimerP.obj (.text.TimerP_getReloadCount)
                  70015832    0000000e     --HOLE-- [fill = 0]
                  70015840    00000010     drivers.am64x.r5f.ti-arm-clang.debug.lib : lpddr4.obj (.text.CPS_RegRead)
                  70015850    00000010                                              : lpddr4_16bit.obj (.text.CPS_RegRead)
                  70015860    00000010                                              : lpddr4.obj (.text.CPS_UncachedWrite32)
                  70015870    00000010                                              : bootloader_soc.obj (.text.CSL_REG32_WR_RAW)
                  70015880    00000010                                              : csl_bcdma.obj (.text.CSL_REG32_WR_RAW)
                  70015890    00000010                                              : csl_emif.obj (.text.CSL_REG32_WR_RAW)
                  700158a0    00000010                                              : csl_pktdma.obj (.text.CSL_REG32_WR_RAW)
                  700158b0    00000010                                              : pinmux.obj (.text.CSL_REG32_WR_RAW)
                  700158c0    00000010                                              : sciclient.obj (.text.CSL_REG32_WR_RAW)
                  700158d0    00000010                                              : soc.obj (.text.CSL_REG32_WR_RAW)
                  700158e0    00000010                                              : udma_ch.obj (.text.CSL_REG32_WR_RAW)
                  700158f0    00000010                                              : uart_dma_udma.obj (.text.CSL_udmapCppi5SetDstTag)
                  70015900    00000010                                              : uart_dma_udma.obj (.text.CSL_udmapCppi5SetOrgBufferLen)
                  70015910    00000010     nortos.am64x.r5f.ti-arm-clang.debug.lib : ClockP_nortos_r5.obj (.text.ClockP_getTimerCount)
                  70015920    00000010                                             : ClockP_nortos_r5.obj (.text.ClockP_timerClearOverflowInt)
                  70015930    00000010     drivers.am64x.r5f.ti-arm-clang.debug.lib : ddr.obj (.text.HW_RD_REG32_RAW)
                  70015940    00000010                                              : ddr_soc.obj (.text.HW_RD_REG32_RAW)
                  70015950    00000010                                              : uart_v0_lld.obj (.text.HW_RD_REG32_RAW)
                  70015960    00000010                                              : ddr.obj (.text.HW_WR_REG32_RAW)
                  70015970    00000010                                              : ddr_soc.obj (.text.HW_WR_REG32_RAW)
                  70015980    00000010                                              : uart_v0_lld.obj (.text.HW_WR_REG32_RAW)
                  70015990    00000010                                              : bootloader_mem.obj (.text.Mem_imgGetCurOffset)
                  700159a0    00000010                                              : udma_utils.obj (.text.Udma_defaultVirtToPhyFxn)
                  700159b0    00000010     nortos.am64x.r5f.ti-arm-clang.debug.lib : printf.obj (.text._out_null)
                  700159c0    0000000e     drivers.am64x.r5f.ti-arm-clang.debug.lib : csl_intaggr.obj (.text.CSL_REG64_RD_RAW)
                  700159ce    00000002     --HOLE-- [fill = 0]
                  700159d0    0000000c                                              : lpddr4.obj (.text.CPS_UncachedRead32)
                  700159dc    00000004     --HOLE-- [fill = 0]
                  700159e0    0000000c                                              : bootloader_soc.obj (.text.CSL_REG32_RD_RAW)
                  700159ec    00000004     --HOLE-- [fill = 0]
                  700159f0    0000000c                                              : csl_bcdma.obj (.text.CSL_REG32_RD_RAW)
                  700159fc    00000004     --HOLE-- [fill = 0]
                  70015a00    0000000c                                              : csl_lcdma_ringacc.obj (.text.CSL_REG32_RD_RAW)
                  70015a0c    00000004     --HOLE-- [fill = 0]
                  70015a10    0000000c                                              : csl_pktdma.obj (.text.CSL_REG32_RD_RAW)
                  70015a1c    00000004     --HOLE-- [fill = 0]
                  70015a20    0000000c                                              : sciclient.obj (.text.CSL_REG32_RD_RAW)
                  70015a2c    00000004     --HOLE-- [fill = 0]
                  70015a30    0000000c                                              : sciclient_rm_irq.obj (.text.CSL_REG32_RD_RAW)
                  70015a3c    00000004     --HOLE-- [fill = 0]
                  70015a40    0000000c                                              : soc.obj (.text.CSL_REG32_RD_RAW)
                  70015a4c    00000004     --HOLE-- [fill = 0]
                  70015a50    0000000c                                              : udma_ch.obj (.text.CSL_REG32_RD_RAW)
                  70015a5c    00000004     --HOLE-- [fill = 0]
                  70015a60    0000000c     nortos.am64x.r5f.ti-arm-clang.debug.lib : ClockP_nortos.obj (.text.ClockP_getTicks)
                  70015a6c    00000004     --HOLE-- [fill = 0]
                  70015a70    0000000c     ti_power_clock_config.obj (.text.PowerClock_init)
                  70015a7c    00000004     --HOLE-- [fill = 0]
                  70015a80    0000000c     drivers.am64x.r5f.ti-arm-clang.debug.lib : sciclient.obj (.text.Sciclient_deinit)
                  70015a8c    00000004     --HOLE-- [fill = 0]
                  70015a90    0000000c                                              : sciclient_rm_irq.obj (.text.Sciclient_rmPsGetPsp)
                  70015a9c    00000004     --HOLE-- [fill = 0]
                  70015aa0    0000000c                                              : udma_rm.obj (.text.Udma_rmFreeFreeRing)
                  70015aac    00000004     --HOLE-- [fill = 0]
                  70015ab0    0000000a                                              : bootloader_soc.obj (.text.Bootloader_socGetSBLMem)
                  70015aba    00000006     --HOLE-- [fill = 0]
                  70015ac0    0000000a     nortos.am64x.r5f.ti-arm-clang.debug.lib : HwiP_armv7r_vim.obj (.text.Hwip_dataAndInstructionBarrier)
                  70015aca    00000006     --HOLE-- [fill = 0]
                  70015ad0    0000000a     drivers.am64x.r5f.ti-arm-clang.debug.lib : bootloader_mem.obj (.text.Mem_imgClose)
                  70015ada    00000006     --HOLE-- [fill = 0]
                  70015ae0    00000008                                              : bootloader_soc.obj (.text.Bootloader_socWaitForFWBoot)
                  70015ae8    00000008     --HOLE-- [fill = 0]
                  70015af0    00000008     ti_drivers_open_close.obj (.text.Drivers_close)
                  70015af8    00000008     --HOLE-- [fill = 0]
                  70015b00    00000008     ti_drivers_open_close.obj (.text.Drivers_open)
                  70015b08    00000008     --HOLE-- [fill = 0]
                  70015b10    00000008     ti_drivers_config.obj (.text.Drivers_uartInit)
                  70015b18    00000008     --HOLE-- [fill = 0]
                  70015b20    00000008     ti_power_clock_config.obj (.text.PowerClock_deinit)
                  70015b28    00000008     --HOLE-- [fill = 0]
                  70015b30    00000008     nortos.am64x.r5f.ti-arm-clang.debug.lib : SemaphoreP_nortos.obj (.text.SemaphoreP_destruct)
                  70015b38    00000008     --HOLE-- [fill = 0]
                  70015b40    00000008     drivers.am64x.r5f.ti-arm-clang.debug.lib : uart_v0.obj (.text.UART_lld_errorCallback)
                  70015b48    00000008     --HOLE-- [fill = 0]
                  70015b50    00000008                                              : udma_ring_common.obj (.text.Udma_ringAssertFnPointers)
                  70015b58    00000008     --HOLE-- [fill = 0]
                  70015b60    00000004                                              : sciclient_rm_irq.obj (.text.Sciclient_rmPsGetMaxPsp)
                  70015b64    0000000c     --HOLE-- [fill = 0]
                  70015b70    00000004     libclang_rt.builtins.a : aeabi_div0.c.obj (.text.__aeabi_ldiv0)
                  70015b74    0000000c     --HOLE-- [fill = 0]
                  70015b80    00000002     ti_dpl_config.obj (.text.Dpl_deinit)
                  70015b82    0000000e     --HOLE-- [fill = 0]
                  70015b90    00000002     nortos.am64x.r5f.ti-arm-clang.debug.lib : TaskP_nortos.obj (.text.TaskP_yield)
                  70015b92    0000000e     --HOLE-- [fill = 0]

.text.hwi 
*          0    70015ba0    00000ae0     
                  70015ba0    000005c6     nortos.am64x.r5f.ti-arm-clang.debug.lib : HwiP_armv7r_vim.obj (.text.hwi)
                  70016166    0000000a     --HOLE-- [fill = 0]
                  70016170    000003d4                                             : HwiP_armv7r_handlers_nortos.obj (.text.hwi)
                  70016544    000000c0                                             : HwiP_armv7r_handlers_nortos_asm.obj (.text.hwi)
                  70016604    00000070                                             : HwiP_armv7r_asm.obj (.text.hwi)
                  70016674    0000000c     --HOLE-- [fill = 0]

.text.cache 
*          0    70016680    000004a0     
                  70016680    00000340     nortos.am64x.r5f.ti-arm-clang.debug.lib : CacheP_armv7r_asm.obj (.text.cache)
                  700169c0    00000158                                             : CacheP_armv7r.obj (.text.cache)
                  70016b18    00000008     --HOLE-- [fill = 0]

.text.mpu 
*          0    70016b20    000002c0     
                  70016b20    00000246     nortos.am64x.r5f.ti-arm-clang.debug.lib : MpuP_armv7r.obj (.text.mpu)
                  70016d66    00000002     --HOLE-- [fill = 0]
                  70016d68    00000078                                             : MpuP_armv7r_asm.obj (.text.mpu)

.text.boot 
*          0    70016de0    00000140     
                  70016de0    000000fc     nortos.am64x.r5f.ti-arm-clang.debug.lib : boot_armv7r_asm.obj (.text.boot)
                  70016edc    00000004     --HOLE-- [fill = 0]
                  70016ee0    00000024                                             : DebugP_log.obj (.text.boot)
                  70016f04    0000000c     --HOLE-- [fill = 0]
                  70016f10    0000000c     ti_dpl_config.obj (.text.boot)
                  70016f1c    00000004     --HOLE-- [fill = 0]

.data      0    70016f20    00002430     
                  70016f20    000007ec     ti_drivers_config.obj (.data.DDRSS_phyReg)
                  7001770c    0000069c     ti_drivers_config.obj (.data.DDRSS_ctlReg)
                  70017da8    00000564     ti_drivers_config.obj (.data.DDRSS_phyIndepReg)
                  7001830c    000003f6     ti_drivers_config.obj (.data.DDRSS_phyRegNum)
                  70018702    0000034e     ti_drivers_config.obj (.data.DDRSS_ctlRegNum)
                  70018a50    000002b2     ti_drivers_config.obj (.data.DDRSS_phyIndepRegNum)
                  70018d02    00000132     drivers.am64x.r5f.ti-arm-clang.debug.lib : lpddr4_16bit.obj (.data.CtlIntMap)
                  70018e34    000000c4                                              : bootloader_soc.obj (.data.gAddrTranslateInfo)
                  70018ef8    000000b8                                              : sciclient_irq_rm.obj (.data.vint_usage_count_DMASS0_INTAGGR_0)
                  70018fb0    000000a8                                              : bootloader_soc.obj (.data.gCoreBootInfo)
                  70019058    0000009c                                              : uart_v0.obj (.data.gUartDrvObj)
                  700190f4    00000060                                              : sciclient_irq_rm.obj (.data.gRmIrInstances)
                  70019154    00000058     ti_drivers_open_close.obj (.data.gUartParams)
                  700191ac    00000004     ti_drivers_config.obj (.data.gBootloaderConfigNum)
                  700191b0    00000038     ti_drivers_config.obj (.data.gDdrParams)
                  700191e8    00000028     ti_drivers_config.obj (.data.gBootloaderConfig)
                  70019210    00000020     drivers.am64x.r5f.ti-arm-clang.debug.lib : sciclient_irq_rm.obj (.data.gRmIaInstances)
                  70019230    00000020                                              : sciclient_soc_priv.obj (.data.gSciclientSecProxyCfg)
                  70019250    00000018     ti_dpl_config.obj (.data.gClockConfig)
                  70019268    00000018     ti_pinmux_config.obj (.data.gPinMuxMainDomainCfg)
                  70019280    00000018     drivers.am64x.r5f.ti-arm-clang.debug.lib : sciclient.obj (.data.gSciclientHandle)
                  70019298    00000018     ti_power_clock_config.obj (.data.gSocModulesClockFrequency)
                  700192b0    00000014     drivers.am64x.r5f.ti-arm-clang.debug.lib : bootloader_mem.obj (.data.gBootloaderMemFxns)
                  700192c4    00000014                                              : bootloader_soc.obj (.data.gResMemSection)
                  700192d8    00000014                                              : sciclient_irq_rm.obj (.data.rom_usage_DMASS0_INTAGGR_0)
                  700192ec    00000010     ti_power_clock_config.obj (.data.gSocModules)
                  700192fc    0000000c     nortos.am64x.r5f.ti-arm-clang.debug.lib : AddrTranslateP.obj (.data.gAddrTranslateConfig)
                  70019308    0000000c     drivers.am64x.r5f.ti-arm-clang.debug.lib : bootloader_soc.obj (.data.gBootloaderSelfCpuList)
                  70019314    00000008     ti_drivers_config.obj (.data.gBootloader0Args)
                  7001931c    00000008     ti_pinmux_config.obj (.data.gPinMuxMcuDomainCfg)
                  70019324    00000008     ti_drivers_config.obj (.data.gUartAttrs)
                  7001932c    00000008     ti_drivers_config.obj (.data.gUartConfig)
                  70019334    00000004     nortos.am64x.r5f.ti-arm-clang.debug.lib : DebugP_log.obj (.data.gDebugLogZone)
                  70019338    00000004                                             : DebugP_uartLogWriter.obj (.data.gDebugP_uartDrvIndex)
                  7001933c    00000004     ti_dpl_config.obj (.data.gHwiConfig)
                  70019340    00000004     ti_drivers_config.obj (.data.gUartConfigNum)
                  70019344    00000004     ti_drivers_open_close.obj (.data.gUartDmaChConfig)
                  70019348    00000004     ti_drivers_config.obj (.data.operatingMode)
                  7001934c    00000001     drivers.am64x.r5f.ti-arm-clang.debug.lib : sciclient.obj (.data.gSecHeaderSizeWords)
                  7001934d    00000003     --HOLE-- [fill = 0]

.rodata    0    70019350    00001780     
                  70019350    00000138     drivers.am64x.r5f.ti-arm-clang.debug.lib : udma_soc.obj (.rodata.gUdmaTxMappedChRingAttributes)
                  70019488    0000012c                                              : sciclient_fmwSecureProxyMap.obj (.rodata.gSciclientMap)
                  700195b4    0000009c                                              : udma_soc.obj (.rodata.gUdmaRxMappedChRingAttributes)
                  70019650    00000068                                              : sciclient_irq_rm.obj (.rodata.tisci_if_TIMESYNC_EVENT_INTROUTER0)
                  700196b8    00000064     ti_dpl_config.obj (.rodata.cfg)
                  7001971c    00000061     drivers.am64x.r5f.ti-arm-clang.debug.lib : bootloader.obj (.rodata.str1.27692862334559552701)
                  7001977d    00000003                                              : sciclient.obj (.rodata.str1.123851918244052356811)
                  70019780    00000058                                              : sciclient_irq_rm.obj (.rodata.gRmIrqTree)
                  700197d8    00000050     nortos.am64x.r5f.ti-arm-clang.debug.lib : printf.obj (.rodata._ftoa.pow10)
                  70019828    00000048     drivers.am64x.r5f.ti-arm-clang.debug.lib : bootloader_soc.obj (.rodata.gSOC_r5fVectors)
                  70019870    0000003e     nortos.am64x.r5f.ti-arm-clang.debug.lib : TimerP.obj (.rodata.str1.155618297627321921901)
                  700198ae    00000039     drivers.am64x.r5f.ti-arm-clang.debug.lib : sciclient.obj (.rodata.str1.33290974039123358371)
                  700198e7    00000037     nortos.am64x.r5f.ti-arm-clang.debug.lib : SemaphoreP_nortos.obj (.rodata.str1.77784356401422800491)
                  7001991e    00000036     drivers.am64x.r5f.ti-arm-clang.debug.lib : bootloader_soc.obj (.rodata.str1.116160357178768892221)
                  70019954    00000036                                              : ddr.obj (.rodata.str1.73433922848408513671)
                  7001998a    00000035     ti_drivers_open_close.obj (.rodata.str1.135241915826326793361)
                  700199bf    00000034     drivers.am64x.r5f.ti-arm-clang.debug.lib : bootloader_soc.obj (.rodata.str1.157368025196999440281)
                  700199f3    00000034     nortos.am64x.r5f.ti-arm-clang.debug.lib : TimerP.obj (.rodata.str1.164743418995849697991)
                  70019a27    00000001     --HOLE-- [fill = 0]
                  70019a28    00000034     drivers.am64x.r5f.ti-arm-clang.debug.lib : sciclient_irq_rm.obj (.rodata.tisci_if_MAIN_GPIOMUX_INTROUTER0)
                  70019a5c    00000033                                              : bootloader_soc.obj (.rodata.str1.104852797084389476111)
                  70019a8f    00000033                                              : bootloader_soc.obj (.rodata.str1.108560865512182149471)
                  70019ac2    00000032                                              : bootloader.obj (.rodata.str1.49453207730052505781)
                  70019af4    00000031                                              : bootloader_soc.obj (.rodata.str1.94938212298975674041)
                  70019b25    00000030                                              : bootloader_soc.obj (.rodata.str1.16279038217554379711)
                  70019b55    00000003     main.obj (.rodata.str1.176328792963337784071)
                  70019b58    00000030     drivers.am64x.r5f.ti-arm-clang.debug.lib : sciclient_irq_rm.obj (.rodata.tisci_if_DMASS0_INTAGGR_0)
                  70019b88    0000002f                                              : bootloader_soc.obj (.rodata.str1.93991859983843582671)
                  70019bb7    0000002f                                              : ddr.obj (.rodata.str1.94111967193122311561)
                  70019be6    0000002e     nortos.am64x.r5f.ti-arm-clang.debug.lib : ClockP_nortos.obj (.rodata.str1.60552435462749564001)
                  70019c14    0000002d     drivers.am64x.r5f.ti-arm-clang.debug.lib : ddr.obj (.rodata.str1.116939344651230115321)
                  70019c41    0000002d                                              : bootloader_soc.obj (.rodata.str1.163381840298971697551)
                  70019c6e    0000002d                                              : bootloader_soc.obj (.rodata.str1.58199765499228280441)
                  70019c9b    0000002c                                              : ddr.obj (.rodata.str1.115473847009400335091)
                  70019cc7    0000002c                                              : bootloader_soc.obj (.rodata.str1.126800844145081247951)
                  70019cf3    0000002c                                              : bootloader_soc.obj (.rodata.str1.130439613777423019031)
                  70019d1f    0000002c                                              : soc.obj (.rodata.str1.30948883670846405281)
                  70019d4b    0000002c                                              : bootloader.obj (.rodata.str1.38543240124036597621)
                  70019d77    0000002c                                              : ddr.obj (.rodata.str1.53769595288076202821)
                  70019da3    0000002c                                              : bootloader_soc.obj (.rodata.str1.67740237510159552421)
                  70019dcf    0000002b                                              : bootloader_soc.obj (.rodata.str1.103896507833577381681)
                  70019dfa    0000002b                                              : bootloader_soc.obj (.rodata.str1.10816064445523340901)
                  70019e25    0000002b                                              : bootloader_soc.obj (.rodata.str1.136315675252149246631)
                  70019e50    0000002b                                              : ddr.obj (.rodata.str1.79833557267131166431)
                  70019e7b    0000002a                                              : bootloader_soc.obj (.rodata.str1.108862625116848344691)
                  70019ea5    0000002a                                              : bootloader_soc.obj (.rodata.str1.38849067706911527761)
                  70019ecf    0000002a                                              : ddr.obj (.rodata.str1.44587981942987503481)
                  70019ef9    0000002a     nortos.am64x.r5f.ti-arm-clang.debug.lib : DebugP_log.obj (.rodata.str1.8568035916953519521)
                  70019f23    00000028     drivers.am64x.r5f.ti-arm-clang.debug.lib : ddr.obj (.rodata.str1.180652758740370262311)
                  70019f4b    00000027     nortos.am64x.r5f.ti-arm-clang.debug.lib : ClockP_nortos_r5.obj (.rodata.str1.124546920576200709321)
                  70019f72    00000025     drivers.am64x.r5f.ti-arm-clang.debug.lib : uart_dma_udma.obj (.rodata.str1.114986527709633033881)
                  70019f97    00000001     --HOLE-- [fill = 0]
                  70019f98    00000024                                              : sciclient_irq_rm.obj (.rodata.tisci_if_MCU_MCU_GPIOMUX_INTROUTER0)
                  70019fbc    00000023     nortos.am64x.r5f.ti-arm-clang.debug.lib : ClockP_nortos_r5.obj (.rodata.str1.25776369892830718361)
                  70019fdf    00000022     drivers.am64x.r5f.ti-arm-clang.debug.lib : bootloader_soc.obj (.rodata.str1.77336568927910017741)
                  7001a001    00000021                                              : bootloader_soc.obj (.rodata.str1.139984562005889438511)
                  7001a022    00000021     nortos.am64x.r5f.ti-arm-clang.debug.lib : ClockP_nortos_r5.obj (.rodata.str1.167645692065458388701)
                  7001a043    00000021     drivers.am64x.r5f.ti-arm-clang.debug.lib : bootloader_soc.obj (.rodata.str1.30913301665249982781)
                  7001a064    00000021                                              : bootloader_soc.obj (.rodata.str1.86709688509864093381)
                  7001a085    00000020                                              : uart_v0.obj (.rodata.str1.169394063705023262141)
                  7001a0a5    00000020     main.obj (.rodata.str1.52501554851255701521)
                  7001a0c5    00000003     --HOLE-- [fill = 0]
                  7001a0c8    00000020     drivers.am64x.r5f.ti-arm-clang.debug.lib : sciclient_irq_rm.obj (.rodata.tisci_if_CPTS0)
                  7001a0e8    0000001f                                              : bootloader_soc.obj (.rodata.str1.101965529428999861021)
                  7001a107    0000001f     nortos.am64x.r5f.ti-arm-clang.debug.lib : TimerP.obj (.rodata.str1.170816537386891942861)
                  7001a126    0000001f     drivers.am64x.r5f.ti-arm-clang.debug.lib : sciclient_boardcfg.obj (.rodata.str1.176112155955798027741)
                  7001a145    0000001f     nortos.am64x.r5f.ti-arm-clang.debug.lib : ClockP_nortos_r5.obj (.rodata.str1.37049961317335892191)
                  7001a164    0000001f                                             : SemaphoreP_nortos.obj (.rodata.str1.93106250239489445331)
                  7001a183    0000001e     drivers.am64x.r5f.ti-arm-clang.debug.lib : bootloader_soc.obj (.rodata.str1.135292914848480988261)
                  7001a1a1    0000001e                                              : sciclient.obj (.rodata.str1.78689533181356323901)
                  7001a1bf    0000001d                                              : uart_v0.obj (.rodata.str1.151873246111077803171)
                  7001a1dc    0000001d     nortos.am64x.r5f.ti-arm-clang.debug.lib : TimerP.obj (.rodata.str1.154036655774719862071)
                  7001a1f9    00000003     --HOLE-- [fill = 0]
                  7001a1fc    0000001c     drivers.am64x.r5f.ti-arm-clang.debug.lib : sciclient_irq_rm.obj (.rodata.tisci_if_PRU_ICSSG0)
                  7001a218    0000001c                                              : sciclient_irq_rm.obj (.rodata.tisci_if_PRU_ICSSG1)
                  7001a234    0000001b                                              : sciclient.obj (.rodata.str1.144645175443399417801)
                  7001a24f    0000001b     nortos.am64x.r5f.ti-arm-clang.debug.lib : ClockP_nortos.obj (.rodata.str1.25471646840808198631)
                  7001a26a    0000001b     main.obj (.rodata.str1.55841430354152434161)
                  7001a285    0000001b     drivers.am64x.r5f.ti-arm-clang.debug.lib : uart_dma_udma.obj (.rodata.str1.67818304883869641861)
                  7001a2a0    0000001a                                              : bootloader_soc.obj (.rodata.str1.133075567201283886171)
                  7001a2ba    0000001a                                              : sciclient.obj (.rodata.str1.13462214850640114411)
                  7001a2d4    0000001a     nortos.am64x.r5f.ti-arm-clang.debug.lib : TimerP.obj (.rodata.str1.160246686209138365701)
                  7001a2ee    0000001a                                             : ClockP_nortos_r5.obj (.rodata.str1.169616377957066558931)
                  7001a308    0000001a     drivers.am64x.r5f.ti-arm-clang.debug.lib : sciclient.obj (.rodata.str1.19960701266695328961)
                  7001a322    0000001a                                              : bootloader_soc.obj (.rodata.str1.35896618803728278211)
                  7001a33c    0000001a     main.obj (.rodata.str1.42969106790848045441)
                  7001a356    00000019     nortos.am64x.r5f.ti-arm-clang.debug.lib : TimerP.obj (.rodata.str1.170516325075394100231)
                  7001a36f    00000019     drivers.am64x.r5f.ti-arm-clang.debug.lib : bootloader_soc.obj (.rodata.str1.173612832747066941651)
                  7001a388    00000019                                              : bootloader_soc.obj (.rodata.str1.181541439651868024511)
                  7001a3a1    00000019                                              : bootloader.obj (.rodata.str1.31402796831322128521)
                  7001a3ba    00000018                                              : uart_v0.obj (.rodata.str1.144905129610797327471)
                  7001a3d2    00000002     --HOLE-- [fill = 0]
                  7001a3d4    00000018                                              : sciclient_irq_rm.obj (.rodata.tisci_if_CMP_EVENT_INTROUTER0)
                  7001a3ec    00000017                                              : bootloader.obj (.rodata.str1.89222897150519810611)
                  7001a403    00000016                                              : soc.obj (.rodata.str1.142142527847712988791)
                  7001a419    00000016                                              : uart_dma_udma.obj (.rodata.str1.58064152893147008181)
                  7001a42f    00000016                                              : bootloader.obj (.rodata.str1.77590506196607141261)
                  7001a445    00000015                                              : sciclient_boardcfg.obj (.rodata.str1.109139395166015870721)
                  7001a45a    00000015                                              : sciclient_boardcfg.obj (.rodata.str1.65453878383436959611)
                  7001a46f    00000015     nortos.am64x.r5f.ti-arm-clang.debug.lib : SemaphoreP_nortos.obj (.rodata.str1.67625122021398397081)
                  7001a484    00000014                                             : TimerP.obj (.rodata.str1.88986405623045072391)
                  7001a498    00000014     drivers.am64x.r5f.ti-arm-clang.debug.lib : sciclient_irq_rm.obj (.rodata.tisci_if_PCIE0)
                  7001a4ac    00000013                                              : uart_dma_udma.obj (.rodata.str1.145558629777882325291)
                  7001a4bf    00000013                                              : uart_dma_udma.obj (.rodata.str1.58816005642906289831)
                  7001a4d2    00000013                                              : uart_v0.obj (.rodata.str1.60965199449619900431)
                  7001a4e5    00000012                                              : uart_v0.obj (.rodata.str1.108170205221098943901)
                  7001a4f7    00000012                                              : uart_dma_udma.obj (.rodata.str1.120400024971159958011)
                  7001a509    00000012                                              : uart_dma_udma.obj (.rodata.str1.143756269692443897091)
                  7001a51b    00000012                                              : bootloader.obj (.rodata.str1.24728428003093102681)
                  7001a52d    00000012                                              : uart_v0.obj (.rodata.str1.62999113157451139141)
                  7001a53f    00000012                                              : uart_dma_udma.obj (.rodata.str1.92142058481998845101)
                  7001a551    00000011     ti_drivers_open_close.obj (.rodata.str1.47319419042038394831)
                  7001a562    00000011     nortos.am64x.r5f.ti-arm-clang.debug.lib : ClockP_nortos.obj (.rodata.str1.56392992661620616651)
                  7001a573    00000011     drivers.am64x.r5f.ti-arm-clang.debug.lib : uart_v0.obj (.rodata.str1.60774846955662521161)
                  7001a584    00000010                                              : sciclient_boardcfg.obj (.rodata.str1.50192617725484665461)
                  7001a594    00000010                                              : sciclient_irq_rm.obj (.rodata.tisci_if_CPSW0)
                  7001a5a4    0000000f                                              : ddr.obj (.rodata.str1.131304886953556701471)
                  7001a5b3    0000000d     nortos.am64x.r5f.ti-arm-clang.debug.lib : TimerP.obj (.rodata.str1.36936046049119147381)
                  7001a5c0    0000000d                                             : TimerP.obj (.rodata.str1.90798414294938570131)
                  7001a5cd    0000000c                                             : ClockP_nortos_r5.obj (.rodata.str1.43857604347425843821)
                  7001a5d9    0000000c     drivers.am64x.r5f.ti-arm-clang.debug.lib : ddr.obj (.rodata.str1.81852406950125532191)
                  7001a5e5    0000000c                                              : ddr.obj (.rodata.str1.85710523956929449421)
                  7001a5f1    0000000b                                              : uart_v0.obj (.rodata.str1.147565038505633975661)
                  7001a5fc    0000000b                                              : uart_v0.obj (.rodata.str1.163246704051681974461)
                  7001a607    0000000a                                              : ddr.obj (.rodata.str1.114661318390360142971)
                  7001a611    0000000a                                              : ddr.obj (.rodata.str1.127390676962817437421)
                  7001a61b    0000000a                                              : uart_v0.obj (.rodata.str1.181272059988846645511)
                  7001a625    0000000a                                              : uart_v0.obj (.rodata.str1.27933745631974480251)
                  7001a62f    0000000a     main.obj (.rodata.str1.97993385775340092391)
                  7001a639    00000001     --HOLE-- [fill = 0]
                  7001a63a    00000008     drivers.am64x.r5f.ti-arm-clang.debug.lib : sciclient_irq_rm.obj (.rodata.CMP_EVENT_INTROUTER0_outp_0_15_to_GICSS0_spi_48_63)
                  7001a642    00000008                                              : sciclient_irq_rm.obj (.rodata.CMP_EVENT_INTROUTER0_outp_16_23_to_R5FSS0_CORE0_intr_48_55)
                  7001a64a    00000008                                              : sciclient_irq_rm.obj (.rodata.CMP_EVENT_INTROUTER0_outp_16_23_to_R5FSS0_CORE1_intr_48_55)
                  7001a652    00000008                                              : sciclient_irq_rm.obj (.rodata.CMP_EVENT_INTROUTER0_outp_24_31_to_R5FSS1_CORE0_intr_48_55)
                  7001a65a    00000008                                              : sciclient_irq_rm.obj (.rodata.CMP_EVENT_INTROUTER0_outp_24_31_to_R5FSS1_CORE1_intr_48_55)
                  7001a662    00000008                                              : sciclient_irq_rm.obj (.rodata.CMP_EVENT_INTROUTER0_outp_32_39_to_DMASS0_INTAGGR_0_intaggr_levi_pend_0_7)
                  7001a66a    00000008                                              : sciclient_irq_rm.obj (.rodata.CPSW0_cpts_comp_0_0_to_CMP_EVENT_INTROUTER0_in_80_80)
                  7001a672    00000008                                              : sciclient_irq_rm.obj (.rodata.CPSW0_cpts_genf0_1_1_to_TIMESYNC_EVENT_INTROUTER0_in_21_21)
                  7001a67a    00000008                                              : sciclient_irq_rm.obj (.rodata.CPSW0_cpts_genf1_2_2_to_TIMESYNC_EVENT_INTROUTER0_in_22_22)
                  7001a682    00000008                                              : sciclient_irq_rm.obj (.rodata.CPSW0_cpts_sync_3_3_to_TIMESYNC_EVENT_INTROUTER0_in_34_34)
                  7001a68a    00000008                                              : sciclient_irq_rm.obj (.rodata.CPTS0_cpts_comp_0_0_to_CMP_EVENT_INTROUTER0_in_82_82)
                  7001a692    00000008                                              : sciclient_irq_rm.obj (.rodata.CPTS0_cpts_genf0_1_1_to_TIMESYNC_EVENT_INTROUTER0_in_16_16)
                  7001a69a    00000008                                              : sciclient_irq_rm.obj (.rodata.CPTS0_cpts_genf1_2_2_to_TIMESYNC_EVENT_INTROUTER0_in_17_17)
                  7001a6a2    00000008                                              : sciclient_irq_rm.obj (.rodata.CPTS0_cpts_genf2_3_3_to_TIMESYNC_EVENT_INTROUTER0_in_18_18)
                  7001a6aa    00000008                                              : sciclient_irq_rm.obj (.rodata.CPTS0_cpts_genf3_4_4_to_TIMESYNC_EVENT_INTROUTER0_in_19_19)
                  7001a6b2    00000008                                              : sciclient_irq_rm.obj (.rodata.CPTS0_cpts_genf4_5_5_to_TIMESYNC_EVENT_INTROUTER0_in_20_20)
                  7001a6ba    00000008                                              : sciclient_irq_rm.obj (.rodata.CPTS0_cpts_genf5_6_6_to_TIMESYNC_EVENT_INTROUTER0_in_24_24)
                  7001a6c2    00000008                                              : sciclient_irq_rm.obj (.rodata.CPTS0_cpts_sync_7_7_to_TIMESYNC_EVENT_INTROUTER0_in_35_35)
                  7001a6ca    00000008                                              : sciclient_irq_rm.obj (.rodata.DMASS0_INTAGGR_0_intaggr_vintr_pend_0_39_to_GICSS0_spi_64_103)
                  7001a6d2    00000008                                              : sciclient_irq_rm.obj (.rodata.DMASS0_INTAGGR_0_intaggr_vintr_pend_120_127_to_R5FSS1_CORE0_intr_8_15)
                  7001a6da    00000008                                              : sciclient_irq_rm.obj (.rodata.DMASS0_INTAGGR_0_intaggr_vintr_pend_128_135_to_R5FSS1_CORE1_intr_8_15)
                  7001a6e2    00000008                                              : sciclient_irq_rm.obj (.rodata.DMASS0_INTAGGR_0_intaggr_vintr_pend_152_159_to_PRU_ICSSG0_pr1_slv_intr_16_23)
                  7001a6ea    00000008                                              : sciclient_irq_rm.obj (.rodata.DMASS0_INTAGGR_0_intaggr_vintr_pend_160_167_to_PRU_ICSSG1_pr1_slv_intr_16_23)
                  7001a6f2    00000008                                              : sciclient_irq_rm.obj (.rodata.DMASS0_INTAGGR_0_intaggr_vintr_pend_168_183_to_MCU_M4FSS0_CORE0_nvic_32_47)
                  7001a6fa    00000008                                              : sciclient_irq_rm.obj (.rodata.DMASS0_INTAGGR_0_intaggr_vintr_pend_40_71_to_R5FSS0_CORE0_intr_64_95)
                  7001a702    00000008                                              : sciclient_irq_rm.obj (.rodata.DMASS0_INTAGGR_0_intaggr_vintr_pend_40_71_to_R5FSS0_CORE1_intr_64_95)
                  7001a70a    00000008                                              : sciclient_irq_rm.obj (.rodata.DMASS0_INTAGGR_0_intaggr_vintr_pend_72_79_to_R5FSS0_CORE0_intr_8_15)
                  7001a712    00000008                                              : sciclient_irq_rm.obj (.rodata.DMASS0_INTAGGR_0_intaggr_vintr_pend_80_87_to_R5FSS0_CORE1_intr_8_15)
                  7001a71a    00000008                                              : sciclient_irq_rm.obj (.rodata.DMASS0_INTAGGR_0_intaggr_vintr_pend_88_119_to_R5FSS1_CORE0_intr_64_95)
                  7001a722    00000008                                              : sciclient_irq_rm.obj (.rodata.DMASS0_INTAGGR_0_intaggr_vintr_pend_88_119_to_R5FSS1_CORE1_intr_64_95)
                  7001a72a    00000008                                              : sciclient_irq_rm.obj (.rodata.EPWM0_epwm_synco_o_0_0_to_TIMESYNC_EVENT_INTROUTER0_in_39_39)
                  7001a732    00000008                                              : sciclient_irq_rm.obj (.rodata.EPWM3_epwm_synco_o_0_0_to_TIMESYNC_EVENT_INTROUTER0_in_40_40)
                  7001a73a    00000008                                              : sciclient_irq_rm.obj (.rodata.EPWM6_epwm_synco_o_0_0_to_TIMESYNC_EVENT_INTROUTER0_in_41_41)
                  7001a742    00000008                                              : sciclient_irq_rm.obj (.rodata.GPIO0_gpio_0_89_to_MAIN_GPIOMUX_INTROUTER0_in_0_89)
                  7001a74a    00000008                                              : sciclient_irq_rm.obj (.rodata.GPIO0_gpio_bank_90_98_to_MAIN_GPIOMUX_INTROUTER0_in_190_198)
                  7001a752    00000008                                              : sciclient_irq_rm.obj (.rodata.GPIO1_gpio_0_89_to_MAIN_GPIOMUX_INTROUTER0_in_90_179)
                  7001a75a    00000008                                              : sciclient_irq_rm.obj (.rodata.GPIO1_gpio_bank_90_98_to_MAIN_GPIOMUX_INTROUTER0_in_180_188)
                  7001a762    00000008                                              : sciclient_irq_rm.obj (.rodata.GPMC0_gpmc_sdmareq_0_0_to_DMASS0_INTAGGR_0_intaggr_levi_pend_29_29)
                  7001a76a    00000008                                              : sciclient_irq_rm.obj (.rodata.GTC0_gtc_push_event_0_0_to_TIMESYNC_EVENT_INTROUTER0_in_36_36)
                  7001a772    00000008                                              : sciclient_irq_rm.obj (.rodata.MAIN_GPIOMUX_INTROUTER0_outp_0_15_to_GICSS0_spi_32_47)
                  7001a77a    00000008                                              : sciclient_irq_rm.obj (.rodata.MAIN_GPIOMUX_INTROUTER0_outp_0_15_to_R5FSS0_CORE0_intr_32_47)
                  7001a782    00000008                                              : sciclient_irq_rm.obj (.rodata.MAIN_GPIOMUX_INTROUTER0_outp_0_15_to_R5FSS0_CORE1_intr_32_47)
                  7001a78a    00000008                                              : sciclient_irq_rm.obj (.rodata.MAIN_GPIOMUX_INTROUTER0_outp_0_15_to_R5FSS1_CORE0_intr_32_47)
                  7001a792    00000008                                              : sciclient_irq_rm.obj (.rodata.MAIN_GPIOMUX_INTROUTER0_outp_0_15_to_R5FSS1_CORE1_intr_32_47)
                  7001a79a    00000008                                              : sciclient_irq_rm.obj (.rodata.MAIN_GPIOMUX_INTROUTER0_outp_16_17_to_DMASS0_INTAGGR_0_intaggr_levi_pend_24_25)
                  7001a7a2    00000008                                              : sciclient_irq_rm.obj (.rodata.MAIN_GPIOMUX_INTROUTER0_outp_18_23_to_PRU_ICSSG0_pr1_iep0_cap_intr_req_4_9)
                  7001a7aa    00000008                                              : sciclient_irq_rm.obj (.rodata.MAIN_GPIOMUX_INTROUTER0_outp_18_23_to_PRU_ICSSG1_pr1_iep0_cap_intr_req_4_9)
                  7001a7b2    00000008                                              : sciclient_irq_rm.obj (.rodata.MAIN_GPIOMUX_INTROUTER0_outp_24_29_to_PRU_ICSSG0_pr1_iep1_cap_intr_req_10_15)
                  7001a7ba    00000008                                              : sciclient_irq_rm.obj (.rodata.MAIN_GPIOMUX_INTROUTER0_outp_24_29_to_PRU_ICSSG1_pr1_iep1_cap_intr_req_10_15)
                  7001a7c2    00000008                                              : sciclient_irq_rm.obj (.rodata.MAIN_GPIOMUX_INTROUTER0_outp_30_37_to_DMASS0_INTAGGR_0_intaggr_levi_pend_16_23)
                  7001a7ca    00000008                                              : sciclient_irq_rm.obj (.rodata.MAIN_GPIOMUX_INTROUTER0_outp_38_45_to_PRU_ICSSG0_pr1_slv_intr_46_53)
                  7001a7d2    00000008                                              : sciclient_irq_rm.obj (.rodata.MAIN_GPIOMUX_INTROUTER0_outp_46_53_to_PRU_ICSSG1_pr1_slv_intr_46_53)
                  7001a7da    00000008                                              : sciclient_irq_rm.obj (.rodata.MCU_GPIO0_gpio_0_29_to_MCU_MCU_GPIOMUX_INTROUTER0_in_0_29)
                  7001a7e2    00000008                                              : sciclient_irq_rm.obj (.rodata.MCU_GPIO0_gpio_bank_30_31_to_MCU_MCU_GPIOMUX_INTROUTER0_in_30_31)
                  7001a7ea    00000008                                              : sciclient_irq_rm.obj (.rodata.MCU_MCU_GPIOMUX_INTROUTER0_outp_0_3_to_GICSS0_spi_104_107)
                  7001a7f2    00000008                                              : sciclient_irq_rm.obj (.rodata.MCU_MCU_GPIOMUX_INTROUTER0_outp_0_3_to_R5FSS0_CORE0_intr_104_107)
                  7001a7fa    00000008                                              : sciclient_irq_rm.obj (.rodata.MCU_MCU_GPIOMUX_INTROUTER0_outp_0_3_to_R5FSS0_CORE1_intr_104_107)
                  7001a802    00000008                                              : sciclient_irq_rm.obj (.rodata.MCU_MCU_GPIOMUX_INTROUTER0_outp_0_3_to_R5FSS1_CORE0_intr_104_107)
                  7001a80a    00000008                                              : sciclient_irq_rm.obj (.rodata.MCU_MCU_GPIOMUX_INTROUTER0_outp_0_3_to_R5FSS1_CORE1_intr_104_107)
                  7001a812    00000008                                              : sciclient_irq_rm.obj (.rodata.MCU_MCU_GPIOMUX_INTROUTER0_outp_4_7_to_MCU_M4FSS0_CORE0_nvic_0_3)
                  7001a81a    00000008                                              : sciclient_irq_rm.obj (.rodata.MCU_MCU_GPIOMUX_INTROUTER0_outp_8_11_to_MCU_ESM0_esm_pls_event0_88_91)
                  7001a822    00000008                                              : sciclient_irq_rm.obj (.rodata.MCU_MCU_GPIOMUX_INTROUTER0_outp_8_11_to_MCU_ESM0_esm_pls_event1_92_95)
                  7001a82a    00000008                                              : sciclient_irq_rm.obj (.rodata.MCU_MCU_GPIOMUX_INTROUTER0_outp_8_11_to_MCU_ESM0_esm_pls_event2_96_99)
                  7001a832    00000008                                              : sciclient_irq_rm.obj (.rodata.PCIE0_pcie_cpts_comp_0_0_to_CMP_EVENT_INTROUTER0_in_81_81)
                  7001a83a    00000008                                              : sciclient_irq_rm.obj (.rodata.PCIE0_pcie_cpts_genf0_1_1_to_TIMESYNC_EVENT_INTROUTER0_in_23_23)
                  7001a842    00000008                                              : sciclient_irq_rm.obj (.rodata.PCIE0_pcie_cpts_hw1_push_2_2_to_TIMESYNC_EVENT_INTROUTER0_in_37_37)
                  7001a84a    00000008                                              : sciclient_irq_rm.obj (.rodata.PCIE0_pcie_cpts_sync_3_3_to_TIMESYNC_EVENT_INTROUTER0_in_33_33)
                  7001a852    00000008                                              : sciclient_irq_rm.obj (.rodata.PCIE0_pcie_ptm_valid_pulse_4_4_to_TIMESYNC_EVENT_INTROUTER0_in_38_38)
                  7001a85a    00000008                                              : sciclient_irq_rm.obj (.rodata.PRU_ICSSG0_pr1_edc0_sync0_out_0_0_to_TIMESYNC_EVENT_INTROUTER0_in_25_25)
                  7001a862    00000008                                              : sciclient_irq_rm.obj (.rodata.PRU_ICSSG0_pr1_edc0_sync1_out_1_1_to_TIMESYNC_EVENT_INTROUTER0_in_26_26)
                  7001a86a    00000008                                              : sciclient_irq_rm.obj (.rodata.PRU_ICSSG0_pr1_edc1_sync0_out_2_2_to_TIMESYNC_EVENT_INTROUTER0_in_27_27)
                  7001a872    00000008                                              : sciclient_irq_rm.obj (.rodata.PRU_ICSSG0_pr1_edc1_sync1_out_3_3_to_TIMESYNC_EVENT_INTROUTER0_in_28_28)
                  7001a87a    00000008                                              : sciclient_irq_rm.obj (.rodata.PRU_ICSSG0_pr1_host_intr_req_4_11_to_CMP_EVENT_INTROUTER0_in_0_7)
                  7001a882    00000008                                              : sciclient_irq_rm.obj (.rodata.PRU_ICSSG0_pr1_iep0_cmp_intr_req_12_27_to_CMP_EVENT_INTROUTER0_in_16_31)
                  7001a88a    00000008                                              : sciclient_irq_rm.obj (.rodata.PRU_ICSSG0_pr1_iep1_cmp_intr_req_28_43_to_CMP_EVENT_INTROUTER0_in_32_47)
                  7001a892    00000008                                              : sciclient_irq_rm.obj (.rodata.PRU_ICSSG1_pr1_edc0_sync0_out_0_0_to_TIMESYNC_EVENT_INTROUTER0_in_29_29)
                  7001a89a    00000008                                              : sciclient_irq_rm.obj (.rodata.PRU_ICSSG1_pr1_edc0_sync1_out_1_1_to_TIMESYNC_EVENT_INTROUTER0_in_30_30)
                  7001a8a2    00000008                                              : sciclient_irq_rm.obj (.rodata.PRU_ICSSG1_pr1_edc1_sync0_out_2_2_to_TIMESYNC_EVENT_INTROUTER0_in_31_31)
                  7001a8aa    00000008                                              : sciclient_irq_rm.obj (.rodata.PRU_ICSSG1_pr1_edc1_sync1_out_3_3_to_TIMESYNC_EVENT_INTROUTER0_in_32_32)
                  7001a8b2    00000008                                              : sciclient_irq_rm.obj (.rodata.PRU_ICSSG1_pr1_host_intr_req_4_11_to_CMP_EVENT_INTROUTER0_in_8_15)
                  7001a8ba    00000008                                              : sciclient_irq_rm.obj (.rodata.PRU_ICSSG1_pr1_iep0_cmp_intr_req_12_27_to_CMP_EVENT_INTROUTER0_in_48_63)
                  7001a8c2    00000008                                              : sciclient_irq_rm.obj (.rodata.PRU_ICSSG1_pr1_iep1_cmp_intr_req_28_43_to_CMP_EVENT_INTROUTER0_in_64_79)
                  7001a8ca    00000008                                              : sciclient_irq_rm.obj (.rodata.TIMER0_timer_pwm_0_0_to_TIMESYNC_EVENT_INTROUTER0_in_0_0)
                  7001a8d2    00000008                                              : sciclient_irq_rm.obj (.rodata.TIMER1_timer_pwm_0_0_to_TIMESYNC_EVENT_INTROUTER0_in_1_1)
                  7001a8da    00000008                                              : sciclient_irq_rm.obj (.rodata.TIMER2_timer_pwm_0_0_to_TIMESYNC_EVENT_INTROUTER0_in_2_2)
                  7001a8e2    00000008                                              : sciclient_irq_rm.obj (.rodata.TIMER3_timer_pwm_0_0_to_TIMESYNC_EVENT_INTROUTER0_in_3_3)
                  7001a8ea    00000008                                              : sciclient_irq_rm.obj (.rodata.TIMESYNC_EVENT_INTROUTER0_outl_0_7_to_DMASS0_INTAGGR_0_intaggr_levi_pend_8_15)
                  7001a8f2    00000008                                              : sciclient_irq_rm.obj (.rodata.TIMESYNC_EVENT_INTROUTER0_outl_10_10_to_PRU_ICSSG0_pr1_edc1_latch0_in_2_2)
                  7001a8fa    00000008                                              : sciclient_irq_rm.obj (.rodata.TIMESYNC_EVENT_INTROUTER0_outl_11_11_to_PRU_ICSSG0_pr1_edc1_latch1_in_3_3)
                  7001a902    00000008                                              : sciclient_irq_rm.obj (.rodata.TIMESYNC_EVENT_INTROUTER0_outl_12_12_to_PRU_ICSSG1_pr1_edc0_latch0_in_0_0)
                  7001a90a    00000008                                              : sciclient_irq_rm.obj (.rodata.TIMESYNC_EVENT_INTROUTER0_outl_13_13_to_PRU_ICSSG1_pr1_edc0_latch1_in_1_1)
                  7001a912    00000008                                              : sciclient_irq_rm.obj (.rodata.TIMESYNC_EVENT_INTROUTER0_outl_14_14_to_PRU_ICSSG1_pr1_edc1_latch0_in_2_2)
                  7001a91a    00000008                                              : sciclient_irq_rm.obj (.rodata.TIMESYNC_EVENT_INTROUTER0_outl_15_15_to_PRU_ICSSG1_pr1_edc1_latch1_in_3_3)
                  7001a922    00000008                                              : sciclient_irq_rm.obj (.rodata.TIMESYNC_EVENT_INTROUTER0_outl_16_16_to_CPTS0_cpts_hw1_push_0_0)
                  7001a92a    00000008                                              : sciclient_irq_rm.obj (.rodata.TIMESYNC_EVENT_INTROUTER0_outl_17_17_to_CPTS0_cpts_hw2_push_1_1)
                  7001a932    00000008                                              : sciclient_irq_rm.obj (.rodata.TIMESYNC_EVENT_INTROUTER0_outl_18_18_to_CPTS0_cpts_hw3_push_2_2)
                  7001a93a    00000008                                              : sciclient_irq_rm.obj (.rodata.TIMESYNC_EVENT_INTROUTER0_outl_19_19_to_CPTS0_cpts_hw4_push_3_3)
                  7001a942    00000008                                              : sciclient_irq_rm.obj (.rodata.TIMESYNC_EVENT_INTROUTER0_outl_20_20_to_CPTS0_cpts_hw5_push_4_4)
                  7001a94a    00000008                                              : sciclient_irq_rm.obj (.rodata.TIMESYNC_EVENT_INTROUTER0_outl_21_21_to_CPTS0_cpts_hw6_push_5_5)
                  7001a952    00000008                                              : sciclient_irq_rm.obj (.rodata.TIMESYNC_EVENT_INTROUTER0_outl_22_22_to_CPTS0_cpts_hw7_push_6_6)
                  7001a95a    00000008                                              : sciclient_irq_rm.obj (.rodata.TIMESYNC_EVENT_INTROUTER0_outl_23_23_to_CPTS0_cpts_hw8_push_7_7)
                  7001a962    00000008                                              : sciclient_irq_rm.obj (.rodata.TIMESYNC_EVENT_INTROUTER0_outl_29_29_to_PCIE0_pcie_cpts_hw2_push_0_0)
                  7001a96a    00000008                                              : sciclient_irq_rm.obj (.rodata.TIMESYNC_EVENT_INTROUTER0_outl_30_30_to_CPSW0_cpts_hw1_push_0_0)
                  7001a972    00000008                                              : sciclient_irq_rm.obj (.rodata.TIMESYNC_EVENT_INTROUTER0_outl_31_31_to_CPSW0_cpts_hw2_push_1_1)
                  7001a97a    00000008                                              : sciclient_irq_rm.obj (.rodata.TIMESYNC_EVENT_INTROUTER0_outl_32_32_to_CPSW0_cpts_hw3_push_2_2)
                  7001a982    00000008                                              : sciclient_irq_rm.obj (.rodata.TIMESYNC_EVENT_INTROUTER0_outl_33_33_to_CPSW0_cpts_hw4_push_3_3)
                  7001a98a    00000008                                              : sciclient_irq_rm.obj (.rodata.TIMESYNC_EVENT_INTROUTER0_outl_34_34_to_CPSW0_cpts_hw5_push_4_4)
                  7001a992    00000008                                              : sciclient_irq_rm.obj (.rodata.TIMESYNC_EVENT_INTROUTER0_outl_35_35_to_CPSW0_cpts_hw6_push_5_5)
                  7001a99a    00000008                                              : sciclient_irq_rm.obj (.rodata.TIMESYNC_EVENT_INTROUTER0_outl_36_36_to_CPSW0_cpts_hw7_push_6_6)
                  7001a9a2    00000008                                              : sciclient_irq_rm.obj (.rodata.TIMESYNC_EVENT_INTROUTER0_outl_37_37_to_CPSW0_cpts_hw8_push_7_7)
                  7001a9aa    00000008                                              : sciclient_irq_rm.obj (.rodata.TIMESYNC_EVENT_INTROUTER0_outl_8_8_to_PRU_ICSSG0_pr1_edc0_latch0_in_0_0)
                  7001a9b2    00000008                                              : sciclient_irq_rm.obj (.rodata.TIMESYNC_EVENT_INTROUTER0_outl_9_9_to_PRU_ICSSG0_pr1_edc0_latch1_in_1_1)
                  7001a9ba    00000002     --HOLE-- [fill = 0]
                  7001a9bc    00000008                                              : sciclient_irq_rm.obj (.rodata.tisci_if_GPIO0)
                  7001a9c4    00000008                                              : sciclient_irq_rm.obj (.rodata.tisci_if_GPIO1)
                  7001a9cc    00000008                                              : sciclient_irq_rm.obj (.rodata.tisci_if_MCU_GPIO0)
                  7001a9d4    00000008                                              : sciclient_irq_rm.obj (.rodata.tisci_irq_CMP_EVENT_INTROUTER0)
                  7001a9dc    00000008                                              : sciclient_irq_rm.obj (.rodata.tisci_irq_CPSW0)
                  7001a9e4    00000008                                              : sciclient_irq_rm.obj (.rodata.tisci_irq_CPTS0)
                  7001a9ec    00000008                                              : sciclient_irq_rm.obj (.rodata.tisci_irq_DMASS0_INTAGGR_0)
                  7001a9f4    00000008                                              : sciclient_irq_rm.obj (.rodata.tisci_irq_EPWM0)
                  7001a9fc    00000008                                              : sciclient_irq_rm.obj (.rodata.tisci_irq_EPWM3)
                  7001aa04    00000008                                              : sciclient_irq_rm.obj (.rodata.tisci_irq_EPWM6)
                  7001aa0c    00000008                                              : sciclient_irq_rm.obj (.rodata.tisci_irq_GPIO0)
                  7001aa14    00000008                                              : sciclient_irq_rm.obj (.rodata.tisci_irq_GPIO1)
                  7001aa1c    00000008                                              : sciclient_irq_rm.obj (.rodata.tisci_irq_GPMC0)
                  7001aa24    00000008                                              : sciclient_irq_rm.obj (.rodata.tisci_irq_GTC0)
                  7001aa2c    00000008                                              : sciclient_irq_rm.obj (.rodata.tisci_irq_MAIN_GPIOMUX_INTROUTER0)
                  7001aa34    00000008                                              : sciclient_irq_rm.obj (.rodata.tisci_irq_MCU_GPIO0)
                  7001aa3c    00000008                                              : sciclient_irq_rm.obj (.rodata.tisci_irq_MCU_MCU_GPIOMUX_INTROUTER0)
                  7001aa44    00000008                                              : sciclient_irq_rm.obj (.rodata.tisci_irq_PCIE0)
                  7001aa4c    00000008                                              : sciclient_irq_rm.obj (.rodata.tisci_irq_PRU_ICSSG0)
                  7001aa54    00000008                                              : sciclient_irq_rm.obj (.rodata.tisci_irq_PRU_ICSSG1)
                  7001aa5c    00000008                                              : sciclient_irq_rm.obj (.rodata.tisci_irq_TIMER0)
                  7001aa64    00000008                                              : sciclient_irq_rm.obj (.rodata.tisci_irq_TIMER1)
                  7001aa6c    00000008                                              : sciclient_irq_rm.obj (.rodata.tisci_irq_TIMER2)
                  7001aa74    00000008                                              : sciclient_irq_rm.obj (.rodata.tisci_irq_TIMER3)
                  7001aa7c    00000008                                              : sciclient_irq_rm.obj (.rodata.tisci_irq_TIMESYNC_EVENT_INTROUTER0)
                  7001aa84    00000005     nortos.am64x.r5f.ti-arm-clang.debug.lib : printf.obj (.rodata.str1.180255128143303278211)
                  7001aa89    00000005     main.obj (.rodata.str1.61711049162809177441)
                  7001aa8e    00000005     nortos.am64x.r5f.ti-arm-clang.debug.lib : printf.obj (.rodata.str1.62992066646743021711)
                  7001aa93    00000001     --HOLE-- [fill = 0]
                  7001aa94    00000004                                             : CacheP_armv7r.obj (.rodata.gCacheL1dCacheLineSize)
                  7001aa98    00000004                                             : CacheP_armv7r.obj (.rodata.gCacheL1pCacheLineSize)
                  7001aa9c    00000004     drivers.am64x.r5f.ti-arm-clang.debug.lib : sciclient_irq_rm.obj (.rodata.gRmIrqTreeCount)
                  7001aaa0    00000004     nortos.am64x.r5f.ti-arm-clang.debug.lib : printf.obj (.rodata.str1.83442741595977738081)
                  7001aaa4    00000004                                             : printf.obj (.rodata.str1.92767893489218153371)
                  7001aaa8    00000004     drivers.am64x.r5f.ti-arm-clang.debug.lib : sciclient_irq_rm.obj (.rodata.tisci_if_EPWM0)
                  7001aaac    00000004                                              : sciclient_irq_rm.obj (.rodata.tisci_if_EPWM3)
                  7001aab0    00000004                                              : sciclient_irq_rm.obj (.rodata.tisci_if_EPWM6)
                  7001aab4    00000004                                              : sciclient_irq_rm.obj (.rodata.tisci_if_GPMC0)
                  7001aab8    00000004                                              : sciclient_irq_rm.obj (.rodata.tisci_if_GTC0)
                  7001aabc    00000004                                              : sciclient_irq_rm.obj (.rodata.tisci_if_TIMER0)
                  7001aac0    00000004                                              : sciclient_irq_rm.obj (.rodata.tisci_if_TIMER1)
                  7001aac4    00000004                                              : sciclient_irq_rm.obj (.rodata.tisci_if_TIMER2)
                  7001aac8    00000004                                              : sciclient_irq_rm.obj (.rodata.tisci_if_TIMER3)
                  7001aacc    00000004     --HOLE-- [fill = 0]

.bss       0    70054000    00001400     UNINITIALIZED
                  70054000    00001008     (.common:gHwiCtrl)
                  70055008    00000368     ti_drivers_config.obj (.bss.gUartObjects)
                  70055370    00000038     (.common:gClockCtrl)
                  700553a8    00000028     drivers.am64x.r5f.ti-arm-clang.debug.lib : sciclient_rm_irq.obj (.bss.gPstack)
                  700553d0    00000014                                              : ddr.obj (.bss.gLpddrPd)
                  700553e4    00000010                                              : ddr.obj (.bss.gLpddrCfg)
                  700553f4    00000004     nortos.am64x.r5f.ti-arm-clang.debug.lib : HwiP_armv7r_vim.obj (.bss.gdummy)
                  700553f8    00000004     (.common:gUartHandle)
                  700553fc    00000004     --HOLE--

.stack     0    70050000    00004000     UNINITIALIZED
                  70050000    00000004     nortos.am64x.r5f.ti-arm-clang.debug.lib : boot_armv7r_asm.obj (.stack)
                  70050004    00003ffc     --HOLE--

.irqstack 
*          0    70055400    00001000     UNINITIALIZED
                  70055400    00001000     --HOLE--

.fiqstack 
*          0    70056400    00000100     UNINITIALIZED
                  70056400    00000100     --HOLE--

.svcstack 
*          0    70056500    00000100     UNINITIALIZED
                  70056500    00000100     --HOLE--

.abortstack 
*          0    70056600    00000100     UNINITIALIZED
                  70056600    00000100     --HOLE--

.undefinedstack 
*          0    70056700    00000100     UNINITIALIZED
                  70056700    00000100     --HOLE--

__llvm_prf_cnts 
*          0    70050000    00000000     UNINITIALIZED

__llvm_prf_bits 
*          0    70050000    00000000     UNINITIALIZED

MODULE SUMMARY

       Module                                   code    ro data   rw data
       ------                                   ----    -------   -------
    obj/debug/
       ti_drivers_config.obj                    110     0         8654   
       main.obj                                 458     103       0      
       ti_drivers_open_close.obj                264     70        96     
       ti_power_clock_config.obj                264     0         40     
       ti_dpl_config.obj                        108     100       28     
       ti_pinmux_config.obj                     32      0         32     
    +--+----------------------------------------+-------+---------+---------+
       Total:                                   1236    273       8850   
                                                                         
    /home/epswbld5/ti/ccs1270/ccs/tools/compiler/ti-cgt-armllvm_3.2.2.LTS/lib/armv7r-ti-none-eabihf/c/libc.a
       autoinit.c.obj                           88      0         0      
       memcpy32.S.obj                           28      0         0      
       memset32.S.obj                           24      0         0      
       exit.c.obj                               8       0         0      
    +--+----------------------------------------+-------+---------+---------+
       Total:                                   148     0         0      
                                                                         
    /home/epswbld5/ti/ccs1270/ccs/tools/compiler/ti-cgt-armllvm_3.2.2.LTS/lib/clang/15.0.7/lib/armv7r-ti-none-eabihf/libclang_rt.builtins.a
       udivmoddi4.S.obj                         280     0         0      
       aeabi_uldivmod.S.obj                     36      0         0      
       aeabi_memset.S.obj                       12      0         0      
       aeabi_div0.c.obj                         4       0         0      
       aeabi_memcpy.S.obj                       4       0         0      
    +--+----------------------------------------+-------+---------+---------+
       Total:                                   336     0         0      
                                                                         
    /nightlybuilds/mcupsdk_internal/jenkins/mcu_plus_sdk_am64x_09_02_01_05/source/drivers/lib/drivers.am64x.r5f.ti-arm-clang.debug.lib
       sciclient_rm_irq.obj                     9578    0         40     
       udma_ch.obj                              7810    0         0      
       uart_v0_lld.obj                          7502    0         0      
       udma_rm.obj                              6232    0         0      
       bootloader_soc.obj                       4304    1155      396    
       csl_bcdma.obj                            4532    0         0      
       udma_event.obj                           4174    0         0      
       lpddr4_16bit.obj                         3442    0         306    
       uart_v0.obj                              2836    199       156    
       sciclient.obj                            2762    169       25     
       lpddr4.obj                               2712    0         0      
       uart_dma_udma.obj                        2340    178       0      
       ddr.obj                                  1996    418       36     
       sciclient_pm.obj                         1966    0         0      
       sciclient_irq_rm.obj                     0       1612      332    
       bootloader.obj                           1378    279       0      
       udma_ring_common.obj                     1534    0         0      
       soc.obj                                  1300    66        0      
       csl_pktdma.obj                           1136    0         0      
       sciclient_rm.obj                         944     0         0      
       sciclient_procboot.obj                   780     0         0      
       udma_soc.obj                             174     468       0      
       udma_flow.obj                            622     0         0      
       csl_emif.obj                             538     0         0      
       pinmux.obj                               490     0         0      
       sciclient_boardcfg.obj                   304     89        0      
       csl_intaggr.obj                          372     0         0      
       sciclient_fmwSecureProxyMap.obj          0       300       0      
       sciclient_soc_priv.obj                   232     0         32     
       udma_utils.obj                           178     0         0      
       bootloader_mem.obj                       156     0         20     
       sciclient_firewall.obj                   176     0         0      
       ddr_soc.obj                              140     0         0      
       csl_lcdma_ringacc.obj                    112     0         0      
       csl_sec_proxy.obj                        28      0         0      
    +--+----------------------------------------+-------+---------+---------+
       Total:                                   72780   4933      1343   
                                                                         
    /nightlybuilds/mcupsdk_internal/jenkins/mcu_plus_sdk_am64x_09_02_01_05/source/kernel/nortos/lib/nortos.am64x.r5f.ti-arm-clang.debug.lib
       printf.obj                               6684    98        0      
       HwiP_armv7r_vim.obj                      1488    0         4108   
       ClockP_nortos.obj                        1298    90        56     
       TimerP.obj                               814     271       0      
       HwiP_armv7r_handlers_nortos.obj          980     0         0      
       CacheP_armv7r_asm.obj                    832     0         0      
       SemaphoreP_nortos.obj                    534     107       0      
       MpuP_armv7r.obj                          582     0         0      
       ClockP_nortos_r5.obj                     348     176       0      
       CacheP_armv7r.obj                        344     8         0      
       boot_armv7r_asm.obj                      252     0         0      
       DebugP_log.obj                           204     42        4      
       AddrTranslateP.obj                       234     0         12     
       HwiP_armv7r_handlers_nortos_asm.obj      192     0         0      
       MpuP_armv7r_asm.obj                      120     0         0      
       HwiP_armv7r_asm.obj                      112     0         0      
       DebugP_uartLogWriter.obj                 90      0         4      
       DebugP_nortos.obj                        68      0         0      
       HwiP_armv7r_vectors_nortos_sbl_asm.obj   64      0         0      
       boot_armv7r.obj                          36      0         0      
       TaskP_nortos.obj                         2       0         0      
    +--+----------------------------------------+-------+---------+---------+
       Total:                                   15278   792       4184   
                                                                         
       Stack:                                   0       0         16384  
    +--+----------------------------------------+-------+---------+---------+
       Grand Total:                             89778   5998      30761  


GLOBAL SYMBOLS: SORTED ALPHABETICALLY BY Name 

address   name                                                                          
-------   ----                                                                          
7000b2b1  AddrTranslateP_getLocalAddr                                                   
700127e1  Bootloader_BootImageInfo_init                                                 
70014ec1  Bootloader_CpuInfo_init                                                       
700156c1  Bootloader_Params_init                                                        
700146b1  Bootloader_bootCpu                                                            
70010c71  Bootloader_bootSelfCpu                                                        
70014211  Bootloader_close                                                              
70013a51  Bootloader_enableMCUPLL                                                       
70010ff1  Bootloader_loadCpu                                                            
7000a651  Bootloader_loadSelfCpu                                                        
70010811  Bootloader_open                                                               
70009081  Bootloader_rprcImageLoad                                                      
70013f91  Bootloader_rprcImageParseEntryPoint                                           
7000edd1  Bootloader_runCpu                                                             
70014591  Bootloader_runSelfCpu                                                         
700146e1  Bootloader_socCpuGetClkDefault                                                
7000faf1  Bootloader_socCpuGetClock                                                     
70012d81  Bootloader_socCpuPowerOnReset                                                 
70010ab1  Bootloader_socCpuPowerOnResetA53                                              
7000b0c1  Bootloader_socCpuPowerOnResetM4f                                              
70004ec1  Bootloader_socCpuPowerOnResetR5f                                              
70011061  Bootloader_socCpuRelease                                                      
70011371  Bootloader_socCpuRequest                                                      
700052e1  Bootloader_socCpuResetRelease                                                 
700056d1  Bootloader_socCpuResetReleaseSelf                                             
7000e5b1  Bootloader_socCpuSetClock                                                     
7000e3d1  Bootloader_socCpuSetEntryPoint                                                
700123d1  Bootloader_socEnableICSSCores                                                 
70014711  Bootloader_socGetCoreName                                                     
700133c1  Bootloader_socGetCoreVariant                                                  
70010ce1  Bootloader_socGetR5fAtcmAddrAndSize                                           
70010b21  Bootloader_socGetR5fBtcmAddrAndSize                                           
70015ab1  Bootloader_socGetSBLMem                                                       
70014251  Bootloader_socGetSciclientCpuClkId                                            
70014291  Bootloader_socGetSciclientCpuDevId                                            
70014451  Bootloader_socGetSciclientCpuProcId                                           
70014ad1  Bootloader_socGetSelfCpuList                                                  
70014b01  Bootloader_socInitM4fIram                                                     
700113e1  Bootloader_socInitR5FAtcmBtcm                                                 
70013fd1  Bootloader_socIsMCUResetIsoEnabled                                            
70013411  Bootloader_socIsR5FSSDual                                                     
70014491  Bootloader_socMemInitCpu                                                      
70015151  Bootloader_socNotifyFirewallOpen                                              
7000bca1  Bootloader_socOpenFirewalls                                                   
70014b31  Bootloader_socResetWorkaround                                                 
700156e1  Bootloader_socSecHandover                                                     
7000e651  Bootloader_socTranslateSectionAddr                                            
70015ae1  Bootloader_socWaitForFWBoot                                                   
70001134  C$$EXIT                                                                       
7001a63a  CMP_EVENT_INTROUTER0_outp_0_15_to_GICSS0_spi_48_63                            
7001a642  CMP_EVENT_INTROUTER0_outp_16_23_to_R5FSS0_CORE0_intr_48_55                    
7001a64a  CMP_EVENT_INTROUTER0_outp_16_23_to_R5FSS0_CORE1_intr_48_55                    
7001a652  CMP_EVENT_INTROUTER0_outp_24_31_to_R5FSS1_CORE0_intr_48_55                    
7001a65a  CMP_EVENT_INTROUTER0_outp_24_31_to_R5FSS1_CORE1_intr_48_55                    
7001a662  CMP_EVENT_INTROUTER0_outp_32_39_to_DMASS0_INTAGGR_0_intaggr_levi_pend_0_7     
7001a66a  CPSW0_cpts_comp_0_0_to_CMP_EVENT_INTROUTER0_in_80_80                          
7001a672  CPSW0_cpts_genf0_1_1_to_TIMESYNC_EVENT_INTROUTER0_in_21_21                    
7001a67a  CPSW0_cpts_genf1_2_2_to_TIMESYNC_EVENT_INTROUTER0_in_22_22                    
7001a682  CPSW0_cpts_sync_3_3_to_TIMESYNC_EVENT_INTROUTER0_in_34_34                     
700159d1  CPS_UncachedRead32                                                            
70015861  CPS_UncachedWrite32                                                           
7001a68a  CPTS0_cpts_comp_0_0_to_CMP_EVENT_INTROUTER0_in_82_82                          
7001a692  CPTS0_cpts_genf0_1_1_to_TIMESYNC_EVENT_INTROUTER0_in_16_16                    
7001a69a  CPTS0_cpts_genf1_2_2_to_TIMESYNC_EVENT_INTROUTER0_in_17_17                    
7001a6a2  CPTS0_cpts_genf2_3_3_to_TIMESYNC_EVENT_INTROUTER0_in_18_18                    
7001a6aa  CPTS0_cpts_genf3_4_4_to_TIMESYNC_EVENT_INTROUTER0_in_19_19                    
7001a6b2  CPTS0_cpts_genf4_5_5_to_TIMESYNC_EVENT_INTROUTER0_in_20_20                    
7001a6ba  CPTS0_cpts_genf5_6_6_to_TIMESYNC_EVENT_INTROUTER0_in_24_24                    
7001a6c2  CPTS0_cpts_sync_7_7_to_TIMESYNC_EVENT_INTROUTER0_in_35_35                     
70007171  CSL_bcdmaChanOp                                                               
7000fb81  CSL_bcdmaGetCfg                                                               
700135f1  CSL_bcdmaGetChanPeerReg                                                       
700148c1  CSL_bcdmaGetRxRT                                                              
700148f1  CSL_bcdmaGetTxRT                                                              
70013d11  CSL_bcdmaSetChanPeerReg                                                       
70014921  CSL_bcdmaSetRxRT                                                              
70014951  CSL_bcdmaSetTxRT                                                              
70013461  CSL_bcdmaTeardownRxChan                                                       
700134b1  CSL_bcdmaTeardownTxChan                                                       
70014981  CSL_emifClearECCInterruptStatus                                               
700145c1  CSL_emifConfig                                                                
70013a91  CSL_emifDisableECC                                                            
70013ad1  CSL_emifEnableECC                                                             
700149b1  CSL_emifEnableECCInterrupts                                                   
70010881  CSL_intaggrClrIntr                                                            
7000dfd1  CSL_intaggrIsIntrPending                                                      
70013911  CSL_lcdma_ringaccIsTeardownComplete                                           
700145f1  CSL_pktdmaGetChanPeerReg                                                      
700130f1  CSL_pktdmaGetRxRT                                                             
70013141  CSL_pktdmaGetTxRT                                                             
70014621  CSL_pktdmaSetChanPeerReg                                                      
70013d91  CSL_pktdmaSetRxRT                                                             
70013dd1  CSL_pktdmaSetTxRT                                                             
700142d1  CSL_pktdmaTeardownRxChan                                                      
70014311  CSL_pktdmaTeardownTxChan                                                      
700152f1  CSL_secProxyGetDataAddr                                                       
70016990  CacheP_configForceWrThru                                                      
70016a51  CacheP_disable                                                                
70016680  CacheP_disableL1d                                                             
700166a8  CacheP_disableL1p                                                             
70016aa1  CacheP_enable                                                                 
700166c0  CacheP_enableL1d                                                              
700166d8  CacheP_enableL1p                                                              
70016984  CacheP_getCacheLevelInfo                                                      
7001694c  CacheP_getEnabled                                                             
700169c1  CacheP_init                                                                   
70016ae1  CacheP_inv                                                                    
700166f0  CacheP_invL1d                                                                 
70016764  CacheP_invL1dAll                                                              
70016728  CacheP_invL1p                                                                 
7001676c  CacheP_invL1pAll                                                              
700169b0  CacheP_setDLFO                                                                
70016774  CacheP_wb                                                                     
700167ec  CacheP_wbAll                                                                  
700167b0  CacheP_wbInv                                                                  
70016894  CacheP_wbInvAll                                                               
700168ac  CacheP_wbInvAllAsm                                                            
70015211  ClockP_Params_init                                                            
700108f1  ClockP_construct                                                              
7000dbb1  ClockP_destruct                                                               
70015a61  ClockP_getTicks                                                               
7000f371  ClockP_getTimeUsec                                                            
70015911  ClockP_getTimerCount                                                          
70008441  ClockP_init                                                                   
70015171  ClockP_isActive                                                               
700137d1  ClockP_start                                                                  
7000d101  ClockP_stop                                                                   
70015921  ClockP_timerClearOverflowInt                                                  
7000cf81  ClockP_timerTickIsr                                                           
70015191  ClockP_usecToTicks                                                            
70010791  ClockP_usleep                                                                 
7001770c  DDRSS_ctlReg                                                                  
70018702  DDRSS_ctlRegNum                                                               
70017da8  DDRSS_phyIndepReg                                                             
70018a50  DDRSS_phyIndepRegNum                                                          
70016f20  DDRSS_phyReg                                                                  
7001830c  DDRSS_phyRegNum                                                               
70014b91  DDR_enableInlineECC                                                           
7000e1e1  DDR_init                                                                      
70010d51  DDR_socEnableVttRegulator                                                     
7001a6ca  DMASS0_INTAGGR_0_intaggr_vintr_pend_0_39_to_GICSS0_spi_64_103                 
7001a6d2  DMASS0_INTAGGR_0_intaggr_vintr_pend_120_127_to_R5FSS1_CORE0_intr_8_15         
7001a6da  DMASS0_INTAGGR_0_intaggr_vintr_pend_128_135_to_R5FSS1_CORE1_intr_8_15         
7001a6e2  DMASS0_INTAGGR_0_intaggr_vintr_pend_152_159_to_PRU_ICSSG0_pr1_slv_intr_16_23  
7001a6ea  DMASS0_INTAGGR_0_intaggr_vintr_pend_160_167_to_PRU_ICSSG1_pr1_slv_intr_16_23  
7001a6f2  DMASS0_INTAGGR_0_intaggr_vintr_pend_168_183_to_MCU_M4FSS0_CORE0_nvic_32_47    
7001a6fa  DMASS0_INTAGGR_0_intaggr_vintr_pend_40_71_to_R5FSS0_CORE0_intr_64_95          
7001a702  DMASS0_INTAGGR_0_intaggr_vintr_pend_40_71_to_R5FSS0_CORE1_intr_64_95          
7001a70a  DMASS0_INTAGGR_0_intaggr_vintr_pend_72_79_to_R5FSS0_CORE0_intr_8_15           
7001a712  DMASS0_INTAGGR_0_intaggr_vintr_pend_80_87_to_R5FSS0_CORE1_intr_8_15           
7001a71a  DMASS0_INTAGGR_0_intaggr_vintr_pend_88_119_to_R5FSS1_CORE0_intr_64_95         
7001a722  DMASS0_INTAGGR_0_intaggr_vintr_pend_88_119_to_R5FSS1_CORE1_intr_64_95         
70014a11  DebugP_logZoneEnable                                                          
70013501  DebugP_uartLogWriterPutChar                                                   
70015741  DebugP_uartSetDrvIndex                                                        
70015b81  Dpl_deinit                                                                    
70013191  Dpl_init                                                                      
70015af1  Drivers_close                                                                 
70015b01  Drivers_open                                                                  
70012dd1  Drivers_uartClose                                                             
70015b11  Drivers_uartInit                                                              
7000dc61  Drivers_uartOpen                                                              
7001a72a  EPWM0_epwm_synco_o_0_0_to_TIMESYNC_EVENT_INTROUTER0_in_39_39                  
7001a732  EPWM3_epwm_synco_o_0_0_to_TIMESYNC_EVENT_INTROUTER0_in_40_40                  
7001a73a  EPWM6_epwm_synco_o_0_0_to_TIMESYNC_EVENT_INTROUTER0_in_41_41                  
7001a742  GPIO0_gpio_0_89_to_MAIN_GPIOMUX_INTROUTER0_in_0_89                            
7001a74a  GPIO0_gpio_bank_90_98_to_MAIN_GPIOMUX_INTROUTER0_in_190_198                   
7001a752  GPIO1_gpio_0_89_to_MAIN_GPIOMUX_INTROUTER0_in_90_179                          
7001a75a  GPIO1_gpio_bank_90_98_to_MAIN_GPIOMUX_INTROUTER0_in_180_188                   
7001a762  GPMC0_gpmc_sdmareq_0_0_to_DMASS0_INTAGGR_0_intaggr_levi_pend_29_29            
7001a76a  GTC0_gtc_push_event_0_0_to_TIMESYNC_EVENT_INTROUTER0_in_36_36                 
70015cf1  HwiP_Params_init                                                              
70015c71  HwiP_clearInt                                                                 
70015d21  HwiP_construct                                                                
700165b8  HwiP_data_abort_handler                                                       
70016511  HwiP_data_abort_handler_c                                                     
70015f21  HwiP_destruct                                                                 
70016604  HwiP_disable                                                                  
70016614  HwiP_disableFIQ                                                               
70015be1  HwiP_disableInt                                                               
7001665c  HwiP_disableVIC                                                               
70016624  HwiP_enable                                                                   
70016634  HwiP_enableFIQ                                                                
70015ba1  HwiP_enableInt                                                                
7001664c  HwiP_enableVIC                                                                
700162b1  HwiP_fiq_handler                                                              
7001666c  HwiP_getCPSR                                                                  
70016141  HwiP_inISR                                                                    
70015f91  HwiP_init                                                                     
70016544  HwiP_irq_handler                                                              
70016171  HwiP_irq_handler_c                                                            
70015cb1  HwiP_post                                                                     
700164d1  HwiP_prefetch_abort_handler                                                   
70016411  HwiP_reserved_handler                                                         
70016644  HwiP_restore                                                                  
70015c41  HwiP_restoreInt                                                               
70016491  HwiP_svc_handler                                                              
70016451  HwiP_undefined_handler                                                        
70008581  LPDDR4_AckCtlInterrupt                                                        
70012c01  LPDDR4_AckPhyIndepInterrupt                                                   
70015391  LPDDR4_AddOffset                                                              
70009ea1  LPDDR4_CheckCtlInterrupt                                                      
70011fb1  LPDDR4_CheckPhyIndepInterrupt                                                 
70010b91  LPDDR4_EnablePIInitiator                                                      
70013321  LPDDR4_Init                                                                   
7000f941  LPDDR4_PollCtlIrq                                                             
70014e31  LPDDR4_Probe                                                                  
7000ce01  LPDDR4_ReadReg                                                                
70014651  LPDDR4_Start                                                                  
70010e31  LPDDR4_WriteCtlConfig                                                         
70010ea1  LPDDR4_WritePhyConfig                                                         
70010f11  LPDDR4_WritePhyIndepConfig                                                    
7000d1c1  LPDDR4_WriteReg                                                               
7001a772  MAIN_GPIOMUX_INTROUTER0_outp_0_15_to_GICSS0_spi_32_47                         
7001a77a  MAIN_GPIOMUX_INTROUTER0_outp_0_15_to_R5FSS0_CORE0_intr_32_47                  
7001a782  MAIN_GPIOMUX_INTROUTER0_outp_0_15_to_R5FSS0_CORE1_intr_32_47                  
7001a78a  MAIN_GPIOMUX_INTROUTER0_outp_0_15_to_R5FSS1_CORE0_intr_32_47                  
7001a792  MAIN_GPIOMUX_INTROUTER0_outp_0_15_to_R5FSS1_CORE1_intr_32_47                  
7001a79a  MAIN_GPIOMUX_INTROUTER0_outp_16_17_to_DMASS0_INTAGGR_0_intaggr_levi_pend_24_25
7001a7a2  MAIN_GPIOMUX_INTROUTER0_outp_18_23_to_PRU_ICSSG0_pr1_iep0_cap_intr_req_4_9    
7001a7aa  MAIN_GPIOMUX_INTROUTER0_outp_18_23_to_PRU_ICSSG1_pr1_iep0_cap_intr_req_4_9    
7001a7b2  MAIN_GPIOMUX_INTROUTER0_outp_24_29_to_PRU_ICSSG0_pr1_iep1_cap_intr_req_10_15  
7001a7ba  MAIN_GPIOMUX_INTROUTER0_outp_24_29_to_PRU_ICSSG1_pr1_iep1_cap_intr_req_10_15  
7001a7c2  MAIN_GPIOMUX_INTROUTER0_outp_30_37_to_DMASS0_INTAGGR_0_intaggr_levi_pend_16_23
7001a7ca  MAIN_GPIOMUX_INTROUTER0_outp_38_45_to_PRU_ICSSG0_pr1_slv_intr_46_53           
7001a7d2  MAIN_GPIOMUX_INTROUTER0_outp_46_53_to_PRU_ICSSG1_pr1_slv_intr_46_53           
7001a7da  MCU_GPIO0_gpio_0_29_to_MCU_MCU_GPIOMUX_INTROUTER0_in_0_29                     
7001a7e2  MCU_GPIO0_gpio_bank_30_31_to_MCU_MCU_GPIOMUX_INTROUTER0_in_30_31              
7001a7ea  MCU_MCU_GPIOMUX_INTROUTER0_outp_0_3_to_GICSS0_spi_104_107                     
7001a7f2  MCU_MCU_GPIOMUX_INTROUTER0_outp_0_3_to_R5FSS0_CORE0_intr_104_107              
7001a7fa  MCU_MCU_GPIOMUX_INTROUTER0_outp_0_3_to_R5FSS0_CORE1_intr_104_107              
7001a802  MCU_MCU_GPIOMUX_INTROUTER0_outp_0_3_to_R5FSS1_CORE0_intr_104_107              
7001a80a  MCU_MCU_GPIOMUX_INTROUTER0_outp_0_3_to_R5FSS1_CORE1_intr_104_107              
7001a812  MCU_MCU_GPIOMUX_INTROUTER0_outp_4_7_to_MCU_M4FSS0_CORE0_nvic_0_3              
7001a81a  MCU_MCU_GPIOMUX_INTROUTER0_outp_8_11_to_MCU_ESM0_esm_pls_event0_88_91         
7001a822  MCU_MCU_GPIOMUX_INTROUTER0_outp_8_11_to_MCU_ESM0_esm_pls_event1_92_95         
7001a82a  MCU_MCU_GPIOMUX_INTROUTER0_outp_8_11_to_MCU_ESM0_esm_pls_event2_96_99         
70012f61  Module_clockDisable                                                           
70012fb1  Module_clockEnable                                                            
70012071  Module_clockSetFrequency                                                      
70016b21  MpuP_RegionAttrs_init                                                         
70016c51  MpuP_disable                                                                  
70016d68  MpuP_disableAsm                                                               
70016d80  MpuP_disableBRAsm                                                             
70016c91  MpuP_enable                                                                   
70016d90  MpuP_enableAsm                                                                
70016da8  MpuP_enableBRAsm                                                              
70016cd1  MpuP_init                                                                     
70016c41  MpuP_isEnable                                                                 
70016db8  MpuP_isEnableAsm                                                              
70016b51  MpuP_setRegion                                                                
70016dcc  MpuP_setRegionAsm                                                             
7001a832  PCIE0_pcie_cpts_comp_0_0_to_CMP_EVENT_INTROUTER0_in_81_81                     
7001a83a  PCIE0_pcie_cpts_genf0_1_1_to_TIMESYNC_EVENT_INTROUTER0_in_23_23               
7001a842  PCIE0_pcie_cpts_hw1_push_2_2_to_TIMESYNC_EVENT_INTROUTER0_in_37_37            
7001a84a  PCIE0_pcie_cpts_sync_3_3_to_TIMESYNC_EVENT_INTROUTER0_in_33_33                
7001a852  PCIE0_pcie_ptm_valid_pulse_4_4_to_TIMESYNC_EVENT_INTROUTER0_in_38_38          
7001a85a  PRU_ICSSG0_pr1_edc0_sync0_out_0_0_to_TIMESYNC_EVENT_INTROUTER0_in_25_25       
7001a862  PRU_ICSSG0_pr1_edc0_sync1_out_1_1_to_TIMESYNC_EVENT_INTROUTER0_in_26_26       
7001a86a  PRU_ICSSG0_pr1_edc1_sync0_out_2_2_to_TIMESYNC_EVENT_INTROUTER0_in_27_27       
7001a872  PRU_ICSSG0_pr1_edc1_sync1_out_3_3_to_TIMESYNC_EVENT_INTROUTER0_in_28_28       
7001a87a  PRU_ICSSG0_pr1_host_intr_req_4_11_to_CMP_EVENT_INTROUTER0_in_0_7              
7001a882  PRU_ICSSG0_pr1_iep0_cmp_intr_req_12_27_to_CMP_EVENT_INTROUTER0_in_16_31       
7001a88a  PRU_ICSSG0_pr1_iep1_cmp_intr_req_28_43_to_CMP_EVENT_INTROUTER0_in_32_47       
7001a892  PRU_ICSSG1_pr1_edc0_sync0_out_0_0_to_TIMESYNC_EVENT_INTROUTER0_in_29_29       
7001a89a  PRU_ICSSG1_pr1_edc0_sync1_out_1_1_to_TIMESYNC_EVENT_INTROUTER0_in_30_30       
7001a8a2  PRU_ICSSG1_pr1_edc1_sync0_out_2_2_to_TIMESYNC_EVENT_INTROUTER0_in_31_31       
7001a8aa  PRU_ICSSG1_pr1_edc1_sync1_out_3_3_to_TIMESYNC_EVENT_INTROUTER0_in_32_32       
7001a8b2  PRU_ICSSG1_pr1_host_intr_req_4_11_to_CMP_EVENT_INTROUTER0_in_8_15             
7001a8ba  PRU_ICSSG1_pr1_iep0_cmp_intr_req_12_27_to_CMP_EVENT_INTROUTER0_in_48_63       
7001a8c2  PRU_ICSSG1_pr1_iep1_cmp_intr_req_28_43_to_CMP_EVENT_INTROUTER0_in_64_79       
7000e511  Pinmux_config                                                                 
700151d1  Pinmux_init                                                                   
70010f81  Pinmux_lockMMR                                                                
7000be61  Pinmux_unlockMMR                                                              
70015b21  PowerClock_deinit                                                             
70015a71  PowerClock_init                                                               
70013b51  SOC_clearResetCauseMainMcuDomain                                              
70012c61  SOC_controlModuleLockMMR                                                      
7000e6f1  SOC_controlModuleUnlockMMR                                                    
70013691  SOC_generateSwWarmResetMcuDomain                                              
70013551  SOC_getWarmResetCauseMcuDomain                                                
7000c7a1  SOC_isR5FDualCoreMode                                                         
7000f411  SOC_moduleClockEnable                                                         
70005e21  SOC_moduleSetClockFrequency                                                   
7000ebf1  Sciclient_boardCfgPm                                                          
7000ec91  Sciclient_boardCfgRm                                                          
70015a81  Sciclient_deinit                                                              
70012431  Sciclient_firewallChangeOwnerInfo                                             
70012491  Sciclient_firewallSetRegion                                                   
7000e471  Sciclient_getContext                                                          
7000d4c1  Sciclient_getCurrentContext                                                   
700131e1  Sciclient_getDevId                                                            
7000afc1  Sciclient_getVersionCheck                                                     
7000ee71  Sciclient_init                                                                
7000e791  Sciclient_pmGetModuleClkFreq                                                  
7000de71  Sciclient_pmGetModuleClkNumParent                                             
7000e831  Sciclient_pmGetModuleClkParent                                                
7000f671  Sciclient_pmGetModuleState                                                    
7000f701  Sciclient_pmModuleClkRequest                                                  
7000ed31  Sciclient_pmModuleGetClkStatus                                                
70008f51  Sciclient_pmQueryModuleClkFreq                                                
7000a431  Sciclient_pmSetModuleClkFreq                                                  
7000e8d1  Sciclient_pmSetModuleClkParent                                                
70011e91  Sciclient_pmSetModuleRst                                                      
700114c1  Sciclient_pmSetModuleRst_flags                                                
7000f791  Sciclient_pmSetModuleState                                                    
70011531  Sciclient_procBootGetProcessorState                                           
7000fc11  Sciclient_procBootReleaseProcessor                                            
70011ef1  Sciclient_procBootRequestProcessor                                            
70012a81  Sciclient_procBootSetProcessorCfg                                             
7000e971  Sciclient_procBootSetSequenceCtrl                                             
7000bf41  Sciclient_procBootWaitProcessorState                                          
70006501  Sciclient_rmClearInterruptRoute                                               
70010961  Sciclient_rmGetResourceRange                                                  
7000ea11  Sciclient_rmIrOutpIsFree                                                      
70015641  Sciclient_rmIrqRelease                                                        
70012841  Sciclient_rmIrqReleaseRaw                                                     
70015451  Sciclient_rmIrqSet                                                            
700124f1  Sciclient_rmIrqSetRaw                                                         
700069d1  Sciclient_rmProgramInterruptRoute                                             
700128a1  Sciclient_rmPsilPair                                                          
70012901  Sciclient_rmPsilUnpair                                                        
700125b1  Sciclient_rmRingCfg                                                           
70012611  Sciclient_rmUdmapFlowCfg                                                      
70012671  Sciclient_rmUdmapFlowSizeThreshCfg                                            
700126d1  Sciclient_rmUdmapRxChCfg                                                      
70012731  Sciclient_rmUdmapTxChCfg                                                      
70002f81  Sciclient_service                                                             
70012191  Sciclient_triggerSecHandover                                                  
7000f231  Sciclient_waitForBootNotification                                             
70015491  SemaphoreP_Params_init                                                        
70012cc1  SemaphoreP_construct                                                          
70014a71  SemaphoreP_constructBinary                                                    
70014fe1  SemaphoreP_constructMutex                                                     
70015b31  SemaphoreP_destruct                                                           
7000aec1  SemaphoreP_pend                                                               
70011f51  SemaphoreP_post                                                               
70014c21  System_deinit                                                                 
70013e51  System_init                                                                   
7001a8ca  TIMER0_timer_pwm_0_0_to_TIMESYNC_EVENT_INTROUTER0_in_0_0                      
7001a8d2  TIMER1_timer_pwm_0_0_to_TIMESYNC_EVENT_INTROUTER0_in_1_1                      
7001a8da  TIMER2_timer_pwm_0_0_to_TIMESYNC_EVENT_INTROUTER0_in_2_2                      
7001a8e2  TIMER3_timer_pwm_0_0_to_TIMESYNC_EVENT_INTROUTER0_in_3_3                      
7001a8ea  TIMESYNC_EVENT_INTROUTER0_outl_0_7_to_DMASS0_INTAGGR_0_intaggr_levi_pend_8_15 
7001a8f2  TIMESYNC_EVENT_INTROUTER0_outl_10_10_to_PRU_ICSSG0_pr1_edc1_latch0_in_2_2     
7001a8fa  TIMESYNC_EVENT_INTROUTER0_outl_11_11_to_PRU_ICSSG0_pr1_edc1_latch1_in_3_3     
7001a902  TIMESYNC_EVENT_INTROUTER0_outl_12_12_to_PRU_ICSSG1_pr1_edc0_latch0_in_0_0     
7001a90a  TIMESYNC_EVENT_INTROUTER0_outl_13_13_to_PRU_ICSSG1_pr1_edc0_latch1_in_1_1     
7001a912  TIMESYNC_EVENT_INTROUTER0_outl_14_14_to_PRU_ICSSG1_pr1_edc1_latch0_in_2_2     
7001a91a  TIMESYNC_EVENT_INTROUTER0_outl_15_15_to_PRU_ICSSG1_pr1_edc1_latch1_in_3_3     
7001a922  TIMESYNC_EVENT_INTROUTER0_outl_16_16_to_CPTS0_cpts_hw1_push_0_0               
7001a92a  TIMESYNC_EVENT_INTROUTER0_outl_17_17_to_CPTS0_cpts_hw2_push_1_1               
7001a932  TIMESYNC_EVENT_INTROUTER0_outl_18_18_to_CPTS0_cpts_hw3_push_2_2               
7001a93a  TIMESYNC_EVENT_INTROUTER0_outl_19_19_to_CPTS0_cpts_hw4_push_3_3               
7001a942  TIMESYNC_EVENT_INTROUTER0_outl_20_20_to_CPTS0_cpts_hw5_push_4_4               
7001a94a  TIMESYNC_EVENT_INTROUTER0_outl_21_21_to_CPTS0_cpts_hw6_push_5_5               
7001a952  TIMESYNC_EVENT_INTROUTER0_outl_22_22_to_CPTS0_cpts_hw7_push_6_6               
7001a95a  TIMESYNC_EVENT_INTROUTER0_outl_23_23_to_CPTS0_cpts_hw8_push_7_7               
7001a962  TIMESYNC_EVENT_INTROUTER0_outl_29_29_to_PCIE0_pcie_cpts_hw2_push_0_0          
7001a96a  TIMESYNC_EVENT_INTROUTER0_outl_30_30_to_CPSW0_cpts_hw1_push_0_0               
7001a972  TIMESYNC_EVENT_INTROUTER0_outl_31_31_to_CPSW0_cpts_hw2_push_1_1               
7001a97a  TIMESYNC_EVENT_INTROUTER0_outl_32_32_to_CPSW0_cpts_hw3_push_2_2               
7001a982  TIMESYNC_EVENT_INTROUTER0_outl_33_33_to_CPSW0_cpts_hw4_push_3_3               
7001a98a  TIMESYNC_EVENT_INTROUTER0_outl_34_34_to_CPSW0_cpts_hw5_push_4_4               
7001a992  TIMESYNC_EVENT_INTROUTER0_outl_35_35_to_CPSW0_cpts_hw6_push_5_5               
7001a99a  TIMESYNC_EVENT_INTROUTER0_outl_36_36_to_CPSW0_cpts_hw7_push_6_6               
7001a9a2  TIMESYNC_EVENT_INTROUTER0_outl_37_37_to_CPSW0_cpts_hw8_push_7_7               
7001a9aa  TIMESYNC_EVENT_INTROUTER0_outl_8_8_to_PRU_ICSSG0_pr1_edc0_latch0_in_0_0       
7001a9b2  TIMESYNC_EVENT_INTROUTER0_outl_9_9_to_PRU_ICSSG0_pr1_edc0_latch1_in_1_1       
7001532c  TI_memcpy_small                                                               
70015548  TI_memset_small                                                               
70015b91  TaskP_yield                                                                   
70014391  TimerP_Params_init                                                            
70014aa1  TimerP_clearOverflowInt                                                       
70015801  TimerP_getCount                                                               
70015821  TimerP_getReloadCount                                                         
700037d1  TimerP_setup                                                                  
700154b1  TimerP_start                                                                  
700154d1  TimerP_stop                                                                   
70013ed1  UART_IsTxRxFifoEmpty                                                          
70010411  UART_Params_init                                                              
70014c51  UART_Transaction_init                                                         
70012e21  UART_checkCharsAvailInFifo                                                    
70005fe1  UART_close                                                                    
70014801  UART_deinit                                                                   
7000cae1  UART_flushTxFifo                                                              
70011d11  UART_getChar                                                                  
70012ec1  UART_getHandle                                                                
70013231  UART_getIntrIdentityStatus                                                    
7000d581  UART_init                                                                     
70014c81  UART_intr2Disable                                                             
7000bae1  UART_intrDisable                                                              
7000b841  UART_intrEnable                                                               
70015291  UART_lld_Transaction_deInit                                                   
70014cb1  UART_lld_Transaction_init                                                     
700061a1  UART_lld_controllerIsr                                                        
700121f1  UART_lld_deInit                                                               
70011681  UART_lld_deInitDma                                                            
70013f51  UART_lld_dmaDeInit                                                            
7000f2d1  UART_lld_dmaDisableChannel                                                    
700132d1  UART_lld_dmaInit                                                              
70014ce1  UART_lld_dmaWrite                                                             
7000fdc1  UART_lld_flushTxFifo                                                          
70008e21  UART_lld_init                                                                 
70007b41  UART_lld_initDma                                                              
7000c021  UART_lld_write                                                                
7000c531  UART_lld_writeDma                                                             
7000c871  UART_lld_writeIntr                                                            
70001ae1  UART_open                                                                     
70014d11  UART_operatingModeSelect                                                      
70008301  UART_procLineStatusErr                                                        
70015531  UART_putChar                                                                  
700135a1  UART_readLineStatus                                                           
70013cd1  UART_spaceAvail                                                               
70006351  UART_write                                                                    
7000f8b1  UART_writeCancelNoCB                                                          
700152d1  UdmaChPdmaPrms_init                                                           
70010dc1  UdmaChPrms_init                                                               
7000d791  UdmaChRxPrms_init                                                             
7000d841  UdmaChTxPrms_init                                                             
700118b1  UdmaEventPrms_init                                                            
7000f0f1  UdmaFlowPrms_init                                                             
70012ba1  UdmaRingPrms_init                                                             
700138c1  UdmaUtils_getRingMemSize                                                      
7000cbb1  Udma_chClose                                                                  
70006e81  Udma_chConfigPdma                                                             
70003cc1  Udma_chConfigRx                                                               
700066a1  Udma_chConfigTx                                                               
7000d8f1  Udma_chDisable                                                                
70010691  Udma_chEnable                                                                 
70010591  Udma_chGetCqRingHandle                                                        
70010611  Udma_chGetFqRingHandle                                                        
700072e1  Udma_chOpen                                                                   
700159a1  Udma_defaultVirtToPhyFxn                                                      
700129c1  Udma_eventGetGlobalHandle                                                     
700130a1  Udma_eventGetId                                                               
70004861  Udma_eventRegister                                                            
7000c941  Udma_eventUnRegister                                                          
700058b1  Udma_flowConfig                                                               
7000d6e1  Udma_getMappedChRingAttributes                                                
700050d1  Udma_ringAlloc                                                                
7000f191  Udma_ringDequeueRaw                                                           
7000fa61  Udma_ringFlushRaw                                                             
7000c6d1  Udma_ringFree                                                                 
70014e61  Udma_ringGetForwardRingOcc                                                    
70014e91  Udma_ringGetReverseRingOcc                                                    
7000eab1  Udma_ringQueueRaw                                                             
700091b1  Udma_rmAllocBlkCopyCh                                                         
700092e1  Udma_rmAllocBlkCopyHcCh                                                       
70009411  Udma_rmAllocBlkCopyUhcCh                                                      
7000e291  Udma_rmAllocEvent                                                             
700157a1  Udma_rmAllocFreeRing                                                          
70008cf1  Udma_rmAllocIrIntr                                                            
70008081  Udma_rmAllocMappedRing                                                        
700075c1  Udma_rmAllocMappedRxCh                                                        
70007721  Udma_rmAllocMappedTxCh                                                        
70009541  Udma_rmAllocRxCh                                                              
70009671  Udma_rmAllocRxHcCh                                                            
700097a1  Udma_rmAllocRxUhcCh                                                           
700098d1  Udma_rmAllocTxCh                                                              
70009a01  Udma_rmAllocTxHcCh                                                            
70009b31  Udma_rmAllocTxUhcCh                                                           
7000e331  Udma_rmAllocVintr                                                             
7000c2c1  Udma_rmAllocVintrBit                                                          
70011921  Udma_rmFreeBlkCopyCh                                                          
70011991  Udma_rmFreeBlkCopyHcCh                                                        
70011a01  Udma_rmFreeBlkCopyUhcCh                                                       
700116f1  Udma_rmFreeEvent                                                              
70015aa1  Udma_rmFreeFreeRing                                                           
70011761  Udma_rmFreeIrIntr                                                             
7000f551  Udma_rmFreeMappedRing                                                         
700109d1  Udma_rmFreeMappedRxCh                                                         
70010a41  Udma_rmFreeMappedTxCh                                                         
70011a71  Udma_rmFreeRxCh                                                               
70011ae1  Udma_rmFreeRxHcCh                                                             
70011b51  Udma_rmFreeRxUhcCh                                                            
70011bc1  Udma_rmFreeTxCh                                                               
70011c31  Udma_rmFreeTxHcCh                                                             
70011ca1  Udma_rmFreeTxUhcCh                                                            
700117d1  Udma_rmFreeVintr                                                              
7000fca1  Udma_rmFreeVintrBit                                                           
700150f1  Udma_rmTranslateCoreIntrInput                                                 
70015121  Udma_rmTranslateIrOutput                                                      
70011dd1  Udma_virtToPhyFxn                                                             
70010391  _DebugP_assert                                                                
70016ee1  _DebugP_assertNoLog                                                           
700136e1  _DebugP_logZone                                                               
70056700  __ABORT_STACK_END                                                             
00000100  __ABORT_STACK_SIZE                                                            
70056600  __ABORT_STACK_START                                                           
70055400  __BSS_END                                                                     
70054000  __BSS_START                                                                   
70056500  __FIQ_STACK_END                                                               
00000100  __FIQ_STACK_SIZE                                                              
70056400  __FIQ_STACK_START                                                             
70056400  __IRQ_STACK_END                                                               
00001000  __IRQ_STACK_SIZE                                                              
70055400  __IRQ_STACK_START                                                             
70054000  __STACK_END                                                                   
00004000  __STACK_SIZE                                                                  
70056600  __SVC_STACK_END                                                               
00000100  __SVC_STACK_SIZE                                                              
70056500  __SVC_STACK_START                                                             
00000000  __TI_ATRegion0_region_sz                                                      
00000000  __TI_ATRegion0_src_addr                                                       
00000000  __TI_ATRegion0_trg_addr                                                       
00000000  __TI_ATRegion1_region_sz                                                      
00000000  __TI_ATRegion1_src_addr                                                       
00000000  __TI_ATRegion1_trg_addr                                                       
00000000  __TI_ATRegion2_region_sz                                                      
00000000  __TI_ATRegion2_src_addr                                                       
00000000  __TI_ATRegion2_trg_addr                                                       
UNDEFED   __TI_CINIT_Base                                                               
UNDEFED   __TI_CINIT_Limit                                                              
UNDEFED   __TI_Handler_Table_Base                                                       
UNDEFED   __TI_Handler_Table_Limit                                                      
70012788  __TI_auto_init_nobinit_nopinit                                                
ffffffff  __TI_pprof_out_hndl                                                           
ffffffff  __TI_prof_data_size                                                           
ffffffff  __TI_prof_data_start                                                          
70000000  __TI_static_base__                                                            
70056800  __UNDEFINED_STACK_END                                                         
00000100  __UNDEFINED_STACK_SIZE                                                        
70056700  __UNDEFINED_STACK_START                                                       
70015b70  __aeabi_ldiv0                                                                 
70000b34  __aeabi_memclr                                                                
70000b34  __aeabi_memclr4                                                               
70000b34  __aeabi_memclr8                                                               
7000113c  __aeabi_memcpy                                                                
7000113c  __aeabi_memcpy4                                                               
7000113c  __aeabi_memcpy8                                                               
70015034  __aeabi_uldivmod                                                              
ffffffff  __binit__                                                                     
70016f11  __mpu_init                                                                    
70050000  __stack                                                                       
70050000  __start___llvm_prf_bits                                                       
70050000  __start___llvm_prf_cnts                                                       
70050000  __stop___llvm_prf_bits                                                        
70050000  __stop___llvm_prf_cnts                                                        
70009fb8  __udivmoddi4                                                                  
70016e04  _c_int00                                                                      
70016de0  _c_int00_sbl                                                                  
UNDEFED   _system_post_cinit                                                            
70015091  _system_pre_init                                                              
70000000  _vectors_sbl                                                                  
70001134  abort                                                                         
ffffffff  binit                                                                         
700192fc  gAddrTranslateConfig                                                          
70018e34  gAddrTranslateInfo                                                            
70019314  gBootloader0Args                                                              
700191e8  gBootloaderConfig                                                             
700191ac  gBootloaderConfigNum                                                          
700192b0  gBootloaderMemFxns                                                            
70019308  gBootloaderSelfCpuList                                                        
700196b8  gCacheConfig                                                                  
7001aa94  gCacheL1dCacheLineSize                                                        
7001aa98  gCacheL1pCacheLineSize                                                        
70019250  gClockConfig                                                                  
70055370  gClockCtrl                                                                    
70018fb0  gCoreBootInfo                                                                 
70019334  gDebugLogZone                                                                 
70019338  gDebugP_uartDrvIndex                                                          
7001933c  gHwiConfig                                                                    
70054000  gHwiCtrl                                                                      
700196c0  gMpuConfig                                                                    
700196cc  gMpuRegionConfig                                                              
700192c4  gResMemSection                                                                
70019210  gRmIaInstances                                                                
700190f4  gRmIrInstances                                                                
70019780  gRmIrqTree                                                                    
7001aa9c  gRmIrqTreeCount                                                               
70019828  gSOC_r5fVectors                                                               
70019488  gSciclientMap                                                                 
70019230  gSciclientSecProxyCfg                                                         
700192ec  gSocModules                                                                   
70019298  gSocModulesClockFrequency                                                     
7001932c  gUartConfig                                                                   
70019340  gUartConfigNum                                                                
70019344  gUartDmaChConfig                                                              
70016f20  gUartDmaHandle                                                                
700553f8  gUartHandle                                                                   
70019154  gUartParams                                                                   
700195b4  gUdmaRxMappedChRingAttributes                                                 
70019350  gUdmaTxMappedChRingAttributes                                                 
70005a91  main                                                                          
70019348  operatingMode                                                                 
700157c1  putchar_                                                                      
7001a3d4  tisci_if_CMP_EVENT_INTROUTER0                                                 
7001a594  tisci_if_CPSW0                                                                
7001a0c8  tisci_if_CPTS0                                                                
70019b58  tisci_if_DMASS0_INTAGGR_0                                                     
7001aaa8  tisci_if_EPWM0                                                                
7001aaac  tisci_if_EPWM3                                                                
7001aab0  tisci_if_EPWM6                                                                
7001a9bc  tisci_if_GPIO0                                                                
7001a9c4  tisci_if_GPIO1                                                                
7001aab4  tisci_if_GPMC0                                                                
7001aab8  tisci_if_GTC0                                                                 
70019a28  tisci_if_MAIN_GPIOMUX_INTROUTER0                                              
7001a9cc  tisci_if_MCU_GPIO0                                                            
70019f98  tisci_if_MCU_MCU_GPIOMUX_INTROUTER0                                           
7001a498  tisci_if_PCIE0                                                                
7001a1fc  tisci_if_PRU_ICSSG0                                                           
7001a218  tisci_if_PRU_ICSSG1                                                           
7001aabc  tisci_if_TIMER0                                                               
7001aac0  tisci_if_TIMER1                                                               
7001aac4  tisci_if_TIMER2                                                               
7001aac8  tisci_if_TIMER3                                                               
70019650  tisci_if_TIMESYNC_EVENT_INTROUTER0                                            
70018ef8  vint_usage_count_DMASS0_INTAGGR_0                                             
70014e01  vprintf_                                                                      


GLOBAL SYMBOLS: SORTED BY Symbol Address 

address   name                                                                          
-------   ----                                                                          
00000000  __TI_ATRegion0_region_sz                                                      
00000000  __TI_ATRegion0_src_addr                                                       
00000000  __TI_ATRegion0_trg_addr                                                       
00000000  __TI_ATRegion1_region_sz                                                      
00000000  __TI_ATRegion1_src_addr                                                       
00000000  __TI_ATRegion1_trg_addr                                                       
00000000  __TI_ATRegion2_region_sz                                                      
00000000  __TI_ATRegion2_src_addr                                                       
00000000  __TI_ATRegion2_trg_addr                                                       
00000100  __ABORT_STACK_SIZE                                                            
00000100  __FIQ_STACK_SIZE                                                              
00000100  __SVC_STACK_SIZE                                                              
00000100  __UNDEFINED_STACK_SIZE                                                        
00001000  __IRQ_STACK_SIZE                                                              
00004000  __STACK_SIZE                                                                  
70000000  __TI_static_base__                                                            
70000000  _vectors_sbl                                                                  
70000b34  __aeabi_memclr                                                                
70000b34  __aeabi_memclr4                                                               
70000b34  __aeabi_memclr8                                                               
70001134  C$$EXIT                                                                       
70001134  abort                                                                         
7000113c  __aeabi_memcpy                                                                
7000113c  __aeabi_memcpy4                                                               
7000113c  __aeabi_memcpy8                                                               
70001ae1  UART_open                                                                     
70002f81  Sciclient_service                                                             
700037d1  TimerP_setup                                                                  
70003cc1  Udma_chConfigRx                                                               
70004861  Udma_eventRegister                                                            
70004ec1  Bootloader_socCpuPowerOnResetR5f                                              
700050d1  Udma_ringAlloc                                                                
700052e1  Bootloader_socCpuResetRelease                                                 
700056d1  Bootloader_socCpuResetReleaseSelf                                             
700058b1  Udma_flowConfig                                                               
70005a91  main                                                                          
70005e21  SOC_moduleSetClockFrequency                                                   
70005fe1  UART_close                                                                    
700061a1  UART_lld_controllerIsr                                                        
70006351  UART_write                                                                    
70006501  Sciclient_rmClearInterruptRoute                                               
700066a1  Udma_chConfigTx                                                               
700069d1  Sciclient_rmProgramInterruptRoute                                             
70006e81  Udma_chConfigPdma                                                             
70007171  CSL_bcdmaChanOp                                                               
700072e1  Udma_chOpen                                                                   
700075c1  Udma_rmAllocMappedRxCh                                                        
70007721  Udma_rmAllocMappedTxCh                                                        
70007b41  UART_lld_initDma                                                              
70008081  Udma_rmAllocMappedRing                                                        
70008301  UART_procLineStatusErr                                                        
70008441  ClockP_init                                                                   
70008581  LPDDR4_AckCtlInterrupt                                                        
70008cf1  Udma_rmAllocIrIntr                                                            
70008e21  UART_lld_init                                                                 
70008f51  Sciclient_pmQueryModuleClkFreq                                                
70009081  Bootloader_rprcImageLoad                                                      
700091b1  Udma_rmAllocBlkCopyCh                                                         
700092e1  Udma_rmAllocBlkCopyHcCh                                                       
70009411  Udma_rmAllocBlkCopyUhcCh                                                      
70009541  Udma_rmAllocRxCh                                                              
70009671  Udma_rmAllocRxHcCh                                                            
700097a1  Udma_rmAllocRxUhcCh                                                           
700098d1  Udma_rmAllocTxCh                                                              
70009a01  Udma_rmAllocTxHcCh                                                            
70009b31  Udma_rmAllocTxUhcCh                                                           
70009ea1  LPDDR4_CheckCtlInterrupt                                                      
70009fb8  __udivmoddi4                                                                  
7000a431  Sciclient_pmSetModuleClkFreq                                                  
7000a651  Bootloader_loadSelfCpu                                                        
7000aec1  SemaphoreP_pend                                                               
7000afc1  Sciclient_getVersionCheck                                                     
7000b0c1  Bootloader_socCpuPowerOnResetM4f                                              
7000b2b1  AddrTranslateP_getLocalAddr                                                   
7000b841  UART_intrEnable                                                               
7000bae1  UART_intrDisable                                                              
7000bca1  Bootloader_socOpenFirewalls                                                   
7000be61  Pinmux_unlockMMR                                                              
7000bf41  Sciclient_procBootWaitProcessorState                                          
7000c021  UART_lld_write                                                                
7000c2c1  Udma_rmAllocVintrBit                                                          
7000c531  UART_lld_writeDma                                                             
7000c6d1  Udma_ringFree                                                                 
7000c7a1  SOC_isR5FDualCoreMode                                                         
7000c871  UART_lld_writeIntr                                                            
7000c941  Udma_eventUnRegister                                                          
7000cae1  UART_flushTxFifo                                                              
7000cbb1  Udma_chClose                                                                  
7000ce01  LPDDR4_ReadReg                                                                
7000cf81  ClockP_timerTickIsr                                                           
7000d101  ClockP_stop                                                                   
7000d1c1  LPDDR4_WriteReg                                                               
7000d4c1  Sciclient_getCurrentContext                                                   
7000d581  UART_init                                                                     
7000d6e1  Udma_getMappedChRingAttributes                                                
7000d791  UdmaChRxPrms_init                                                             
7000d841  UdmaChTxPrms_init                                                             
7000d8f1  Udma_chDisable                                                                
7000dbb1  ClockP_destruct                                                               
7000dc61  Drivers_uartOpen                                                              
7000de71  Sciclient_pmGetModuleClkNumParent                                             
7000dfd1  CSL_intaggrIsIntrPending                                                      
7000e1e1  DDR_init                                                                      
7000e291  Udma_rmAllocEvent                                                             
7000e331  Udma_rmAllocVintr                                                             
7000e3d1  Bootloader_socCpuSetEntryPoint                                                
7000e471  Sciclient_getContext                                                          
7000e511  Pinmux_config                                                                 
7000e5b1  Bootloader_socCpuSetClock                                                     
7000e651  Bootloader_socTranslateSectionAddr                                            
7000e6f1  SOC_controlModuleUnlockMMR                                                    
7000e791  Sciclient_pmGetModuleClkFreq                                                  
7000e831  Sciclient_pmGetModuleClkParent                                                
7000e8d1  Sciclient_pmSetModuleClkParent                                                
7000e971  Sciclient_procBootSetSequenceCtrl                                             
7000ea11  Sciclient_rmIrOutpIsFree                                                      
7000eab1  Udma_ringQueueRaw                                                             
7000ebf1  Sciclient_boardCfgPm                                                          
7000ec91  Sciclient_boardCfgRm                                                          
7000ed31  Sciclient_pmModuleGetClkStatus                                                
7000edd1  Bootloader_runCpu                                                             
7000ee71  Sciclient_init                                                                
7000f0f1  UdmaFlowPrms_init                                                             
7000f191  Udma_ringDequeueRaw                                                           
7000f231  Sciclient_waitForBootNotification                                             
7000f2d1  UART_lld_dmaDisableChannel                                                    
7000f371  ClockP_getTimeUsec                                                            
7000f411  SOC_moduleClockEnable                                                         
7000f551  Udma_rmFreeMappedRing                                                         
7000f671  Sciclient_pmGetModuleState                                                    
7000f701  Sciclient_pmModuleClkRequest                                                  
7000f791  Sciclient_pmSetModuleState                                                    
7000f8b1  UART_writeCancelNoCB                                                          
7000f941  LPDDR4_PollCtlIrq                                                             
7000fa61  Udma_ringFlushRaw                                                             
7000faf1  Bootloader_socCpuGetClock                                                     
7000fb81  CSL_bcdmaGetCfg                                                               
7000fc11  Sciclient_procBootReleaseProcessor                                            
7000fca1  Udma_rmFreeVintrBit                                                           
7000fdc1  UART_lld_flushTxFifo                                                          
70010391  _DebugP_assert                                                                
70010411  UART_Params_init                                                              
70010591  Udma_chGetCqRingHandle                                                        
70010611  Udma_chGetFqRingHandle                                                        
70010691  Udma_chEnable                                                                 
70010791  ClockP_usleep                                                                 
70010811  Bootloader_open                                                               
70010881  CSL_intaggrClrIntr                                                            
700108f1  ClockP_construct                                                              
70010961  Sciclient_rmGetResourceRange                                                  
700109d1  Udma_rmFreeMappedRxCh                                                         
70010a41  Udma_rmFreeMappedTxCh                                                         
70010ab1  Bootloader_socCpuPowerOnResetA53                                              
70010b21  Bootloader_socGetR5fBtcmAddrAndSize                                           
70010b91  LPDDR4_EnablePIInitiator                                                      
70010c71  Bootloader_bootSelfCpu                                                        
70010ce1  Bootloader_socGetR5fAtcmAddrAndSize                                           
70010d51  DDR_socEnableVttRegulator                                                     
70010dc1  UdmaChPrms_init                                                               
70010e31  LPDDR4_WriteCtlConfig                                                         
70010ea1  LPDDR4_WritePhyConfig                                                         
70010f11  LPDDR4_WritePhyIndepConfig                                                    
70010f81  Pinmux_lockMMR                                                                
70010ff1  Bootloader_loadCpu                                                            
70011061  Bootloader_socCpuRelease                                                      
70011371  Bootloader_socCpuRequest                                                      
700113e1  Bootloader_socInitR5FAtcmBtcm                                                 
700114c1  Sciclient_pmSetModuleRst_flags                                                
70011531  Sciclient_procBootGetProcessorState                                           
70011681  UART_lld_deInitDma                                                            
700116f1  Udma_rmFreeEvent                                                              
70011761  Udma_rmFreeIrIntr                                                             
700117d1  Udma_rmFreeVintr                                                              
700118b1  UdmaEventPrms_init                                                            
70011921  Udma_rmFreeBlkCopyCh                                                          
70011991  Udma_rmFreeBlkCopyHcCh                                                        
70011a01  Udma_rmFreeBlkCopyUhcCh                                                       
70011a71  Udma_rmFreeRxCh                                                               
70011ae1  Udma_rmFreeRxHcCh                                                             
70011b51  Udma_rmFreeRxUhcCh                                                            
70011bc1  Udma_rmFreeTxCh                                                               
70011c31  Udma_rmFreeTxHcCh                                                             
70011ca1  Udma_rmFreeTxUhcCh                                                            
70011d11  UART_getChar                                                                  
70011dd1  Udma_virtToPhyFxn                                                             
70011e91  Sciclient_pmSetModuleRst                                                      
70011ef1  Sciclient_procBootRequestProcessor                                            
70011f51  SemaphoreP_post                                                               
70011fb1  LPDDR4_CheckPhyIndepInterrupt                                                 
70012071  Module_clockSetFrequency                                                      
70012191  Sciclient_triggerSecHandover                                                  
700121f1  UART_lld_deInit                                                               
700123d1  Bootloader_socEnableICSSCores                                                 
70012431  Sciclient_firewallChangeOwnerInfo                                             
70012491  Sciclient_firewallSetRegion                                                   
700124f1  Sciclient_rmIrqSetRaw                                                         
700125b1  Sciclient_rmRingCfg                                                           
70012611  Sciclient_rmUdmapFlowCfg                                                      
70012671  Sciclient_rmUdmapFlowSizeThreshCfg                                            
700126d1  Sciclient_rmUdmapRxChCfg                                                      
70012731  Sciclient_rmUdmapTxChCfg                                                      
70012788  __TI_auto_init_nobinit_nopinit                                                
700127e1  Bootloader_BootImageInfo_init                                                 
70012841  Sciclient_rmIrqReleaseRaw                                                     
700128a1  Sciclient_rmPsilPair                                                          
70012901  Sciclient_rmPsilUnpair                                                        
700129c1  Udma_eventGetGlobalHandle                                                     
70012a81  Sciclient_procBootSetProcessorCfg                                             
70012ba1  UdmaRingPrms_init                                                             
70012c01  LPDDR4_AckPhyIndepInterrupt                                                   
70012c61  SOC_controlModuleLockMMR                                                      
70012cc1  SemaphoreP_construct                                                          
70012d81  Bootloader_socCpuPowerOnReset                                                 
70012dd1  Drivers_uartClose                                                             
70012e21  UART_checkCharsAvailInFifo                                                    
70012ec1  UART_getHandle                                                                
70012f61  Module_clockDisable                                                           
70012fb1  Module_clockEnable                                                            
700130a1  Udma_eventGetId                                                               
700130f1  CSL_pktdmaGetRxRT                                                             
70013141  CSL_pktdmaGetTxRT                                                             
70013191  Dpl_init                                                                      
700131e1  Sciclient_getDevId                                                            
70013231  UART_getIntrIdentityStatus                                                    
700132d1  UART_lld_dmaInit                                                              
70013321  LPDDR4_Init                                                                   
700133c1  Bootloader_socGetCoreVariant                                                  
70013411  Bootloader_socIsR5FSSDual                                                     
70013461  CSL_bcdmaTeardownRxChan                                                       
700134b1  CSL_bcdmaTeardownTxChan                                                       
70013501  DebugP_uartLogWriterPutChar                                                   
70013551  SOC_getWarmResetCauseMcuDomain                                                
700135a1  UART_readLineStatus                                                           
700135f1  CSL_bcdmaGetChanPeerReg                                                       
70013691  SOC_generateSwWarmResetMcuDomain                                              
700136e1  _DebugP_logZone                                                               
700137d1  ClockP_start                                                                  
700138c1  UdmaUtils_getRingMemSize                                                      
70013911  CSL_lcdma_ringaccIsTeardownComplete                                           
70013a51  Bootloader_enableMCUPLL                                                       
70013a91  CSL_emifDisableECC                                                            
70013ad1  CSL_emifEnableECC                                                             
70013b51  SOC_clearResetCauseMainMcuDomain                                              
70013cd1  UART_spaceAvail                                                               
70013d11  CSL_bcdmaSetChanPeerReg                                                       
70013d91  CSL_pktdmaSetRxRT                                                             
70013dd1  CSL_pktdmaSetTxRT                                                             
70013e51  System_init                                                                   
70013ed1  UART_IsTxRxFifoEmpty                                                          
70013f51  UART_lld_dmaDeInit                                                            
70013f91  Bootloader_rprcImageParseEntryPoint                                           
70013fd1  Bootloader_socIsMCUResetIsoEnabled                                            
70014211  Bootloader_close                                                              
70014251  Bootloader_socGetSciclientCpuClkId                                            
70014291  Bootloader_socGetSciclientCpuDevId                                            
700142d1  CSL_pktdmaTeardownRxChan                                                      
70014311  CSL_pktdmaTeardownTxChan                                                      
70014391  TimerP_Params_init                                                            
70014451  Bootloader_socGetSciclientCpuProcId                                           
70014491  Bootloader_socMemInitCpu                                                      
70014591  Bootloader_runSelfCpu                                                         
700145c1  CSL_emifConfig                                                                
700145f1  CSL_pktdmaGetChanPeerReg                                                      
70014621  CSL_pktdmaSetChanPeerReg                                                      
70014651  LPDDR4_Start                                                                  
700146b1  Bootloader_bootCpu                                                            
700146e1  Bootloader_socCpuGetClkDefault                                                
70014711  Bootloader_socGetCoreName                                                     
70014801  UART_deinit                                                                   
700148c1  CSL_bcdmaGetRxRT                                                              
700148f1  CSL_bcdmaGetTxRT                                                              
70014921  CSL_bcdmaSetRxRT                                                              
70014951  CSL_bcdmaSetTxRT                                                              
70014981  CSL_emifClearECCInterruptStatus                                               
700149b1  CSL_emifEnableECCInterrupts                                                   
70014a11  DebugP_logZoneEnable                                                          
70014a71  SemaphoreP_constructBinary                                                    
70014aa1  TimerP_clearOverflowInt                                                       
70014ad1  Bootloader_socGetSelfCpuList                                                  
70014b01  Bootloader_socInitM4fIram                                                     
70014b31  Bootloader_socResetWorkaround                                                 
70014b91  DDR_enableInlineECC                                                           
70014c21  System_deinit                                                                 
70014c51  UART_Transaction_init                                                         
70014c81  UART_intr2Disable                                                             
70014cb1  UART_lld_Transaction_init                                                     
70014ce1  UART_lld_dmaWrite                                                             
70014d11  UART_operatingModeSelect                                                      
70014e01  vprintf_                                                                      
70014e31  LPDDR4_Probe                                                                  
70014e61  Udma_ringGetForwardRingOcc                                                    
70014e91  Udma_ringGetReverseRingOcc                                                    
70014ec1  Bootloader_CpuInfo_init                                                       
70014fe1  SemaphoreP_constructMutex                                                     
70015034  __aeabi_uldivmod                                                              
70015091  _system_pre_init                                                              
700150f1  Udma_rmTranslateCoreIntrInput                                                 
70015121  Udma_rmTranslateIrOutput                                                      
70015151  Bootloader_socNotifyFirewallOpen                                              
70015171  ClockP_isActive                                                               
70015191  ClockP_usecToTicks                                                            
700151d1  Pinmux_init                                                                   
70015211  ClockP_Params_init                                                            
70015291  UART_lld_Transaction_deInit                                                   
700152d1  UdmaChPdmaPrms_init                                                           
700152f1  CSL_secProxyGetDataAddr                                                       
7001532c  TI_memcpy_small                                                               
70015391  LPDDR4_AddOffset                                                              
70015451  Sciclient_rmIrqSet                                                            
70015491  SemaphoreP_Params_init                                                        
700154b1  TimerP_start                                                                  
700154d1  TimerP_stop                                                                   
70015531  UART_putChar                                                                  
70015548  TI_memset_small                                                               
70015641  Sciclient_rmIrqRelease                                                        
700156c1  Bootloader_Params_init                                                        
700156e1  Bootloader_socSecHandover                                                     
70015741  DebugP_uartSetDrvIndex                                                        
700157a1  Udma_rmAllocFreeRing                                                          
700157c1  putchar_                                                                      
70015801  TimerP_getCount                                                               
70015821  TimerP_getReloadCount                                                         
70015861  CPS_UncachedWrite32                                                           
70015911  ClockP_getTimerCount                                                          
70015921  ClockP_timerClearOverflowInt                                                  
700159a1  Udma_defaultVirtToPhyFxn                                                      
700159d1  CPS_UncachedRead32                                                            
70015a61  ClockP_getTicks                                                               
70015a71  PowerClock_init                                                               
70015a81  Sciclient_deinit                                                              
70015aa1  Udma_rmFreeFreeRing                                                           
70015ab1  Bootloader_socGetSBLMem                                                       
70015ae1  Bootloader_socWaitForFWBoot                                                   
70015af1  Drivers_close                                                                 
70015b01  Drivers_open                                                                  
70015b11  Drivers_uartInit                                                              
70015b21  PowerClock_deinit                                                             
70015b31  SemaphoreP_destruct                                                           
70015b70  __aeabi_ldiv0                                                                 
70015b81  Dpl_deinit                                                                    
70015b91  TaskP_yield                                                                   
70015ba1  HwiP_enableInt                                                                
70015be1  HwiP_disableInt                                                               
70015c41  HwiP_restoreInt                                                               
70015c71  HwiP_clearInt                                                                 
70015cb1  HwiP_post                                                                     
70015cf1  HwiP_Params_init                                                              
70015d21  HwiP_construct                                                                
70015f21  HwiP_destruct                                                                 
70015f91  HwiP_init                                                                     
70016141  HwiP_inISR                                                                    
70016171  HwiP_irq_handler_c                                                            
700162b1  HwiP_fiq_handler                                                              
70016411  HwiP_reserved_handler                                                         
70016451  HwiP_undefined_handler                                                        
70016491  HwiP_svc_handler                                                              
700164d1  HwiP_prefetch_abort_handler                                                   
70016511  HwiP_data_abort_handler_c                                                     
70016544  HwiP_irq_handler                                                              
700165b8  HwiP_data_abort_handler                                                       
70016604  HwiP_disable                                                                  
70016614  HwiP_disableFIQ                                                               
70016624  HwiP_enable                                                                   
70016634  HwiP_enableFIQ                                                                
70016644  HwiP_restore                                                                  
7001664c  HwiP_enableVIC                                                                
7001665c  HwiP_disableVIC                                                               
7001666c  HwiP_getCPSR                                                                  
70016680  CacheP_disableL1d                                                             
700166a8  CacheP_disableL1p                                                             
700166c0  CacheP_enableL1d                                                              
700166d8  CacheP_enableL1p                                                              
700166f0  CacheP_invL1d                                                                 
70016728  CacheP_invL1p                                                                 
70016764  CacheP_invL1dAll                                                              
7001676c  CacheP_invL1pAll                                                              
70016774  CacheP_wb                                                                     
700167b0  CacheP_wbInv                                                                  
700167ec  CacheP_wbAll                                                                  
70016894  CacheP_wbInvAll                                                               
700168ac  CacheP_wbInvAllAsm                                                            
7001694c  CacheP_getEnabled                                                             
70016984  CacheP_getCacheLevelInfo                                                      
70016990  CacheP_configForceWrThru                                                      
700169b0  CacheP_setDLFO                                                                
700169c1  CacheP_init                                                                   
70016a51  CacheP_disable                                                                
70016aa1  CacheP_enable                                                                 
70016ae1  CacheP_inv                                                                    
70016b21  MpuP_RegionAttrs_init                                                         
70016b51  MpuP_setRegion                                                                
70016c41  MpuP_isEnable                                                                 
70016c51  MpuP_disable                                                                  
70016c91  MpuP_enable                                                                   
70016cd1  MpuP_init                                                                     
70016d68  MpuP_disableAsm                                                               
70016d80  MpuP_disableBRAsm                                                             
70016d90  MpuP_enableAsm                                                                
70016da8  MpuP_enableBRAsm                                                              
70016db8  MpuP_isEnableAsm                                                              
70016dcc  MpuP_setRegionAsm                                                             
70016de0  _c_int00_sbl                                                                  
70016e04  _c_int00                                                                      
70016ee1  _DebugP_assertNoLog                                                           
70016f11  __mpu_init                                                                    
70016f20  DDRSS_phyReg                                                                  
70016f20  gUartDmaHandle                                                                
7001770c  DDRSS_ctlReg                                                                  
70017da8  DDRSS_phyIndepReg                                                             
7001830c  DDRSS_phyRegNum                                                               
70018702  DDRSS_ctlRegNum                                                               
70018a50  DDRSS_phyIndepRegNum                                                          
70018e34  gAddrTranslateInfo                                                            
70018ef8  vint_usage_count_DMASS0_INTAGGR_0                                             
70018fb0  gCoreBootInfo                                                                 
700190f4  gRmIrInstances                                                                
70019154  gUartParams                                                                   
700191ac  gBootloaderConfigNum                                                          
700191e8  gBootloaderConfig                                                             
70019210  gRmIaInstances                                                                
70019230  gSciclientSecProxyCfg                                                         
70019250  gClockConfig                                                                  
70019298  gSocModulesClockFrequency                                                     
700192b0  gBootloaderMemFxns                                                            
700192c4  gResMemSection                                                                
700192ec  gSocModules                                                                   
700192fc  gAddrTranslateConfig                                                          
70019308  gBootloaderSelfCpuList                                                        
70019314  gBootloader0Args                                                              
7001932c  gUartConfig                                                                   
70019334  gDebugLogZone                                                                 
70019338  gDebugP_uartDrvIndex                                                          
7001933c  gHwiConfig                                                                    
70019340  gUartConfigNum                                                                
70019344  gUartDmaChConfig                                                              
70019348  operatingMode                                                                 
70019350  gUdmaTxMappedChRingAttributes                                                 
70019488  gSciclientMap                                                                 
700195b4  gUdmaRxMappedChRingAttributes                                                 
70019650  tisci_if_TIMESYNC_EVENT_INTROUTER0                                            
700196b8  gCacheConfig                                                                  
700196c0  gMpuConfig                                                                    
700196cc  gMpuRegionConfig                                                              
70019780  gRmIrqTree                                                                    
70019828  gSOC_r5fVectors                                                               
70019a28  tisci_if_MAIN_GPIOMUX_INTROUTER0                                              
70019b58  tisci_if_DMASS0_INTAGGR_0                                                     
70019f98  tisci_if_MCU_MCU_GPIOMUX_INTROUTER0                                           
7001a0c8  tisci_if_CPTS0                                                                
7001a1fc  tisci_if_PRU_ICSSG0                                                           
7001a218  tisci_if_PRU_ICSSG1                                                           
7001a3d4  tisci_if_CMP_EVENT_INTROUTER0                                                 
7001a498  tisci_if_PCIE0                                                                
7001a594  tisci_if_CPSW0                                                                
7001a63a  CMP_EVENT_INTROUTER0_outp_0_15_to_GICSS0_spi_48_63                            
7001a642  CMP_EVENT_INTROUTER0_outp_16_23_to_R5FSS0_CORE0_intr_48_55                    
7001a64a  CMP_EVENT_INTROUTER0_outp_16_23_to_R5FSS0_CORE1_intr_48_55                    
7001a652  CMP_EVENT_INTROUTER0_outp_24_31_to_R5FSS1_CORE0_intr_48_55                    
7001a65a  CMP_EVENT_INTROUTER0_outp_24_31_to_R5FSS1_CORE1_intr_48_55                    
7001a662  CMP_EVENT_INTROUTER0_outp_32_39_to_DMASS0_INTAGGR_0_intaggr_levi_pend_0_7     
7001a66a  CPSW0_cpts_comp_0_0_to_CMP_EVENT_INTROUTER0_in_80_80                          
7001a672  CPSW0_cpts_genf0_1_1_to_TIMESYNC_EVENT_INTROUTER0_in_21_21                    
7001a67a  CPSW0_cpts_genf1_2_2_to_TIMESYNC_EVENT_INTROUTER0_in_22_22                    
7001a682  CPSW0_cpts_sync_3_3_to_TIMESYNC_EVENT_INTROUTER0_in_34_34                     
7001a68a  CPTS0_cpts_comp_0_0_to_CMP_EVENT_INTROUTER0_in_82_82                          
7001a692  CPTS0_cpts_genf0_1_1_to_TIMESYNC_EVENT_INTROUTER0_in_16_16                    
7001a69a  CPTS0_cpts_genf1_2_2_to_TIMESYNC_EVENT_INTROUTER0_in_17_17                    
7001a6a2  CPTS0_cpts_genf2_3_3_to_TIMESYNC_EVENT_INTROUTER0_in_18_18                    
7001a6aa  CPTS0_cpts_genf3_4_4_to_TIMESYNC_EVENT_INTROUTER0_in_19_19                    
7001a6b2  CPTS0_cpts_genf4_5_5_to_TIMESYNC_EVENT_INTROUTER0_in_20_20                    
7001a6ba  CPTS0_cpts_genf5_6_6_to_TIMESYNC_EVENT_INTROUTER0_in_24_24                    
7001a6c2  CPTS0_cpts_sync_7_7_to_TIMESYNC_EVENT_INTROUTER0_in_35_35                     
7001a6ca  DMASS0_INTAGGR_0_intaggr_vintr_pend_0_39_to_GICSS0_spi_64_103                 
7001a6d2  DMASS0_INTAGGR_0_intaggr_vintr_pend_120_127_to_R5FSS1_CORE0_intr_8_15         
7001a6da  DMASS0_INTAGGR_0_intaggr_vintr_pend_128_135_to_R5FSS1_CORE1_intr_8_15         
7001a6e2  DMASS0_INTAGGR_0_intaggr_vintr_pend_152_159_to_PRU_ICSSG0_pr1_slv_intr_16_23  
7001a6ea  DMASS0_INTAGGR_0_intaggr_vintr_pend_160_167_to_PRU_ICSSG1_pr1_slv_intr_16_23  
7001a6f2  DMASS0_INTAGGR_0_intaggr_vintr_pend_168_183_to_MCU_M4FSS0_CORE0_nvic_32_47    
7001a6fa  DMASS0_INTAGGR_0_intaggr_vintr_pend_40_71_to_R5FSS0_CORE0_intr_64_95          
7001a702  DMASS0_INTAGGR_0_intaggr_vintr_pend_40_71_to_R5FSS0_CORE1_intr_64_95          
7001a70a  DMASS0_INTAGGR_0_intaggr_vintr_pend_72_79_to_R5FSS0_CORE0_intr_8_15           
7001a712  DMASS0_INTAGGR_0_intaggr_vintr_pend_80_87_to_R5FSS0_CORE1_intr_8_15           
7001a71a  DMASS0_INTAGGR_0_intaggr_vintr_pend_88_119_to_R5FSS1_CORE0_intr_64_95         
7001a722  DMASS0_INTAGGR_0_intaggr_vintr_pend_88_119_to_R5FSS1_CORE1_intr_64_95         
7001a72a  EPWM0_epwm_synco_o_0_0_to_TIMESYNC_EVENT_INTROUTER0_in_39_39                  
7001a732  EPWM3_epwm_synco_o_0_0_to_TIMESYNC_EVENT_INTROUTER0_in_40_40                  
7001a73a  EPWM6_epwm_synco_o_0_0_to_TIMESYNC_EVENT_INTROUTER0_in_41_41                  
7001a742  GPIO0_gpio_0_89_to_MAIN_GPIOMUX_INTROUTER0_in_0_89                            
7001a74a  GPIO0_gpio_bank_90_98_to_MAIN_GPIOMUX_INTROUTER0_in_190_198                   
7001a752  GPIO1_gpio_0_89_to_MAIN_GPIOMUX_INTROUTER0_in_90_179                          
7001a75a  GPIO1_gpio_bank_90_98_to_MAIN_GPIOMUX_INTROUTER0_in_180_188                   
7001a762  GPMC0_gpmc_sdmareq_0_0_to_DMASS0_INTAGGR_0_intaggr_levi_pend_29_29            
7001a76a  GTC0_gtc_push_event_0_0_to_TIMESYNC_EVENT_INTROUTER0_in_36_36                 
7001a772  MAIN_GPIOMUX_INTROUTER0_outp_0_15_to_GICSS0_spi_32_47                         
7001a77a  MAIN_GPIOMUX_INTROUTER0_outp_0_15_to_R5FSS0_CORE0_intr_32_47                  
7001a782  MAIN_GPIOMUX_INTROUTER0_outp_0_15_to_R5FSS0_CORE1_intr_32_47                  
7001a78a  MAIN_GPIOMUX_INTROUTER0_outp_0_15_to_R5FSS1_CORE0_intr_32_47                  
7001a792  MAIN_GPIOMUX_INTROUTER0_outp_0_15_to_R5FSS1_CORE1_intr_32_47                  
7001a79a  MAIN_GPIOMUX_INTROUTER0_outp_16_17_to_DMASS0_INTAGGR_0_intaggr_levi_pend_24_25
7001a7a2  MAIN_GPIOMUX_INTROUTER0_outp_18_23_to_PRU_ICSSG0_pr1_iep0_cap_intr_req_4_9    
7001a7aa  MAIN_GPIOMUX_INTROUTER0_outp_18_23_to_PRU_ICSSG1_pr1_iep0_cap_intr_req_4_9    
7001a7b2  MAIN_GPIOMUX_INTROUTER0_outp_24_29_to_PRU_ICSSG0_pr1_iep1_cap_intr_req_10_15  
7001a7ba  MAIN_GPIOMUX_INTROUTER0_outp_24_29_to_PRU_ICSSG1_pr1_iep1_cap_intr_req_10_15  
7001a7c2  MAIN_GPIOMUX_INTROUTER0_outp_30_37_to_DMASS0_INTAGGR_0_intaggr_levi_pend_16_23
7001a7ca  MAIN_GPIOMUX_INTROUTER0_outp_38_45_to_PRU_ICSSG0_pr1_slv_intr_46_53           
7001a7d2  MAIN_GPIOMUX_INTROUTER0_outp_46_53_to_PRU_ICSSG1_pr1_slv_intr_46_53           
7001a7da  MCU_GPIO0_gpio_0_29_to_MCU_MCU_GPIOMUX_INTROUTER0_in_0_29                     
7001a7e2  MCU_GPIO0_gpio_bank_30_31_to_MCU_MCU_GPIOMUX_INTROUTER0_in_30_31              
7001a7ea  MCU_MCU_GPIOMUX_INTROUTER0_outp_0_3_to_GICSS0_spi_104_107                     
7001a7f2  MCU_MCU_GPIOMUX_INTROUTER0_outp_0_3_to_R5FSS0_CORE0_intr_104_107              
7001a7fa  MCU_MCU_GPIOMUX_INTROUTER0_outp_0_3_to_R5FSS0_CORE1_intr_104_107              
7001a802  MCU_MCU_GPIOMUX_INTROUTER0_outp_0_3_to_R5FSS1_CORE0_intr_104_107              
7001a80a  MCU_MCU_GPIOMUX_INTROUTER0_outp_0_3_to_R5FSS1_CORE1_intr_104_107              
7001a812  MCU_MCU_GPIOMUX_INTROUTER0_outp_4_7_to_MCU_M4FSS0_CORE0_nvic_0_3              
7001a81a  MCU_MCU_GPIOMUX_INTROUTER0_outp_8_11_to_MCU_ESM0_esm_pls_event0_88_91         
7001a822  MCU_MCU_GPIOMUX_INTROUTER0_outp_8_11_to_MCU_ESM0_esm_pls_event1_92_95         
7001a82a  MCU_MCU_GPIOMUX_INTROUTER0_outp_8_11_to_MCU_ESM0_esm_pls_event2_96_99         
7001a832  PCIE0_pcie_cpts_comp_0_0_to_CMP_EVENT_INTROUTER0_in_81_81                     
7001a83a  PCIE0_pcie_cpts_genf0_1_1_to_TIMESYNC_EVENT_INTROUTER0_in_23_23               
7001a842  PCIE0_pcie_cpts_hw1_push_2_2_to_TIMESYNC_EVENT_INTROUTER0_in_37_37            
7001a84a  PCIE0_pcie_cpts_sync_3_3_to_TIMESYNC_EVENT_INTROUTER0_in_33_33                
7001a852  PCIE0_pcie_ptm_valid_pulse_4_4_to_TIMESYNC_EVENT_INTROUTER0_in_38_38          
7001a85a  PRU_ICSSG0_pr1_edc0_sync0_out_0_0_to_TIMESYNC_EVENT_INTROUTER0_in_25_25       
7001a862  PRU_ICSSG0_pr1_edc0_sync1_out_1_1_to_TIMESYNC_EVENT_INTROUTER0_in_26_26       
7001a86a  PRU_ICSSG0_pr1_edc1_sync0_out_2_2_to_TIMESYNC_EVENT_INTROUTER0_in_27_27       
7001a872  PRU_ICSSG0_pr1_edc1_sync1_out_3_3_to_TIMESYNC_EVENT_INTROUTER0_in_28_28       
7001a87a  PRU_ICSSG0_pr1_host_intr_req_4_11_to_CMP_EVENT_INTROUTER0_in_0_7              
7001a882  PRU_ICSSG0_pr1_iep0_cmp_intr_req_12_27_to_CMP_EVENT_INTROUTER0_in_16_31       
7001a88a  PRU_ICSSG0_pr1_iep1_cmp_intr_req_28_43_to_CMP_EVENT_INTROUTER0_in_32_47       
7001a892  PRU_ICSSG1_pr1_edc0_sync0_out_0_0_to_TIMESYNC_EVENT_INTROUTER0_in_29_29       
7001a89a  PRU_ICSSG1_pr1_edc0_sync1_out_1_1_to_TIMESYNC_EVENT_INTROUTER0_in_30_30       
7001a8a2  PRU_ICSSG1_pr1_edc1_sync0_out_2_2_to_TIMESYNC_EVENT_INTROUTER0_in_31_31       
7001a8aa  PRU_ICSSG1_pr1_edc1_sync1_out_3_3_to_TIMESYNC_EVENT_INTROUTER0_in_32_32       
7001a8b2  PRU_ICSSG1_pr1_host_intr_req_4_11_to_CMP_EVENT_INTROUTER0_in_8_15             
7001a8ba  PRU_ICSSG1_pr1_iep0_cmp_intr_req_12_27_to_CMP_EVENT_INTROUTER0_in_48_63       
7001a8c2  PRU_ICSSG1_pr1_iep1_cmp_intr_req_28_43_to_CMP_EVENT_INTROUTER0_in_64_79       
7001a8ca  TIMER0_timer_pwm_0_0_to_TIMESYNC_EVENT_INTROUTER0_in_0_0                      
7001a8d2  TIMER1_timer_pwm_0_0_to_TIMESYNC_EVENT_INTROUTER0_in_1_1                      
7001a8da  TIMER2_timer_pwm_0_0_to_TIMESYNC_EVENT_INTROUTER0_in_2_2                      
7001a8e2  TIMER3_timer_pwm_0_0_to_TIMESYNC_EVENT_INTROUTER0_in_3_3                      
7001a8ea  TIMESYNC_EVENT_INTROUTER0_outl_0_7_to_DMASS0_INTAGGR_0_intaggr_levi_pend_8_15 
7001a8f2  TIMESYNC_EVENT_INTROUTER0_outl_10_10_to_PRU_ICSSG0_pr1_edc1_latch0_in_2_2     
7001a8fa  TIMESYNC_EVENT_INTROUTER0_outl_11_11_to_PRU_ICSSG0_pr1_edc1_latch1_in_3_3     
7001a902  TIMESYNC_EVENT_INTROUTER0_outl_12_12_to_PRU_ICSSG1_pr1_edc0_latch0_in_0_0     
7001a90a  TIMESYNC_EVENT_INTROUTER0_outl_13_13_to_PRU_ICSSG1_pr1_edc0_latch1_in_1_1     
7001a912  TIMESYNC_EVENT_INTROUTER0_outl_14_14_to_PRU_ICSSG1_pr1_edc1_latch0_in_2_2     
7001a91a  TIMESYNC_EVENT_INTROUTER0_outl_15_15_to_PRU_ICSSG1_pr1_edc1_latch1_in_3_3     
7001a922  TIMESYNC_EVENT_INTROUTER0_outl_16_16_to_CPTS0_cpts_hw1_push_0_0               
7001a92a  TIMESYNC_EVENT_INTROUTER0_outl_17_17_to_CPTS0_cpts_hw2_push_1_1               
7001a932  TIMESYNC_EVENT_INTROUTER0_outl_18_18_to_CPTS0_cpts_hw3_push_2_2               
7001a93a  TIMESYNC_EVENT_INTROUTER0_outl_19_19_to_CPTS0_cpts_hw4_push_3_3               
7001a942  TIMESYNC_EVENT_INTROUTER0_outl_20_20_to_CPTS0_cpts_hw5_push_4_4               
7001a94a  TIMESYNC_EVENT_INTROUTER0_outl_21_21_to_CPTS0_cpts_hw6_push_5_5               
7001a952  TIMESYNC_EVENT_INTROUTER0_outl_22_22_to_CPTS0_cpts_hw7_push_6_6               
7001a95a  TIMESYNC_EVENT_INTROUTER0_outl_23_23_to_CPTS0_cpts_hw8_push_7_7               
7001a962  TIMESYNC_EVENT_INTROUTER0_outl_29_29_to_PCIE0_pcie_cpts_hw2_push_0_0          
7001a96a  TIMESYNC_EVENT_INTROUTER0_outl_30_30_to_CPSW0_cpts_hw1_push_0_0               
7001a972  TIMESYNC_EVENT_INTROUTER0_outl_31_31_to_CPSW0_cpts_hw2_push_1_1               
7001a97a  TIMESYNC_EVENT_INTROUTER0_outl_32_32_to_CPSW0_cpts_hw3_push_2_2               
7001a982  TIMESYNC_EVENT_INTROUTER0_outl_33_33_to_CPSW0_cpts_hw4_push_3_3               
7001a98a  TIMESYNC_EVENT_INTROUTER0_outl_34_34_to_CPSW0_cpts_hw5_push_4_4               
7001a992  TIMESYNC_EVENT_INTROUTER0_outl_35_35_to_CPSW0_cpts_hw6_push_5_5               
7001a99a  TIMESYNC_EVENT_INTROUTER0_outl_36_36_to_CPSW0_cpts_hw7_push_6_6               
7001a9a2  TIMESYNC_EVENT_INTROUTER0_outl_37_37_to_CPSW0_cpts_hw8_push_7_7               
7001a9aa  TIMESYNC_EVENT_INTROUTER0_outl_8_8_to_PRU_ICSSG0_pr1_edc0_latch0_in_0_0       
7001a9b2  TIMESYNC_EVENT_INTROUTER0_outl_9_9_to_PRU_ICSSG0_pr1_edc0_latch1_in_1_1       
7001a9bc  tisci_if_GPIO0                                                                
7001a9c4  tisci_if_GPIO1                                                                
7001a9cc  tisci_if_MCU_GPIO0                                                            
7001aa94  gCacheL1dCacheLineSize                                                        
7001aa98  gCacheL1pCacheLineSize                                                        
7001aa9c  gRmIrqTreeCount                                                               
7001aaa8  tisci_if_EPWM0                                                                
7001aaac  tisci_if_EPWM3                                                                
7001aab0  tisci_if_EPWM6                                                                
7001aab4  tisci_if_GPMC0                                                                
7001aab8  tisci_if_GTC0                                                                 
7001aabc  tisci_if_TIMER0                                                               
7001aac0  tisci_if_TIMER1                                                               
7001aac4  tisci_if_TIMER2                                                               
7001aac8  tisci_if_TIMER3                                                               
70050000  __stack                                                                       
70050000  __start___llvm_prf_bits                                                       
70050000  __start___llvm_prf_cnts                                                       
70050000  __stop___llvm_prf_bits                                                        
70050000  __stop___llvm_prf_cnts                                                        
70054000  __BSS_START                                                                   
70054000  __STACK_END                                                                   
70054000  gHwiCtrl                                                                      
70055370  gClockCtrl                                                                    
700553f8  gUartHandle                                                                   
70055400  __BSS_END                                                                     
70055400  __IRQ_STACK_START                                                             
70056400  __FIQ_STACK_START                                                             
70056400  __IRQ_STACK_END                                                               
70056500  __FIQ_STACK_END                                                               
70056500  __SVC_STACK_START                                                             
70056600  __ABORT_STACK_START                                                           
70056600  __SVC_STACK_END                                                               
70056700  __ABORT_STACK_END                                                             
70056700  __UNDEFINED_STACK_START                                                       
70056800  __UNDEFINED_STACK_END                                                         
ffffffff  __TI_pprof_out_hndl                                                           
ffffffff  __TI_prof_data_size                                                           
ffffffff  __TI_prof_data_start                                                          
ffffffff  __binit__                                                                     
ffffffff  binit                                                                         
UNDEFED   __TI_CINIT_Base                                                               
UNDEFED   __TI_CINIT_Limit                                                              
UNDEFED   __TI_Handler_Table_Base                                                       
UNDEFED   __TI_Handler_Table_Limit                                                      
UNDEFED   _system_post_cinit                                                            

[612 symbols]
